ASxxxx Linker V03.00/V05.40 + sdld,  page 1.
Hexadecimal  [32-Bits]

Area                                    Addr        Size        Decimal Bytes (Attributes)
--------------------------------        ----        ----        ------- ----- ------------
.  .ABS.                            00000000    00000000 =           0. bytes (ABS,CON)

      Value  Global                              Global Defined In Module
      -----  --------------------------------   ------------------------
     00000000  .__.ABS.                           _startup
     00000000  l_CABS                          
     00000000  l_CONST                         
     00000000  l_DABS                          
     00000000  l_DATA                          
     00000000  l__CODE                         
     00000000  s_.debug_abbrev                 
     00000000  s_.debug_frame                  
     00000000  s_.debug_info                   
     00000000  s_.debug_line                   
     00000000  s_.debug_loc                    
     00000000  s_.debug_pubnames               
     00000000  s_CABS                          
     00000000  s_DABS                          
     00000000  s__CODE                         
     00000001  l_SSEG                          
     00000001  s_DATA                          
     00000001  s_INITIALIZED                   
     00000003  l_GSFINAL                       
     00000007  l_HOME                          
     0000000D  l_INITIALIZED                   
     0000000D  l_INITIALIZER                   
     0000000E  s_SSEG                          
     00000023  l_GSINIT                        
     00000105  l_.debug_abbrev                 
     00000115  l_.debug_pubnames               
     00000224  l_.debug_loc                    
     0000027B  l_CODE                          
     00000310  l_.debug_frame                  
     00000478  l_.debug_line                   
     000004E0  l_.debug_info                   
     00008000  s_HOME                          
     00008007  s_GSINIT                        
     0000802A  s_GSFINAL                       
     0000802D  s_CONST                         
     0000802D  s_INITIALIZER                   
     0000803A  s_CODE                          

ASxxxx Linker V03.00/V05.40 + sdld,  page 2.
Hexadecimal  [32-Bits]

Area                                    Addr        Size        Decimal Bytes (Attributes)
--------------------------------        ----        ----        ------- ----- ------------
INITIALIZED                         00000001    0000000D =          13. bytes (REL,CON)

      Value  Global                              Global Defined In Module
      -----  --------------------------------   ------------------------
     00000001  Fusb_tx$tx_buf_size$0_0$0          usb_tx
     00000002  Fusb_tx$usb_tx_buf$0_0$0           usb_tx

ASxxxx Linker V03.00/V05.40 + sdld,  page 3.
Hexadecimal  [32-Bits]

Area                                    Addr        Size        Decimal Bytes (Attributes)
--------------------------------        ----        ----        ------- ----- ------------
SSEG                                0000000E    00000001 =           1. bytes (REL,CON)

      Value  Global                              Global Defined In Module
      -----  --------------------------------   ------------------------
ASxxxx Linker V03.00/V05.40 + sdld,  page 4.
Hexadecimal  [32-Bits]

Area                                    Addr        Size        Decimal Bytes (Attributes)
--------------------------------        ----        ----        ------- ----- ------------
HOME                                00008000    00000007 =           7. bytes (REL,CON)

      Value  Global                              Global Defined In Module
      -----  --------------------------------   ------------------------
     00008000  A$main$48                          main
     00008004  A$main$86                          main

ASxxxx Linker V03.00/V05.40 + sdld,  page 5.
Hexadecimal  [32-Bits]

Area                                    Addr        Size        Decimal Bytes (Attributes)
--------------------------------        ----        ----        ------- ----- ------------
GSINIT                              00008007    00000023 =          35. bytes (REL,CON)

      Value  Global                              Global Defined In Module
      -----  --------------------------------   ------------------------
     00008007  A$main$56                          main
     0000800A  A$main$57                          main
     0000800B  A$main$58                          main
     0000800D  A$main$59                          main
     00008010  A$main$62                          main
     00008013  A$main$63                          main
     00008015  A$main$65                          main
     00008019  A$main$66                          main
     0000801A  A$main$67                          main
     0000801C  A$main$69                          main
     0000801F  A$main$70                          main
     00008021  A$main$72                          main
     00008024  A$main$73                          main
     00008027  A$main$74                          main
     00008028  A$main$75                          main
ASxxxx Linker V03.00/V05.40 + sdld,  page 6.
Hexadecimal  [32-Bits]

Area                                    Addr        Size        Decimal Bytes (Attributes)
--------------------------------        ----        ----        ------- ----- ------------
GSFINAL                             0000802A    00000003 =           3. bytes (REL,CON)

      Value  Global                              Global Defined In Module
      -----  --------------------------------   ------------------------
     0000802A  A$main$79                          main

ASxxxx Linker V03.00/V05.40 + sdld,  page 7.
Hexadecimal  [32-Bits]

Area                                    Addr        Size        Decimal Bytes (Attributes)
--------------------------------        ----        ----        ------- ----- ------------
INITIALIZER                         0000802D    0000000D =          13. bytes (REL,CON)

      Value  Global                              Global Defined In Module
      -----  --------------------------------   ------------------------
     0000802D  Fusb_tx$__xinit_tx_buf_size$0_0$   usb_tx
     0000802E  Fusb_tx$__xinit_usb_tx_buf$0_0$0   usb_tx

ASxxxx Linker V03.00/V05.40 + sdld,  page 8.
Hexadecimal  [32-Bits]

Area                                    Addr        Size        Decimal Bytes (Attributes)
--------------------------------        ----        ----        ------- ----- ------------
CODE                                0000803A    0000027B =         635. bytes (REL,CON)

      Value  Global                              Global Defined In Module
      -----  --------------------------------   ------------------------
     0000803A  A$main$101                         main
     0000803A  Smain$main$0                       main
     0000803A  Smain$main$1                       main
     0000803A  Smain$main$2                       main
     0000803A  _main                              main
     0000803C  A$main$103                         main
     0000803C  Smain$main$3                       main
     0000803E  A$main$104                         main
     00008041  A$main$105                         main
     00008044  A$main$109                         main
     00008044  Smain$main$4                       main
     00008044  Smain$main$5                       main
     00008046  A$main$111                         main
     00008046  Smain$main$6                       main
     00008048  A$main$112                         main
     0000804B  A$main$113                         main
     0000804E  A$main$117                         main
     0000804E  Smain$main$7                       main
     0000804E  Smain$main$8                       main
     00008050  A$main$119                         main
     00008050  Smain$main$9                       main
     00008052  A$main$120                         main
     00008055  A$main$121                         main
     00008058  A$main$125                         main
     00008058  Smain$main$10                      main
     00008058  Smain$main$11                      main
     0000805A  A$main$126                         main
     0000805D  A$main$127                         main
     00008060  A$main$134                         main
     00008060  Smain$main$12                      main
     00008060  Smain$main$13                      main
     00008060  Smain$main$14                      main
     00008063  A$main$136                         main
     00008063  Smain$main$15                      main
     00008065  A$main$141                         main
     00008065  Smain$main$16                      main
     00008065  Smain$main$17                      main
     00008065  XG$main$0$0                        main
     00008066  A$stm8s_gpio$65                    stm8s_gpio
     00008066  Smain$main$18                      main
     00008066  Sstm8s_gpio$GPIO_DeInit$0          stm8s_gpio
     00008066  Sstm8s_gpio$GPIO_DeInit$1          stm8s_gpio
     00008066  _GPIO_DeInit                       stm8s_gpio
     00008067  A$stm8s_gpio$68                    stm8s_gpio
     00008067  Sstm8s_gpio$GPIO_DeInit$2          stm8s_gpio
     00008069  A$stm8s_gpio$71                    stm8s_gpio
     00008069  Sstm8s_gpio$GPIO_DeInit$3          stm8s_gpio
     0000806A  A$stm8s_gpio$72                    stm8s_gpio
     0000806B  A$stm8s_gpio$73                    stm8s_gpio
     0000806C  A$stm8s_gpio$74                    stm8s_gpio
ASxxxx Linker V03.00/V05.40 + sdld,  page 9.
Hexadecimal  [32-Bits]

Area                                    Addr        Size        Decimal Bytes (Attributes)
--------------------------------        ----        ----        ------- ----- ------------
CODE                                0000803A    0000027B =         635. bytes (REL,CON)

      Value  Global                              Global Defined In Module
      -----  --------------------------------   ------------------------
     0000806D  A$stm8s_gpio$77                    stm8s_gpio
     0000806D  Sstm8s_gpio$GPIO_DeInit$4          stm8s_gpio
     0000806E  A$stm8s_gpio$78                    stm8s_gpio
     00008070  A$stm8s_gpio$81                    stm8s_gpio
     00008070  Sstm8s_gpio$GPIO_DeInit$5          stm8s_gpio
     00008071  A$stm8s_gpio$82                    stm8s_gpio
     00008073  A$stm8s_gpio$87                    stm8s_gpio
     00008073  Sstm8s_gpio$GPIO_DeInit$6          stm8s_gpio
     00008073  Sstm8s_gpio$GPIO_DeInit$7          stm8s_gpio
     00008073  XG$GPIO_DeInit$0$0                 stm8s_gpio
     00008074  A$stm8s_gpio$96                    stm8s_gpio
     00008074  Sstm8s_gpio$GPIO_DeInit$8          stm8s_gpio
     00008074  Sstm8s_gpio$GPIO_Init$10           stm8s_gpio
     00008074  Sstm8s_gpio$GPIO_Init$9            stm8s_gpio
     00008074  _GPIO_Init                         stm8s_gpio
     00008076  A$stm8s_gpio$98                    stm8s_gpio
     00008076  Sstm8s_gpio$GPIO_Init$11           stm8s_gpio
     00008077  A$stm8s_gpio$99                    stm8s_gpio
     00008079  A$stm8s_gpio$102                   stm8s_gpio
     00008079  Sstm8s_gpio$GPIO_Init$12           stm8s_gpio
     0000807A  A$stm8s_gpio$103                   stm8s_gpio
     0000807D  A$stm8s_gpio$104                   stm8s_gpio
     0000807F  A$stm8s_gpio$105                   stm8s_gpio
     00008080  A$stm8s_gpio$106                   stm8s_gpio
     00008081  A$stm8s_gpio$108                   stm8s_gpio
     00008081  Sstm8s_gpio$GPIO_Init$13           stm8s_gpio
     00008083  A$stm8s_gpio$109                   stm8s_gpio
     00008084  A$stm8s_gpio$110                   stm8s_gpio
     00008086  A$stm8s_gpio$111                   stm8s_gpio
     00008087  A$stm8s_gpio$113                   stm8s_gpio
     00008087  Sstm8s_gpio$GPIO_Init$14           stm8s_gpio
     00008089  A$stm8s_gpio$114                   stm8s_gpio
     0000808B  A$stm8s_gpio$115                   stm8s_gpio
     0000808C  A$stm8s_gpio$118                   stm8s_gpio
     0000808C  Sstm8s_gpio$GPIO_Init$15           stm8s_gpio
     0000808D  A$stm8s_gpio$119                   stm8s_gpio
     0000808E  A$stm8s_gpio$120                   stm8s_gpio
     0000808F  A$stm8s_gpio$121                   stm8s_gpio
     00008091  A$stm8s_gpio$124                   stm8s_gpio
     00008091  Sstm8s_gpio$GPIO_Init$16           stm8s_gpio
     00008093  A$stm8s_gpio$125                   stm8s_gpio
     00008095  A$stm8s_gpio$128                   stm8s_gpio
     00008095  Sstm8s_gpio$GPIO_Init$17           stm8s_gpio
     00008097  A$stm8s_gpio$132                   stm8s_gpio
     00008097  Sstm8s_gpio$GPIO_Init$18           stm8s_gpio
     00008097  Sstm8s_gpio$GPIO_Init$19           stm8s_gpio
     00008098  A$stm8s_gpio$134                   stm8s_gpio
     00008098  Sstm8s_gpio$GPIO_Init$20           stm8s_gpio
     0000809A  A$stm8s_gpio$135                   stm8s_gpio
     0000809C  A$stm8s_gpio$136                   stm8s_gpio
     0000809D  A$stm8s_gpio$138                   stm8s_gpio
ASxxxx Linker V03.00/V05.40 + sdld,  page 10.
Hexadecimal  [32-Bits]

Area                                    Addr        Size        Decimal Bytes (Attributes)
--------------------------------        ----        ----        ------- ----- ------------
CODE                                0000803A    0000027B =         635. bytes (REL,CON)

      Value  Global                              Global Defined In Module
      -----  --------------------------------   ------------------------
     0000809D  Sstm8s_gpio$GPIO_Init$21           stm8s_gpio
     0000809F  A$stm8s_gpio$142                   stm8s_gpio
     0000809F  Sstm8s_gpio$GPIO_Init$22           stm8s_gpio
     0000809F  Sstm8s_gpio$GPIO_Init$23           stm8s_gpio
     000080A1  A$stm8s_gpio$143                   stm8s_gpio
     000080A3  A$stm8s_gpio$145                   stm8s_gpio
     000080A3  Sstm8s_gpio$GPIO_Init$24           stm8s_gpio
     000080A5  A$stm8s_gpio$150                   stm8s_gpio
     000080A5  Sstm8s_gpio$GPIO_Init$25           stm8s_gpio
     000080A5  Sstm8s_gpio$GPIO_Init$26           stm8s_gpio
     000080A7  A$stm8s_gpio$151                   stm8s_gpio
     000080A9  A$stm8s_gpio$156                   stm8s_gpio
     000080A9  Sstm8s_gpio$GPIO_Init$27           stm8s_gpio
     000080A9  Sstm8s_gpio$GPIO_Init$28           stm8s_gpio
     000080AB  A$stm8s_gpio$157                   stm8s_gpio
     000080AC  A$stm8s_gpio$158                   stm8s_gpio
     000080AE  A$stm8s_gpio$159                   stm8s_gpio
     000080B0  A$stm8s_gpio$160                   stm8s_gpio
     000080B1  A$stm8s_gpio$162                   stm8s_gpio
     000080B1  Sstm8s_gpio$GPIO_Init$29           stm8s_gpio
     000080B3  A$stm8s_gpio$167                   stm8s_gpio
     000080B3  Sstm8s_gpio$GPIO_Init$30           stm8s_gpio
     000080B3  Sstm8s_gpio$GPIO_Init$31           stm8s_gpio
     000080B5  A$stm8s_gpio$168                   stm8s_gpio
     000080B6  A$stm8s_gpio$169                   stm8s_gpio
     000080B8  A$stm8s_gpio$170                   stm8s_gpio
     000080BA  A$stm8s_gpio$171                   stm8s_gpio
     000080BB  A$stm8s_gpio$176                   stm8s_gpio
     000080BB  Sstm8s_gpio$GPIO_Init$32           stm8s_gpio
     000080BB  Sstm8s_gpio$GPIO_Init$33           stm8s_gpio
     000080BC  A$stm8s_gpio$177                   stm8s_gpio
     000080BF  A$stm8s_gpio$178                   stm8s_gpio
     000080C0  A$stm8s_gpio$181                   stm8s_gpio
     000080C0  Sstm8s_gpio$GPIO_Init$34           stm8s_gpio
     000080C1  A$stm8s_gpio$183                   stm8s_gpio
     000080C1  Sstm8s_gpio$GPIO_Init$35           stm8s_gpio
     000080C3  A$stm8s_gpio$184                   stm8s_gpio
     000080C5  A$stm8s_gpio$185                   stm8s_gpio
     000080C6  A$stm8s_gpio$187                   stm8s_gpio
     000080C6  Sstm8s_gpio$GPIO_Init$36           stm8s_gpio
     000080C8  A$stm8s_gpio$191                   stm8s_gpio
     000080C8  Sstm8s_gpio$GPIO_Init$37           stm8s_gpio
     000080C8  Sstm8s_gpio$GPIO_Init$38           stm8s_gpio
     000080CA  A$stm8s_gpio$192                   stm8s_gpio
     000080CB  A$stm8s_gpio$194                   stm8s_gpio
     000080CB  Sstm8s_gpio$GPIO_Init$39           stm8s_gpio
     000080CD  A$stm8s_gpio$199                   stm8s_gpio
     000080CD  Sstm8s_gpio$GPIO_Init$40           stm8s_gpio
     000080CD  Sstm8s_gpio$GPIO_Init$41           stm8s_gpio
     000080CF  A$stm8s_gpio$200                   stm8s_gpio
     000080D0  A$stm8s_gpio$205                   stm8s_gpio
ASxxxx Linker V03.00/V05.40 + sdld,  page 11.
Hexadecimal  [32-Bits]

Area                                    Addr        Size        Decimal Bytes (Attributes)
--------------------------------        ----        ----        ------- ----- ------------
CODE                                0000803A    0000027B =         635. bytes (REL,CON)

      Value  Global                              Global Defined In Module
      -----  --------------------------------   ------------------------
     000080D0  Sstm8s_gpio$GPIO_Init$42           stm8s_gpio
     000080D0  Sstm8s_gpio$GPIO_Init$43           stm8s_gpio
     000080D2  A$stm8s_gpio$206                   stm8s_gpio
     000080D3  A$stm8s_gpio$209                   stm8s_gpio
     000080D3  Sstm8s_gpio$GPIO_Init$44           stm8s_gpio
     000080D4  A$stm8s_gpio$211                   stm8s_gpio
     000080D4  Sstm8s_gpio$GPIO_Init$45           stm8s_gpio
     000080D6  A$stm8s_gpio$212                   stm8s_gpio
     000080D8  A$stm8s_gpio$213                   stm8s_gpio
     000080D9  A$stm8s_gpio$215                   stm8s_gpio
     000080D9  Sstm8s_gpio$GPIO_Init$46           stm8s_gpio
     000080DB  A$stm8s_gpio$219                   stm8s_gpio
     000080DB  Sstm8s_gpio$GPIO_Init$47           stm8s_gpio
     000080DB  Sstm8s_gpio$GPIO_Init$48           stm8s_gpio
     000080DD  A$stm8s_gpio$220                   stm8s_gpio
     000080DF  A$stm8s_gpio$221                   stm8s_gpio
     000080E0  A$stm8s_gpio$223                   stm8s_gpio
     000080E0  Sstm8s_gpio$GPIO_Init$49           stm8s_gpio
     000080E2  A$stm8s_gpio$228                   stm8s_gpio
     000080E2  Sstm8s_gpio$GPIO_Init$50           stm8s_gpio
     000080E2  Sstm8s_gpio$GPIO_Init$51           stm8s_gpio
     000080E4  A$stm8s_gpio$229                   stm8s_gpio
     000080E6  A$stm8s_gpio$230                   stm8s_gpio
     000080E7  A$stm8s_gpio$235                   stm8s_gpio
     000080E7  Sstm8s_gpio$GPIO_Init$52           stm8s_gpio
     000080E7  Sstm8s_gpio$GPIO_Init$53           stm8s_gpio
     000080E9  A$stm8s_gpio$237                   stm8s_gpio
     000080E9  Sstm8s_gpio$GPIO_Init$54           stm8s_gpio
     000080EA  A$stm8s_gpio$239                   stm8s_gpio
     000080EA  Sstm8s_gpio$GPIO_Init$55           stm8s_gpio
     000080EB  A$stm8s_gpio$241                   stm8s_gpio
     000080EB  Sstm8s_gpio$GPIO_Init$56           stm8s_gpio
     000080EC  A$stm8s_gpio$252                   stm8s_gpio
     000080EC  Sstm8s_gpio$GPIO_Init$57           stm8s_gpio
     000080EC  Sstm8s_gpio$GPIO_Write$58          stm8s_gpio
     000080EC  Sstm8s_gpio$GPIO_Write$59          stm8s_gpio
     000080EC  Sstm8s_gpio$GPIO_Write$60          stm8s_gpio
     000080EC  _GPIO_Write                        stm8s_gpio
     000080ED  A$stm8s_gpio$257                   stm8s_gpio
     000080ED  Sstm8s_gpio$GPIO_Write$61          stm8s_gpio
     000080ED  Sstm8s_gpio$GPIO_Write$62          stm8s_gpio
     000080ED  XG$GPIO_Write$0$0                  stm8s_gpio
     000080EE  A$stm8s_gpio$266                   stm8s_gpio
     000080EE  Sstm8s_gpio$GPIO_Write$63          stm8s_gpio
     000080EE  Sstm8s_gpio$GPIO_WriteHigh$64      stm8s_gpio
     000080EE  Sstm8s_gpio$GPIO_WriteHigh$65      stm8s_gpio
     000080EE  _GPIO_WriteHigh                    stm8s_gpio
     000080EF  A$stm8s_gpio$268                   stm8s_gpio
     000080EF  Sstm8s_gpio$GPIO_WriteHigh$66      stm8s_gpio
     000080F1  A$stm8s_gpio$271                   stm8s_gpio
     000080F1  Sstm8s_gpio$GPIO_WriteHigh$67      stm8s_gpio
ASxxxx Linker V03.00/V05.40 + sdld,  page 12.
Hexadecimal  [32-Bits]

Area                                    Addr        Size        Decimal Bytes (Attributes)
--------------------------------        ----        ----        ------- ----- ------------
CODE                                0000803A    0000027B =         635. bytes (REL,CON)

      Value  Global                              Global Defined In Module
      -----  --------------------------------   ------------------------
     000080F2  A$stm8s_gpio$272                   stm8s_gpio
     000080F4  A$stm8s_gpio$273                   stm8s_gpio
     000080F5  A$stm8s_gpio$276                   stm8s_gpio
     000080F5  Sstm8s_gpio$GPIO_WriteHigh$68      stm8s_gpio
     000080F6  A$stm8s_gpio$280                   stm8s_gpio
     000080F6  Sstm8s_gpio$GPIO_WriteHigh$69      stm8s_gpio
     000080F6  Sstm8s_gpio$GPIO_WriteHigh$70      stm8s_gpio
     000080F6  XG$GPIO_WriteHigh$0$0              stm8s_gpio
     000080F7  A$stm8s_gpio$289                   stm8s_gpio
     000080F7  Sstm8s_gpio$GPIO_WriteHigh$71      stm8s_gpio
     000080F7  Sstm8s_gpio$GPIO_WriteLow$72       stm8s_gpio
     000080F7  Sstm8s_gpio$GPIO_WriteLow$73       stm8s_gpio
     000080F7  _GPIO_WriteLow                     stm8s_gpio
     000080F8  A$stm8s_gpio$293                   stm8s_gpio
     000080F8  Sstm8s_gpio$GPIO_WriteLow$74       stm8s_gpio
     000080F8  Sstm8s_gpio$GPIO_WriteLow$75       stm8s_gpio
     000080F9  A$stm8s_gpio$295                   stm8s_gpio
     000080F9  Sstm8s_gpio$GPIO_WriteLow$76       stm8s_gpio
     000080FA  A$stm8s_gpio$296                   stm8s_gpio
     000080FC  A$stm8s_gpio$297                   stm8s_gpio
     000080FD  A$stm8s_gpio$299                   stm8s_gpio
     000080FD  Sstm8s_gpio$GPIO_WriteLow$77       stm8s_gpio
     000080FE  A$stm8s_gpio$300                   stm8s_gpio
     00008100  A$stm8s_gpio$301                   stm8s_gpio
     00008101  A$stm8s_gpio$304                   stm8s_gpio
     00008101  Sstm8s_gpio$GPIO_WriteLow$78       stm8s_gpio
     00008102  A$stm8s_gpio$308                   stm8s_gpio
     00008102  Sstm8s_gpio$GPIO_WriteLow$79       stm8s_gpio
     00008102  Sstm8s_gpio$GPIO_WriteLow$80       stm8s_gpio
     00008102  XG$GPIO_WriteLow$0$0               stm8s_gpio
     00008103  A$stm8s_gpio$317                   stm8s_gpio
     00008103  Sstm8s_gpio$GPIO_WriteLow$81       stm8s_gpio
     00008103  Sstm8s_gpio$GPIO_WriteReverse$82   stm8s_gpio
     00008103  Sstm8s_gpio$GPIO_WriteReverse$83   stm8s_gpio
     00008103  _GPIO_WriteReverse                 stm8s_gpio
     00008104  A$stm8s_gpio$319                   stm8s_gpio
     00008104  Sstm8s_gpio$GPIO_WriteReverse$84   stm8s_gpio
     00008106  A$stm8s_gpio$322                   stm8s_gpio
     00008106  Sstm8s_gpio$GPIO_WriteReverse$85   stm8s_gpio
     00008107  A$stm8s_gpio$323                   stm8s_gpio
     00008109  A$stm8s_gpio$324                   stm8s_gpio
     0000810A  A$stm8s_gpio$327                   stm8s_gpio
     0000810A  Sstm8s_gpio$GPIO_WriteReverse$86   stm8s_gpio
     0000810B  A$stm8s_gpio$331                   stm8s_gpio
     0000810B  Sstm8s_gpio$GPIO_WriteReverse$87   stm8s_gpio
     0000810B  Sstm8s_gpio$GPIO_WriteReverse$88   stm8s_gpio
     0000810B  XG$GPIO_WriteReverse$0$0           stm8s_gpio
     0000810C  A$stm8s_gpio$342                   stm8s_gpio
     0000810C  Sstm8s_gpio$GPIO_ReadOutputData$   stm8s_gpio
     0000810C  Sstm8s_gpio$GPIO_ReadOutputData$   stm8s_gpio
     0000810C  Sstm8s_gpio$GPIO_ReadOutputData$   stm8s_gpio
ASxxxx Linker V03.00/V05.40 + sdld,  page 13.
Hexadecimal  [32-Bits]

Area                                    Addr        Size        Decimal Bytes (Attributes)
--------------------------------        ----        ----        ------- ----- ------------
CODE                                0000803A    0000027B =         635. bytes (REL,CON)

      Value  Global                              Global Defined In Module
      -----  --------------------------------   ------------------------
     0000810C  Sstm8s_gpio$GPIO_WriteReverse$89   stm8s_gpio
     0000810C  _GPIO_ReadOutputData               stm8s_gpio
     0000810D  A$stm8s_gpio$347                   stm8s_gpio
     0000810D  Sstm8s_gpio$GPIO_ReadOutputData$   stm8s_gpio
     0000810D  Sstm8s_gpio$GPIO_ReadOutputData$   stm8s_gpio
     0000810D  XG$GPIO_ReadOutputData$0$0         stm8s_gpio
     0000810E  A$stm8s_gpio$358                   stm8s_gpio
     0000810E  Sstm8s_gpio$GPIO_ReadInputData$9   stm8s_gpio
     0000810E  Sstm8s_gpio$GPIO_ReadInputData$9   stm8s_gpio
     0000810E  Sstm8s_gpio$GPIO_ReadInputData$9   stm8s_gpio
     0000810E  Sstm8s_gpio$GPIO_ReadOutputData$   stm8s_gpio
     0000810E  _GPIO_ReadInputData                stm8s_gpio
     00008110  A$stm8s_gpio$363                   stm8s_gpio
     00008110  Sstm8s_gpio$GPIO_ReadInputData$1   stm8s_gpio
     00008110  Sstm8s_gpio$GPIO_ReadInputData$9   stm8s_gpio
     00008110  XG$GPIO_ReadInputData$0$0          stm8s_gpio
     00008111  A$stm8s_gpio$372                   stm8s_gpio
     00008111  Sstm8s_gpio$GPIO_ReadInputData$1   stm8s_gpio
     00008111  Sstm8s_gpio$GPIO_ReadInputPin$10   stm8s_gpio
     00008111  Sstm8s_gpio$GPIO_ReadInputPin$10   stm8s_gpio
     00008111  _GPIO_ReadInputPin                 stm8s_gpio
     00008112  A$stm8s_gpio$374                   stm8s_gpio
     00008112  Sstm8s_gpio$GPIO_ReadInputPin$10   stm8s_gpio
     00008114  A$stm8s_gpio$377                   stm8s_gpio
     00008114  Sstm8s_gpio$GPIO_ReadInputPin$10   stm8s_gpio
     00008116  A$stm8s_gpio$378                   stm8s_gpio
     00008118  A$stm8s_gpio$379                   stm8s_gpio
     00008119  A$stm8s_gpio$380                   stm8s_gpio
     0000811A  A$stm8s_gpio$381                   stm8s_gpio
     0000811B  A$stm8s_gpio$384                   stm8s_gpio
     0000811B  Sstm8s_gpio$GPIO_ReadInputPin$10   stm8s_gpio
     0000811D  A$stm8s_gpio$388                   stm8s_gpio
     0000811D  Sstm8s_gpio$GPIO_ReadInputPin$10   stm8s_gpio
     0000811D  Sstm8s_gpio$GPIO_ReadInputPin$10   stm8s_gpio
     0000811D  XG$GPIO_ReadInputPin$0$0           stm8s_gpio
     0000811E  A$stm8s_gpio$397                   stm8s_gpio
     0000811E  Sstm8s_gpio$GPIO_ExternalPullUpC   stm8s_gpio
     0000811E  Sstm8s_gpio$GPIO_ExternalPullUpC   stm8s_gpio
     0000811E  Sstm8s_gpio$GPIO_ReadInputPin$10   stm8s_gpio
     0000811E  _GPIO_ExternalPullUpConfig         stm8s_gpio
     0000811F  A$stm8s_gpio$401                   stm8s_gpio
     0000811F  Sstm8s_gpio$GPIO_ExternalPullUpC   stm8s_gpio
     0000811F  Sstm8s_gpio$GPIO_ExternalPullUpC   stm8s_gpio
     00008122  A$stm8s_gpio$402                   stm8s_gpio
     00008123  A$stm8s_gpio$404                   stm8s_gpio
     00008123  Sstm8s_gpio$GPIO_ExternalPullUpC   stm8s_gpio
     00008124  A$stm8s_gpio$405                   stm8s_gpio
     00008126  A$stm8s_gpio$406                   stm8s_gpio
     00008127  A$stm8s_gpio$410                   stm8s_gpio
     00008127  Sstm8s_gpio$GPIO_ExternalPullUpC   stm8s_gpio
     00008127  Sstm8s_gpio$GPIO_ExternalPullUpC   stm8s_gpio
ASxxxx Linker V03.00/V05.40 + sdld,  page 14.
Hexadecimal  [32-Bits]

Area                                    Addr        Size        Decimal Bytes (Attributes)
--------------------------------        ----        ----        ------- ----- ------------
CODE                                0000803A    0000027B =         635. bytes (REL,CON)

      Value  Global                              Global Defined In Module
      -----  --------------------------------   ------------------------
     00008129  A$stm8s_gpio$411                   stm8s_gpio
     0000812B  A$stm8s_gpio$415                   stm8s_gpio
     0000812B  Sstm8s_gpio$GPIO_ExternalPullUpC   stm8s_gpio
     0000812B  Sstm8s_gpio$GPIO_ExternalPullUpC   stm8s_gpio
     0000812D  A$stm8s_gpio$416                   stm8s_gpio
     0000812E  A$stm8s_gpio$418                   stm8s_gpio
     0000812E  Sstm8s_gpio$GPIO_ExternalPullUpC   stm8s_gpio
     00008130  A$stm8s_gpio$423                   stm8s_gpio
     00008130  Sstm8s_gpio$GPIO_ExternalPullUpC   stm8s_gpio
     00008130  Sstm8s_gpio$GPIO_ExternalPullUpC   stm8s_gpio
     00008131  A$stm8s_gpio$424                   stm8s_gpio
     00008133  A$stm8s_gpio$425                   stm8s_gpio
     00008134  A$stm8s_gpio$430                   stm8s_gpio
     00008134  Sstm8s_gpio$GPIO_ExternalPullUpC   stm8s_gpio
     00008134  Sstm8s_gpio$GPIO_ExternalPullUpC   stm8s_gpio
     00008135  A$stm8s_gpio$432                   stm8s_gpio
     00008135  Sstm8s_gpio$GPIO_ExternalPullUpC   stm8s_gpio
     00008136  A$stm8s_gpio$434                   stm8s_gpio
     00008136  Sstm8s_gpio$GPIO_ExternalPullUpC   stm8s_gpio
     00008137  A$stm8s_gpio$436                   stm8s_gpio
     00008137  Sstm8s_gpio$GPIO_ExternalPullUpC   stm8s_gpio
     00008138  A$usb_tx$64                        usb_tx
     00008138  Sstm8s_gpio$GPIO_ExternalPullUpC   stm8s_gpio
     00008138  Susb_tx$usb_tx$0                   usb_tx
     00008138  Susb_tx$usb_tx$1                   usb_tx
     00008138  Susb_tx$usb_tx$2                   usb_tx
     00008138  _usb_tx                            usb_tx
     0000813B  A$usb_tx$65                        usb_tx
     0000813E  A$usb_tx$66                        usb_tx
     00008141  A$usb_tx$67                        usb_tx
     00008144  A$usb_tx$68                        usb_tx
     00008147  A$usb_tx$69                        usb_tx
     0000814A  A$usb_tx$70                        usb_tx
     0000814D  A$usb_tx$71                        usb_tx
     00008150  A$usb_tx$72                        usb_tx
     00008153  A$usb_tx$73                        usb_tx
     00008156  A$usb_tx$74                        usb_tx
     00008159  A$usb_tx$75                        usb_tx
     0000815C  A$usb_tx$76                        usb_tx
     0000815F  A$usb_tx$78                        usb_tx
     00008160  A$usb_tx$79                        usb_tx
     00008162  A$usb_tx$80                        usb_tx
     00008166  A$usb_tx$81                        usb_tx
     00008168  A$usb_tx$82                        usb_tx
     00008169  A$usb_tx$83                        usb_tx
     0000816A  A$usb_tx$84                        usb_tx
     0000816D  A$usb_tx$86                        usb_tx
     0000816E  A$usb_tx$87                        usb_tx
     0000816F  A$usb_tx$88                        usb_tx
     00008170  A$usb_tx$89                        usb_tx
     00008172  A$usb_tx$90                        usb_tx
ASxxxx Linker V03.00/V05.40 + sdld,  page 15.
Hexadecimal  [32-Bits]

Area                                    Addr        Size        Decimal Bytes (Attributes)
--------------------------------        ----        ----        ------- ----- ------------
CODE                                0000803A    0000027B =         635. bytes (REL,CON)

      Value  Global                              Global Defined In Module
      -----  --------------------------------   ------------------------
     00008174  A$usb_tx$91                        usb_tx
     00008175  A$usb_tx$92                        usb_tx
     00008176  A$usb_tx$94                        usb_tx
     0000817A  A$usb_tx$95                        usb_tx
     0000817B  A$usb_tx$96                        usb_tx
     0000817C  A$usb_tx$97                        usb_tx
     0000817D  A$usb_tx$98                        usb_tx
     00008180  A$usb_tx$100                       usb_tx
     00008181  A$usb_tx$101                       usb_tx
     00008183  A$usb_tx$102                       usb_tx
     00008187  A$usb_tx$103                       usb_tx
     00008189  A$usb_tx$104                       usb_tx
     0000818A  A$usb_tx$105                       usb_tx
     0000818B  A$usb_tx$106                       usb_tx
     0000818E  A$usb_tx$108                       usb_tx
     0000818F  A$usb_tx$109                       usb_tx
     00008190  A$usb_tx$110                       usb_tx
     00008191  A$usb_tx$111                       usb_tx
     00008193  A$usb_tx$112                       usb_tx
     00008195  A$usb_tx$113                       usb_tx
     00008196  A$usb_tx$114                       usb_tx
     00008197  A$usb_tx$116                       usb_tx
     0000819B  A$usb_tx$117                       usb_tx
     0000819C  A$usb_tx$118                       usb_tx
     0000819D  A$usb_tx$119                       usb_tx
     0000819E  A$usb_tx$120                       usb_tx
     000081A1  A$usb_tx$122                       usb_tx
     000081A2  A$usb_tx$123                       usb_tx
     000081A4  A$usb_tx$124                       usb_tx
     000081A8  A$usb_tx$125                       usb_tx
     000081AA  A$usb_tx$126                       usb_tx
     000081AB  A$usb_tx$127                       usb_tx
     000081AC  A$usb_tx$128                       usb_tx
     000081AF  A$usb_tx$130                       usb_tx
     000081B0  A$usb_tx$131                       usb_tx
     000081B1  A$usb_tx$132                       usb_tx
     000081B2  A$usb_tx$133                       usb_tx
     000081B4  A$usb_tx$134                       usb_tx
     000081B6  A$usb_tx$135                       usb_tx
     000081B7  A$usb_tx$136                       usb_tx
     000081B8  A$usb_tx$138                       usb_tx
     000081BC  A$usb_tx$139                       usb_tx
     000081BD  A$usb_tx$140                       usb_tx
     000081BE  A$usb_tx$141                       usb_tx
     000081BF  A$usb_tx$142                       usb_tx
     000081C2  A$usb_tx$144                       usb_tx
     000081C3  A$usb_tx$145                       usb_tx
     000081C5  A$usb_tx$146                       usb_tx
     000081C9  A$usb_tx$147                       usb_tx
     000081CB  A$usb_tx$148                       usb_tx
     000081CC  A$usb_tx$149                       usb_tx
ASxxxx Linker V03.00/V05.40 + sdld,  page 16.
Hexadecimal  [32-Bits]

Area                                    Addr        Size        Decimal Bytes (Attributes)
--------------------------------        ----        ----        ------- ----- ------------
CODE                                0000803A    0000027B =         635. bytes (REL,CON)

      Value  Global                              Global Defined In Module
      -----  --------------------------------   ------------------------
     000081CD  A$usb_tx$150                       usb_tx
     000081D0  A$usb_tx$152                       usb_tx
     000081D1  A$usb_tx$153                       usb_tx
     000081D2  A$usb_tx$154                       usb_tx
     000081D3  A$usb_tx$155                       usb_tx
     000081D5  A$usb_tx$156                       usb_tx
     000081D7  A$usb_tx$157                       usb_tx
     000081D8  A$usb_tx$158                       usb_tx
     000081D9  A$usb_tx$160                       usb_tx
     000081DD  A$usb_tx$161                       usb_tx
     000081DE  A$usb_tx$162                       usb_tx
     000081DF  A$usb_tx$163                       usb_tx
     000081E0  A$usb_tx$164                       usb_tx
     000081E3  A$usb_tx$166                       usb_tx
     000081E4  A$usb_tx$167                       usb_tx
     000081E6  A$usb_tx$168                       usb_tx
     000081EA  A$usb_tx$169                       usb_tx
     000081EC  A$usb_tx$170                       usb_tx
     000081ED  A$usb_tx$171                       usb_tx
     000081EE  A$usb_tx$172                       usb_tx
     000081F1  A$usb_tx$174                       usb_tx
     000081F2  A$usb_tx$175                       usb_tx
     000081F3  A$usb_tx$176                       usb_tx
     000081F4  A$usb_tx$177                       usb_tx
     000081F6  A$usb_tx$178                       usb_tx
     000081F8  A$usb_tx$179                       usb_tx
     000081F9  A$usb_tx$180                       usb_tx
     000081FA  A$usb_tx$182                       usb_tx
     000081FE  A$usb_tx$183                       usb_tx
     000081FF  A$usb_tx$184                       usb_tx
     00008200  A$usb_tx$185                       usb_tx
     00008201  A$usb_tx$186                       usb_tx
     00008204  A$usb_tx$188                       usb_tx
     00008205  A$usb_tx$189                       usb_tx
     00008207  A$usb_tx$190                       usb_tx
     0000820B  A$usb_tx$191                       usb_tx
     0000820D  A$usb_tx$192                       usb_tx
     0000820E  A$usb_tx$193                       usb_tx
     00008211  A$usb_tx$195                       usb_tx
     00008212  A$usb_tx$196                       usb_tx
     00008213  A$usb_tx$197                       usb_tx
     00008215  A$usb_tx$198                       usb_tx
     00008217  A$usb_tx$199                       usb_tx
     00008218  A$usb_tx$200                       usb_tx
     00008219  A$usb_tx$201                       usb_tx
     0000821A  A$usb_tx$203                       usb_tx
     0000821E  A$usb_tx$204                       usb_tx
     0000821F  A$usb_tx$205                       usb_tx
     00008220  A$usb_tx$206                       usb_tx
     00008223  A$usb_tx$208                       usb_tx
     00008225  A$usb_tx$209                       usb_tx
ASxxxx Linker V03.00/V05.40 + sdld,  page 17.
Hexadecimal  [32-Bits]

Area                                    Addr        Size        Decimal Bytes (Attributes)
--------------------------------        ----        ----        ------- ----- ------------
CODE                                0000803A    0000027B =         635. bytes (REL,CON)

      Value  Global                              Global Defined In Module
      -----  --------------------------------   ------------------------
     00008227  A$usb_tx$210                       usb_tx
     00008228  A$usb_tx$211                       usb_tx
     0000822C  A$usb_tx$212                       usb_tx
     0000822F  A$usb_tx$214                       usb_tx
     00008230  A$usb_tx$215                       usb_tx
     00008231  A$usb_tx$216                       usb_tx
     00008233  A$usb_tx$217                       usb_tx
     00008235  A$usb_tx$218                       usb_tx
     00008236  A$usb_tx$219                       usb_tx
     00008237  A$usb_tx$220                       usb_tx
     00008238  A$usb_tx$221                       usb_tx
     00008239  A$usb_tx$222                       usb_tx
     0000823A  A$usb_tx$223                       usb_tx
     0000823E  A$usb_tx$224                       usb_tx
     00008241  A$usb_tx$226                       usb_tx
     00008242  A$usb_tx$227                       usb_tx
     00008243  A$usb_tx$228                       usb_tx
     00008245  A$usb_tx$229                       usb_tx
     00008246  A$usb_tx$230                       usb_tx
     0000824A  A$usb_tx$231                       usb_tx
     0000824C  A$usb_tx$232                       usb_tx
     00008250  A$usb_tx$233                       usb_tx
     00008252  A$usb_tx$234                       usb_tx
     00008255  A$usb_tx$236                       usb_tx
     00008256  A$usb_tx$237                       usb_tx
     00008258  A$usb_tx$239                       usb_tx
     0000825C  A$usb_tx$240                       usb_tx
     0000825E  A$usb_tx$241                       usb_tx
     00008261  A$usb_tx$244                       usb_tx
     00008263  A$usb_tx$245                       usb_tx
     00008264  A$usb_tx$246                       usb_tx
     00008265  A$usb_tx$247                       usb_tx
     00008266  A$usb_tx$248                       usb_tx
     00008267  A$usb_tx$249                       usb_tx
     0000826B  A$usb_tx$250                       usb_tx
     0000826F  A$usb_tx$251                       usb_tx
     00008271  A$usb_tx$252                       usb_tx
     00008272  A$usb_tx$253                       usb_tx
     00008275  A$usb_tx$257                       usb_tx
     00008276  A$usb_tx$259                       usb_tx
     00008277  A$usb_tx$260                       usb_tx
     00008278  A$usb_tx$261                       usb_tx
     00008279  A$usb_tx$262                       usb_tx
     0000827D  A$usb_tx$263                       usb_tx
     00008281  A$usb_tx$265                       usb_tx
     00008283  A$usb_tx$266                       usb_tx
     00008285  A$usb_tx$267                       usb_tx
     00008286  A$usb_tx$268                       usb_tx
     00008287  A$usb_tx$269                       usb_tx
     0000828B  A$usb_tx$270                       usb_tx
     0000828E  A$usb_tx$271                       usb_tx
ASxxxx Linker V03.00/V05.40 + sdld,  page 18.
Hexadecimal  [32-Bits]

Area                                    Addr        Size        Decimal Bytes (Attributes)
--------------------------------        ----        ----        ------- ----- ------------
CODE                                0000803A    0000027B =         635. bytes (REL,CON)

      Value  Global                              Global Defined In Module
      -----  --------------------------------   ------------------------
     00008291  A$usb_tx$272                       usb_tx
     00008294  A$usb_tx$273                       usb_tx
     00008297  A$usb_tx$274                       usb_tx
     0000829A  A$usb_tx$275                       usb_tx
     0000829D  A$usb_tx$276                       usb_tx
     000082A0  A$usb_tx$277                       usb_tx
     000082A3  A$usb_tx$278                       usb_tx
     000082A6  A$usb_tx$279                       usb_tx
     000082A9  A$usb_tx$280                       usb_tx
     000082AC  A$usb_tx$281                       usb_tx
     000082AF  A$usb_tx$282                       usb_tx
     000082B2  A$usb_tx$287                       usb_tx
     000082B2  Susb_tx$usb_tx$3                   usb_tx
     000082B2  Susb_tx$usb_tx$4                   usb_tx
     000082B2  XG$usb_tx$0$0                      usb_tx
     000082B3  Susb_tx$usb_tx$5                   usb_tx
     000082B3  ___sdcc_external_startup           _startup

ASxxxx Linker V03.00/V05.40 + sdld,  page 19.
Hexadecimal  [32-Bits]

Area                                    Addr        Size        Decimal Bytes (Attributes)
--------------------------------        ----        ----        ------- ----- ------------
.debug_line                         00000000    00000478 =        1144. bytes (REL,CON)

      Value  Global                              Global Defined In Module
      -----  --------------------------------   ------------------------
ASxxxx Linker V03.00/V05.40 + sdld,  page 20.
Hexadecimal  [32-Bits]

Area                                    Addr        Size        Decimal Bytes (Attributes)
--------------------------------        ----        ----        ------- ----- ------------
.debug_loc                          00000000    00000224 =         548. bytes (REL,CON)

      Value  Global                              Global Defined In Module
      -----  --------------------------------   ------------------------
ASxxxx Linker V03.00/V05.40 + sdld,  page 21.
Hexadecimal  [32-Bits]

Area                                    Addr        Size        Decimal Bytes (Attributes)
--------------------------------        ----        ----        ------- ----- ------------
.debug_abbrev                       00000000    00000105 =         261. bytes (REL,CON)

      Value  Global                              Global Defined In Module
      -----  --------------------------------   ------------------------
ASxxxx Linker V03.00/V05.40 + sdld,  page 22.
Hexadecimal  [32-Bits]

Area                                    Addr        Size        Decimal Bytes (Attributes)
--------------------------------        ----        ----        ------- ----- ------------
.debug_info                         00000000    000004E0 =        1248. bytes (REL,CON)

      Value  Global                              Global Defined In Module
      -----  --------------------------------   ------------------------
ASxxxx Linker V03.00/V05.40 + sdld,  page 23.
Hexadecimal  [32-Bits]

Area                                    Addr        Size        Decimal Bytes (Attributes)
--------------------------------        ----        ----        ------- ----- ------------
.debug_pubnames                     00000000    00000115 =         277. bytes (REL,CON)

      Value  Global                              Global Defined In Module
      -----  --------------------------------   ------------------------
ASxxxx Linker V03.00/V05.40 + sdld,  page 24.
Hexadecimal  [32-Bits]

Area                                    Addr        Size        Decimal Bytes (Attributes)
--------------------------------        ----        ----        ------- ----- ------------
.debug_frame                        00000000    00000310 =         784. bytes (REL,CON)

      Value  Global                              Global Defined In Module
      -----  --------------------------------   ------------------------
ASxxxx Linker V03.00/V05.40 + sdld,  page 25.

Files Linked                              [ module(s) ]

main.rel                                  [ main ]
stm8s_gpio.rel                            [ stm8s_gpio ]
usb_tx.rel                                [ usb_tx ]


Libraries Linked                          [ object file ]

D:\Software\Work\SDCC\bin\..\lib\stm8/stm8.lib
                                          [ _startup.rel ]

ASxxxx Linker V03.00/V05.40 + sdld,  page 26.

User Base Address Definitions

HOME = 0x8000
DATA = 0x0001

