                                      1 ;--------------------------------------------------------
                                      2 ; File Created by SDCC : free open source ISO C Compiler 
                                      3 ; Version 4.3.0 #14184 (MINGW64)
                                      4 ;--------------------------------------------------------
                                      5 	.module stm8s_uart1
                                      6 	.optsdcc -mstm8
                                      7 	
                                      8 ;--------------------------------------------------------
                                      9 ; Public variables in this module
                                     10 ;--------------------------------------------------------
                                     11 	.globl _assert_failed
                                     12 	.globl _CLK_GetClockFreq
                                     13 	.globl _UART1_DeInit
                                     14 	.globl _UART1_Init
                                     15 	.globl _UART1_Cmd
                                     16 	.globl _UART1_ITConfig
                                     17 	.globl _UART1_HalfDuplexCmd
                                     18 	.globl _UART1_IrDAConfig
                                     19 	.globl _UART1_IrDACmd
                                     20 	.globl _UART1_LINBreakDetectionConfig
                                     21 	.globl _UART1_LINCmd
                                     22 	.globl _UART1_SmartCardCmd
                                     23 	.globl _UART1_SmartCardNACKCmd
                                     24 	.globl _UART1_WakeUpConfig
                                     25 	.globl _UART1_ReceiverWakeUpCmd
                                     26 	.globl _UART1_ReceiveData8
                                     27 	.globl _UART1_ReceiveData9
                                     28 	.globl _UART1_SendData8
                                     29 	.globl _UART1_SendData9
                                     30 	.globl _UART1_SendBreak
                                     31 	.globl _UART1_SetAddress
                                     32 	.globl _UART1_SetGuardTime
                                     33 	.globl _UART1_SetPrescaler
                                     34 	.globl _UART1_GetFlagStatus
                                     35 	.globl _UART1_ClearFlag
                                     36 	.globl _UART1_GetITStatus
                                     37 	.globl _UART1_ClearITPendingBit
                                     38 ;--------------------------------------------------------
                                     39 ; ram data
                                     40 ;--------------------------------------------------------
                                     41 	.area DATA
                                     42 ;--------------------------------------------------------
                                     43 ; ram data
                                     44 ;--------------------------------------------------------
                                     45 	.area INITIALIZED
                                     46 ;--------------------------------------------------------
                                     47 ; absolute external ram data
                                     48 ;--------------------------------------------------------
                                     49 	.area DABS (ABS)
                                     50 
                                     51 ; default segment ordering for linker
                                     52 	.area HOME
                                     53 	.area GSINIT
                                     54 	.area GSFINAL
                                     55 	.area CONST
                                     56 	.area INITIALIZER
                                     57 	.area CODE
                                     58 
                                     59 ;--------------------------------------------------------
                                     60 ; global & static initialisations
                                     61 ;--------------------------------------------------------
                                     62 	.area HOME
                                     63 	.area GSINIT
                                     64 	.area GSFINAL
                                     65 	.area GSINIT
                                     66 ;--------------------------------------------------------
                                     67 ; Home
                                     68 ;--------------------------------------------------------
                                     69 	.area HOME
                                     70 	.area HOME
                                     71 ;--------------------------------------------------------
                                     72 ; code
                                     73 ;--------------------------------------------------------
                                     74 	.area CODE
                           000000    75 	Sstm8s_uart1$UART1_DeInit$0 ==.
                                     76 ;	./STM8S_StdPeriph_Lib/Libraries/STM8S_StdPeriph_Driver/src/stm8s_uart1.c: 53: void UART1_DeInit(void)
                                     77 ;	-----------------------------------------
                                     78 ;	 function UART1_DeInit
                                     79 ;	-----------------------------------------
      000000                         80 _UART1_DeInit:
                           000000    81 	Sstm8s_uart1$UART1_DeInit$1 ==.
                           000000    82 	Sstm8s_uart1$UART1_DeInit$2 ==.
                                     83 ;	./STM8S_StdPeriph_Lib/Libraries/STM8S_StdPeriph_Driver/src/stm8s_uart1.c: 57: (void)UART1->SR;
      000000 C6 52 30         [ 1]   84 	ld	a, 0x5230
                           000003    85 	Sstm8s_uart1$UART1_DeInit$3 ==.
                                     86 ;	./STM8S_StdPeriph_Lib/Libraries/STM8S_StdPeriph_Driver/src/stm8s_uart1.c: 58: (void)UART1->DR;
      000003 C6 52 31         [ 1]   87 	ld	a, 0x5231
                           000006    88 	Sstm8s_uart1$UART1_DeInit$4 ==.
                                     89 ;	./STM8S_StdPeriph_Lib/Libraries/STM8S_StdPeriph_Driver/src/stm8s_uart1.c: 60: UART1->BRR2 = UART1_BRR2_RESET_VALUE;  /* Set UART1_BRR2 to reset value 0x00 */
      000006 35 00 52 33      [ 1]   90 	mov	0x5233+0, #0x00
                           00000A    91 	Sstm8s_uart1$UART1_DeInit$5 ==.
                                     92 ;	./STM8S_StdPeriph_Lib/Libraries/STM8S_StdPeriph_Driver/src/stm8s_uart1.c: 61: UART1->BRR1 = UART1_BRR1_RESET_VALUE;  /* Set UART1_BRR1 to reset value 0x00 */
      00000A 35 00 52 32      [ 1]   93 	mov	0x5232+0, #0x00
                           00000E    94 	Sstm8s_uart1$UART1_DeInit$6 ==.
                                     95 ;	./STM8S_StdPeriph_Lib/Libraries/STM8S_StdPeriph_Driver/src/stm8s_uart1.c: 63: UART1->CR1 = UART1_CR1_RESET_VALUE;  /* Set UART1_CR1 to reset value 0x00 */
      00000E 35 00 52 34      [ 1]   96 	mov	0x5234+0, #0x00
                           000012    97 	Sstm8s_uart1$UART1_DeInit$7 ==.
                                     98 ;	./STM8S_StdPeriph_Lib/Libraries/STM8S_StdPeriph_Driver/src/stm8s_uart1.c: 64: UART1->CR2 = UART1_CR2_RESET_VALUE;  /* Set UART1_CR2 to reset value 0x00 */
      000012 35 00 52 35      [ 1]   99 	mov	0x5235+0, #0x00
                           000016   100 	Sstm8s_uart1$UART1_DeInit$8 ==.
                                    101 ;	./STM8S_StdPeriph_Lib/Libraries/STM8S_StdPeriph_Driver/src/stm8s_uart1.c: 65: UART1->CR3 = UART1_CR3_RESET_VALUE;  /* Set UART1_CR3 to reset value 0x00 */
      000016 35 00 52 36      [ 1]  102 	mov	0x5236+0, #0x00
                           00001A   103 	Sstm8s_uart1$UART1_DeInit$9 ==.
                                    104 ;	./STM8S_StdPeriph_Lib/Libraries/STM8S_StdPeriph_Driver/src/stm8s_uart1.c: 66: UART1->CR4 = UART1_CR4_RESET_VALUE;  /* Set UART1_CR4 to reset value 0x00 */
      00001A 35 00 52 37      [ 1]  105 	mov	0x5237+0, #0x00
                           00001E   106 	Sstm8s_uart1$UART1_DeInit$10 ==.
                                    107 ;	./STM8S_StdPeriph_Lib/Libraries/STM8S_StdPeriph_Driver/src/stm8s_uart1.c: 67: UART1->CR5 = UART1_CR5_RESET_VALUE;  /* Set UART1_CR5 to reset value 0x00 */
      00001E 35 00 52 38      [ 1]  108 	mov	0x5238+0, #0x00
                           000022   109 	Sstm8s_uart1$UART1_DeInit$11 ==.
                                    110 ;	./STM8S_StdPeriph_Lib/Libraries/STM8S_StdPeriph_Driver/src/stm8s_uart1.c: 69: UART1->GTR = UART1_GTR_RESET_VALUE;
      000022 35 00 52 39      [ 1]  111 	mov	0x5239+0, #0x00
                           000026   112 	Sstm8s_uart1$UART1_DeInit$12 ==.
                                    113 ;	./STM8S_StdPeriph_Lib/Libraries/STM8S_StdPeriph_Driver/src/stm8s_uart1.c: 70: UART1->PSCR = UART1_PSCR_RESET_VALUE;
      000026 35 00 52 3A      [ 1]  114 	mov	0x523a+0, #0x00
                           00002A   115 	Sstm8s_uart1$UART1_DeInit$13 ==.
                                    116 ;	./STM8S_StdPeriph_Lib/Libraries/STM8S_StdPeriph_Driver/src/stm8s_uart1.c: 71: }
                           00002A   117 	Sstm8s_uart1$UART1_DeInit$14 ==.
                           00002A   118 	XG$UART1_DeInit$0$0 ==.
      00002A 81               [ 4]  119 	ret
                           00002B   120 	Sstm8s_uart1$UART1_DeInit$15 ==.
                           00002B   121 	Sstm8s_uart1$UART1_Init$16 ==.
                                    122 ;	./STM8S_StdPeriph_Lib/Libraries/STM8S_StdPeriph_Driver/src/stm8s_uart1.c: 90: void UART1_Init(uint32_t BaudRate, UART1_WordLength_TypeDef WordLength, 
                                    123 ;	-----------------------------------------
                                    124 ;	 function UART1_Init
                                    125 ;	-----------------------------------------
      00002B                        126 _UART1_Init:
                           00002B   127 	Sstm8s_uart1$UART1_Init$17 ==.
      00002B 52 0D            [ 2]  128 	sub	sp, #13
                           00002D   129 	Sstm8s_uart1$UART1_Init$18 ==.
                           00002D   130 	Sstm8s_uart1$UART1_Init$19 ==.
                                    131 ;	./STM8S_StdPeriph_Lib/Libraries/STM8S_StdPeriph_Driver/src/stm8s_uart1.c: 97: assert_param(IS_UART1_BAUDRATE_OK(BaudRate));
      00002D AE 89 68         [ 2]  132 	ldw	x, #0x8968
      000030 13 12            [ 2]  133 	cpw	x, (0x12, sp)
      000032 A6 09            [ 1]  134 	ld	a, #0x09
      000034 12 11            [ 1]  135 	sbc	a, (0x11, sp)
      000036 4F               [ 1]  136 	clr	a
      000037 12 10            [ 1]  137 	sbc	a, (0x10, sp)
      000039 24 0C            [ 1]  138 	jrnc	00113$
      00003B 4B 61            [ 1]  139 	push	#0x61
                           00003D   140 	Sstm8s_uart1$UART1_Init$20 ==.
      00003D 5F               [ 1]  141 	clrw	x
      00003E 89               [ 2]  142 	pushw	x
                           00003F   143 	Sstm8s_uart1$UART1_Init$21 ==.
      00003F 4B 00            [ 1]  144 	push	#0x00
                           000041   145 	Sstm8s_uart1$UART1_Init$22 ==.
      000041 AEr00r00         [ 2]  146 	ldw	x, #(___str_0+0)
      000044 CDr00r00         [ 4]  147 	call	_assert_failed
                           000047   148 	Sstm8s_uart1$UART1_Init$23 ==.
      000047                        149 00113$:
                           000047   150 	Sstm8s_uart1$UART1_Init$24 ==.
                                    151 ;	./STM8S_StdPeriph_Lib/Libraries/STM8S_StdPeriph_Driver/src/stm8s_uart1.c: 98: assert_param(IS_UART1_WORDLENGTH_OK(WordLength));
      000047 0D 14            [ 1]  152 	tnz	(0x14, sp)
      000049 27 12            [ 1]  153 	jreq	00115$
      00004B 7B 14            [ 1]  154 	ld	a, (0x14, sp)
      00004D A1 10            [ 1]  155 	cp	a, #0x10
      00004F 27 0C            [ 1]  156 	jreq	00115$
                           000051   157 	Sstm8s_uart1$UART1_Init$25 ==.
      000051 4B 62            [ 1]  158 	push	#0x62
                           000053   159 	Sstm8s_uart1$UART1_Init$26 ==.
      000053 5F               [ 1]  160 	clrw	x
      000054 89               [ 2]  161 	pushw	x
                           000055   162 	Sstm8s_uart1$UART1_Init$27 ==.
      000055 4B 00            [ 1]  163 	push	#0x00
                           000057   164 	Sstm8s_uart1$UART1_Init$28 ==.
      000057 AEr00r00         [ 2]  165 	ldw	x, #(___str_0+0)
      00005A CDr00r00         [ 4]  166 	call	_assert_failed
                           00005D   167 	Sstm8s_uart1$UART1_Init$29 ==.
      00005D                        168 00115$:
                           00005D   169 	Sstm8s_uart1$UART1_Init$30 ==.
                                    170 ;	./STM8S_StdPeriph_Lib/Libraries/STM8S_StdPeriph_Driver/src/stm8s_uart1.c: 99: assert_param(IS_UART1_STOPBITS_OK(StopBits));
      00005D 0D 15            [ 1]  171 	tnz	(0x15, sp)
      00005F 27 1E            [ 1]  172 	jreq	00120$
      000061 7B 15            [ 1]  173 	ld	a, (0x15, sp)
      000063 A1 10            [ 1]  174 	cp	a, #0x10
      000065 27 18            [ 1]  175 	jreq	00120$
                           000067   176 	Sstm8s_uart1$UART1_Init$31 ==.
      000067 7B 15            [ 1]  177 	ld	a, (0x15, sp)
      000069 A1 20            [ 1]  178 	cp	a, #0x20
      00006B 27 12            [ 1]  179 	jreq	00120$
                           00006D   180 	Sstm8s_uart1$UART1_Init$32 ==.
      00006D 7B 15            [ 1]  181 	ld	a, (0x15, sp)
      00006F A1 30            [ 1]  182 	cp	a, #0x30
      000071 27 0C            [ 1]  183 	jreq	00120$
                           000073   184 	Sstm8s_uart1$UART1_Init$33 ==.
      000073 4B 63            [ 1]  185 	push	#0x63
                           000075   186 	Sstm8s_uart1$UART1_Init$34 ==.
      000075 5F               [ 1]  187 	clrw	x
      000076 89               [ 2]  188 	pushw	x
                           000077   189 	Sstm8s_uart1$UART1_Init$35 ==.
      000077 4B 00            [ 1]  190 	push	#0x00
                           000079   191 	Sstm8s_uart1$UART1_Init$36 ==.
      000079 AEr00r00         [ 2]  192 	ldw	x, #(___str_0+0)
      00007C CDr00r00         [ 4]  193 	call	_assert_failed
                           00007F   194 	Sstm8s_uart1$UART1_Init$37 ==.
      00007F                        195 00120$:
                           00007F   196 	Sstm8s_uart1$UART1_Init$38 ==.
                                    197 ;	./STM8S_StdPeriph_Lib/Libraries/STM8S_StdPeriph_Driver/src/stm8s_uart1.c: 100: assert_param(IS_UART1_PARITY_OK(Parity));
      00007F 0D 16            [ 1]  198 	tnz	(0x16, sp)
      000081 27 18            [ 1]  199 	jreq	00131$
      000083 7B 16            [ 1]  200 	ld	a, (0x16, sp)
      000085 A1 04            [ 1]  201 	cp	a, #0x04
      000087 27 12            [ 1]  202 	jreq	00131$
                           000089   203 	Sstm8s_uart1$UART1_Init$39 ==.
      000089 7B 16            [ 1]  204 	ld	a, (0x16, sp)
      00008B A1 06            [ 1]  205 	cp	a, #0x06
      00008D 27 0C            [ 1]  206 	jreq	00131$
                           00008F   207 	Sstm8s_uart1$UART1_Init$40 ==.
      00008F 4B 64            [ 1]  208 	push	#0x64
                           000091   209 	Sstm8s_uart1$UART1_Init$41 ==.
      000091 5F               [ 1]  210 	clrw	x
      000092 89               [ 2]  211 	pushw	x
                           000093   212 	Sstm8s_uart1$UART1_Init$42 ==.
      000093 4B 00            [ 1]  213 	push	#0x00
                           000095   214 	Sstm8s_uart1$UART1_Init$43 ==.
      000095 AEr00r00         [ 2]  215 	ldw	x, #(___str_0+0)
      000098 CDr00r00         [ 4]  216 	call	_assert_failed
                           00009B   217 	Sstm8s_uart1$UART1_Init$44 ==.
      00009B                        218 00131$:
                           00009B   219 	Sstm8s_uart1$UART1_Init$45 ==.
                                    220 ;	./STM8S_StdPeriph_Lib/Libraries/STM8S_StdPeriph_Driver/src/stm8s_uart1.c: 101: assert_param(IS_UART1_MODE_OK((uint8_t)Mode));
      00009B 7B 18            [ 1]  221 	ld	a, (0x18, sp)
      00009D A1 08            [ 1]  222 	cp	a, #0x08
      00009F 27 3F            [ 1]  223 	jreq	00139$
                           0000A1   224 	Sstm8s_uart1$UART1_Init$46 ==.
      0000A1 7B 18            [ 1]  225 	ld	a, (0x18, sp)
      0000A3 A1 40            [ 1]  226 	cp	a, #0x40
      0000A5 27 39            [ 1]  227 	jreq	00139$
                           0000A7   228 	Sstm8s_uart1$UART1_Init$47 ==.
      0000A7 7B 18            [ 1]  229 	ld	a, (0x18, sp)
      0000A9 A1 04            [ 1]  230 	cp	a, #0x04
      0000AB 27 33            [ 1]  231 	jreq	00139$
                           0000AD   232 	Sstm8s_uart1$UART1_Init$48 ==.
      0000AD 7B 18            [ 1]  233 	ld	a, (0x18, sp)
      0000AF A1 80            [ 1]  234 	cp	a, #0x80
      0000B1 27 2D            [ 1]  235 	jreq	00139$
                           0000B3   236 	Sstm8s_uart1$UART1_Init$49 ==.
      0000B3 7B 18            [ 1]  237 	ld	a, (0x18, sp)
      0000B5 A0 0C            [ 1]  238 	sub	a, #0x0c
      0000B7 26 02            [ 1]  239 	jrne	00339$
      0000B9 4C               [ 1]  240 	inc	a
      0000BA 21                     241 	.byte 0x21
      0000BB                        242 00339$:
      0000BB 4F               [ 1]  243 	clr	a
      0000BC                        244 00340$:
                           0000BC   245 	Sstm8s_uart1$UART1_Init$50 ==.
      0000BC 4D               [ 1]  246 	tnz	a
      0000BD 26 21            [ 1]  247 	jrne	00139$
      0000BF 4D               [ 1]  248 	tnz	a
      0000C0 26 1E            [ 1]  249 	jrne	00139$
      0000C2 7B 18            [ 1]  250 	ld	a, (0x18, sp)
      0000C4 A1 44            [ 1]  251 	cp	a, #0x44
      0000C6 27 18            [ 1]  252 	jreq	00139$
                           0000C8   253 	Sstm8s_uart1$UART1_Init$51 ==.
      0000C8 7B 18            [ 1]  254 	ld	a, (0x18, sp)
      0000CA A1 C0            [ 1]  255 	cp	a, #0xc0
      0000CC 27 12            [ 1]  256 	jreq	00139$
                           0000CE   257 	Sstm8s_uart1$UART1_Init$52 ==.
      0000CE 7B 18            [ 1]  258 	ld	a, (0x18, sp)
      0000D0 A1 88            [ 1]  259 	cp	a, #0x88
      0000D2 27 0C            [ 1]  260 	jreq	00139$
                           0000D4   261 	Sstm8s_uart1$UART1_Init$53 ==.
      0000D4 4B 65            [ 1]  262 	push	#0x65
                           0000D6   263 	Sstm8s_uart1$UART1_Init$54 ==.
      0000D6 5F               [ 1]  264 	clrw	x
      0000D7 89               [ 2]  265 	pushw	x
                           0000D8   266 	Sstm8s_uart1$UART1_Init$55 ==.
      0000D8 4B 00            [ 1]  267 	push	#0x00
                           0000DA   268 	Sstm8s_uart1$UART1_Init$56 ==.
      0000DA AEr00r00         [ 2]  269 	ldw	x, #(___str_0+0)
      0000DD CDr00r00         [ 4]  270 	call	_assert_failed
                           0000E0   271 	Sstm8s_uart1$UART1_Init$57 ==.
      0000E0                        272 00139$:
                           0000E0   273 	Sstm8s_uart1$UART1_Init$58 ==.
                                    274 ;	./STM8S_StdPeriph_Lib/Libraries/STM8S_StdPeriph_Driver/src/stm8s_uart1.c: 102: assert_param(IS_UART1_SYNCMODE_OK((uint8_t)SyncMode));
      0000E0 7B 17            [ 1]  275 	ld	a, (0x17, sp)
      0000E2 43               [ 1]  276 	cpl	a
      0000E3 A5 88            [ 1]  277 	bcp	a, #0x88
      0000E5 27 15            [ 1]  278 	jreq	00167$
                           0000E7   279 	Sstm8s_uart1$UART1_Init$59 ==.
      0000E7 7B 17            [ 1]  280 	ld	a, (0x17, sp)
      0000E9 43               [ 1]  281 	cpl	a
      0000EA A5 44            [ 1]  282 	bcp	a, #0x44
      0000EC 27 0E            [ 1]  283 	jreq	00167$
                           0000EE   284 	Sstm8s_uart1$UART1_Init$60 ==.
      0000EE 7B 17            [ 1]  285 	ld	a, (0x17, sp)
      0000F0 43               [ 1]  286 	cpl	a
      0000F1 A5 22            [ 1]  287 	bcp	a, #0x22
      0000F3 27 07            [ 1]  288 	jreq	00167$
                           0000F5   289 	Sstm8s_uart1$UART1_Init$61 ==.
      0000F5 7B 17            [ 1]  290 	ld	a, (0x17, sp)
      0000F7 43               [ 1]  291 	cpl	a
      0000F8 A5 11            [ 1]  292 	bcp	a, #0x11
      0000FA 26 0C            [ 1]  293 	jrne	00165$
                           0000FC   294 	Sstm8s_uart1$UART1_Init$62 ==.
      0000FC                        295 00167$:
      0000FC 4B 66            [ 1]  296 	push	#0x66
                           0000FE   297 	Sstm8s_uart1$UART1_Init$63 ==.
      0000FE 5F               [ 1]  298 	clrw	x
      0000FF 89               [ 2]  299 	pushw	x
                           000100   300 	Sstm8s_uart1$UART1_Init$64 ==.
      000100 4B 00            [ 1]  301 	push	#0x00
                           000102   302 	Sstm8s_uart1$UART1_Init$65 ==.
      000102 AEr00r00         [ 2]  303 	ldw	x, #(___str_0+0)
      000105 CDr00r00         [ 4]  304 	call	_assert_failed
                           000108   305 	Sstm8s_uart1$UART1_Init$66 ==.
      000108                        306 00165$:
                           000108   307 	Sstm8s_uart1$UART1_Init$67 ==.
                                    308 ;	./STM8S_StdPeriph_Lib/Libraries/STM8S_StdPeriph_Driver/src/stm8s_uart1.c: 105: UART1->CR1 &= (uint8_t)(~UART1_CR1_M);  
      000108 72 19 52 34      [ 1]  309 	bres	0x5234, #4
                           00010C   310 	Sstm8s_uart1$UART1_Init$68 ==.
                                    311 ;	./STM8S_StdPeriph_Lib/Libraries/STM8S_StdPeriph_Driver/src/stm8s_uart1.c: 108: UART1->CR1 |= (uint8_t)WordLength;
      00010C C6 52 34         [ 1]  312 	ld	a, 0x5234
      00010F 1A 14            [ 1]  313 	or	a, (0x14, sp)
      000111 C7 52 34         [ 1]  314 	ld	0x5234, a
                           000114   315 	Sstm8s_uart1$UART1_Init$69 ==.
                                    316 ;	./STM8S_StdPeriph_Lib/Libraries/STM8S_StdPeriph_Driver/src/stm8s_uart1.c: 111: UART1->CR3 &= (uint8_t)(~UART1_CR3_STOP);  
      000114 C6 52 36         [ 1]  317 	ld	a, 0x5236
      000117 A4 CF            [ 1]  318 	and	a, #0xcf
      000119 C7 52 36         [ 1]  319 	ld	0x5236, a
                           00011C   320 	Sstm8s_uart1$UART1_Init$70 ==.
                                    321 ;	./STM8S_StdPeriph_Lib/Libraries/STM8S_StdPeriph_Driver/src/stm8s_uart1.c: 113: UART1->CR3 |= (uint8_t)StopBits;  
      00011C C6 52 36         [ 1]  322 	ld	a, 0x5236
      00011F 1A 15            [ 1]  323 	or	a, (0x15, sp)
      000121 C7 52 36         [ 1]  324 	ld	0x5236, a
                           000124   325 	Sstm8s_uart1$UART1_Init$71 ==.
                                    326 ;	./STM8S_StdPeriph_Lib/Libraries/STM8S_StdPeriph_Driver/src/stm8s_uart1.c: 116: UART1->CR1 &= (uint8_t)(~(UART1_CR1_PCEN | UART1_CR1_PS  ));  
      000124 C6 52 34         [ 1]  327 	ld	a, 0x5234
      000127 A4 F9            [ 1]  328 	and	a, #0xf9
      000129 C7 52 34         [ 1]  329 	ld	0x5234, a
                           00012C   330 	Sstm8s_uart1$UART1_Init$72 ==.
                                    331 ;	./STM8S_StdPeriph_Lib/Libraries/STM8S_StdPeriph_Driver/src/stm8s_uart1.c: 118: UART1->CR1 |= (uint8_t)Parity;  
      00012C C6 52 34         [ 1]  332 	ld	a, 0x5234
      00012F 1A 16            [ 1]  333 	or	a, (0x16, sp)
      000131 C7 52 34         [ 1]  334 	ld	0x5234, a
                           000134   335 	Sstm8s_uart1$UART1_Init$73 ==.
                                    336 ;	./STM8S_StdPeriph_Lib/Libraries/STM8S_StdPeriph_Driver/src/stm8s_uart1.c: 121: UART1->BRR1 &= (uint8_t)(~UART1_BRR1_DIVM);  
      000134 C6 52 32         [ 1]  337 	ld	a, 0x5232
      000137 35 00 52 32      [ 1]  338 	mov	0x5232+0, #0x00
                           00013B   339 	Sstm8s_uart1$UART1_Init$74 ==.
                                    340 ;	./STM8S_StdPeriph_Lib/Libraries/STM8S_StdPeriph_Driver/src/stm8s_uart1.c: 123: UART1->BRR2 &= (uint8_t)(~UART1_BRR2_DIVM);  
      00013B C6 52 33         [ 1]  341 	ld	a, 0x5233
      00013E A4 0F            [ 1]  342 	and	a, #0x0f
      000140 C7 52 33         [ 1]  343 	ld	0x5233, a
                           000143   344 	Sstm8s_uart1$UART1_Init$75 ==.
                                    345 ;	./STM8S_StdPeriph_Lib/Libraries/STM8S_StdPeriph_Driver/src/stm8s_uart1.c: 125: UART1->BRR2 &= (uint8_t)(~UART1_BRR2_DIVF);  
      000143 C6 52 33         [ 1]  346 	ld	a, 0x5233
      000146 A4 F0            [ 1]  347 	and	a, #0xf0
      000148 C7 52 33         [ 1]  348 	ld	0x5233, a
                           00014B   349 	Sstm8s_uart1$UART1_Init$76 ==.
                                    350 ;	./STM8S_StdPeriph_Lib/Libraries/STM8S_StdPeriph_Driver/src/stm8s_uart1.c: 128: BaudRate_Mantissa    = ((uint32_t)CLK_GetClockFreq() / (BaudRate << 4));
      00014B CDr00r00         [ 4]  351 	call	_CLK_GetClockFreq
      00014E 1F 0C            [ 2]  352 	ldw	(0x0c, sp), x
      000150 1E 10            [ 2]  353 	ldw	x, (0x10, sp)
      000152 1F 06            [ 2]  354 	ldw	(0x06, sp), x
      000154 1E 12            [ 2]  355 	ldw	x, (0x12, sp)
      000156 A6 04            [ 1]  356 	ld	a, #0x04
      000158                        357 00364$:
      000158 58               [ 2]  358 	sllw	x
      000159 09 07            [ 1]  359 	rlc	(0x07, sp)
      00015B 09 06            [ 1]  360 	rlc	(0x06, sp)
      00015D 4A               [ 1]  361 	dec	a
      00015E 26 F8            [ 1]  362 	jrne	00364$
      000160 1F 08            [ 2]  363 	ldw	(0x08, sp), x
      000162 89               [ 2]  364 	pushw	x
                           000163   365 	Sstm8s_uart1$UART1_Init$77 ==.
      000163 1E 08            [ 2]  366 	ldw	x, (0x08, sp)
      000165 89               [ 2]  367 	pushw	x
                           000166   368 	Sstm8s_uart1$UART1_Init$78 ==.
      000166 1E 10            [ 2]  369 	ldw	x, (0x10, sp)
      000168 89               [ 2]  370 	pushw	x
                           000169   371 	Sstm8s_uart1$UART1_Init$79 ==.
      000169 90 89            [ 2]  372 	pushw	y
                           00016B   373 	Sstm8s_uart1$UART1_Init$80 ==.
      00016B CDr00r00         [ 4]  374 	call	__divulong
      00016E 5B 08            [ 2]  375 	addw	sp, #8
                           000170   376 	Sstm8s_uart1$UART1_Init$81 ==.
      000170 1F 03            [ 2]  377 	ldw	(0x03, sp), x
      000172 17 01            [ 2]  378 	ldw	(0x01, sp), y
                           000174   379 	Sstm8s_uart1$UART1_Init$82 ==.
                                    380 ;	./STM8S_StdPeriph_Lib/Libraries/STM8S_StdPeriph_Driver/src/stm8s_uart1.c: 129: BaudRate_Mantissa100 = (((uint32_t)CLK_GetClockFreq() * 100) / (BaudRate << 4));
      000174 CDr00r00         [ 4]  381 	call	_CLK_GetClockFreq
      000177 89               [ 2]  382 	pushw	x
                           000178   383 	Sstm8s_uart1$UART1_Init$83 ==.
      000178 90 89            [ 2]  384 	pushw	y
                           00017A   385 	Sstm8s_uart1$UART1_Init$84 ==.
      00017A 4B 64            [ 1]  386 	push	#0x64
                           00017C   387 	Sstm8s_uart1$UART1_Init$85 ==.
      00017C 5F               [ 1]  388 	clrw	x
      00017D 89               [ 2]  389 	pushw	x
                           00017E   390 	Sstm8s_uart1$UART1_Init$86 ==.
      00017E 4B 00            [ 1]  391 	push	#0x00
                           000180   392 	Sstm8s_uart1$UART1_Init$87 ==.
      000180 CDr00r00         [ 4]  393 	call	__mullong
      000183 5B 08            [ 2]  394 	addw	sp, #8
                           000185   395 	Sstm8s_uart1$UART1_Init$88 ==.
      000185 1F 0C            [ 2]  396 	ldw	(0x0c, sp), x
      000187 1E 08            [ 2]  397 	ldw	x, (0x08, sp)
      000189 89               [ 2]  398 	pushw	x
                           00018A   399 	Sstm8s_uart1$UART1_Init$89 ==.
      00018A 1E 08            [ 2]  400 	ldw	x, (0x08, sp)
      00018C 89               [ 2]  401 	pushw	x
                           00018D   402 	Sstm8s_uart1$UART1_Init$90 ==.
      00018D 1E 10            [ 2]  403 	ldw	x, (0x10, sp)
      00018F 89               [ 2]  404 	pushw	x
                           000190   405 	Sstm8s_uart1$UART1_Init$91 ==.
      000190 90 89            [ 2]  406 	pushw	y
                           000192   407 	Sstm8s_uart1$UART1_Init$92 ==.
      000192 CDr00r00         [ 4]  408 	call	__divulong
      000195 5B 08            [ 2]  409 	addw	sp, #8
                           000197   410 	Sstm8s_uart1$UART1_Init$93 ==.
      000197 90 9E            [ 1]  411 	ld	a, yh
      000199 1F 07            [ 2]  412 	ldw	(0x07, sp), x
      00019B 6B 05            [ 1]  413 	ld	(0x05, sp), a
      00019D 90 9F            [ 1]  414 	ld	a, yl
                           00019F   415 	Sstm8s_uart1$UART1_Init$94 ==.
                                    416 ;	./STM8S_StdPeriph_Lib/Libraries/STM8S_StdPeriph_Driver/src/stm8s_uart1.c: 131: UART1->BRR2 |= (uint8_t)((uint8_t)(((BaudRate_Mantissa100 - (BaudRate_Mantissa * 100)) << 4) / 100) & (uint8_t)0x0F); 
      00019F AE 52 33         [ 2]  417 	ldw	x, #0x5233
      0001A2 88               [ 1]  418 	push	a
                           0001A3   419 	Sstm8s_uart1$UART1_Init$95 ==.
      0001A3 F6               [ 1]  420 	ld	a, (x)
      0001A4 6B 0A            [ 1]  421 	ld	(0x0a, sp), a
                           0001A6   422 	Sstm8s_uart1$UART1_Init$97 ==.
      0001A6 1E 04            [ 2]  423 	ldw	x, (0x04, sp)
      0001A8 89               [ 2]  424 	pushw	x
                           0001A9   425 	Sstm8s_uart1$UART1_Init$98 ==.
      0001A9 1E 04            [ 2]  426 	ldw	x, (0x04, sp)
      0001AB 89               [ 2]  427 	pushw	x
                           0001AC   428 	Sstm8s_uart1$UART1_Init$99 ==.
      0001AC 4B 64            [ 1]  429 	push	#0x64
                           0001AE   430 	Sstm8s_uart1$UART1_Init$100 ==.
      0001AE 5F               [ 1]  431 	clrw	x
      0001AF 89               [ 2]  432 	pushw	x
                           0001B0   433 	Sstm8s_uart1$UART1_Init$101 ==.
      0001B0 4B 00            [ 1]  434 	push	#0x00
                           0001B2   435 	Sstm8s_uart1$UART1_Init$102 ==.
      0001B2 CDr00r00         [ 4]  436 	call	__mullong
      0001B5 5B 08            [ 2]  437 	addw	sp, #8
                           0001B7   438 	Sstm8s_uart1$UART1_Init$103 ==.
      0001B7 1F 0D            [ 2]  439 	ldw	(0x0d, sp), x
      0001B9 17 0B            [ 2]  440 	ldw	(0x0b, sp), y
      0001BB 84               [ 1]  441 	pop	a
                           0001BC   442 	Sstm8s_uart1$UART1_Init$104 ==.
      0001BC 16 07            [ 2]  443 	ldw	y, (0x07, sp)
      0001BE 72 F2 0C         [ 2]  444 	subw	y, (0x0c, sp)
      0001C1 12 0B            [ 1]  445 	sbc	a, (0x0b, sp)
      0001C3 97               [ 1]  446 	ld	xl, a
      0001C4 7B 05            [ 1]  447 	ld	a, (0x05, sp)
      0001C6 12 0A            [ 1]  448 	sbc	a, (0x0a, sp)
      0001C8 95               [ 1]  449 	ld	xh, a
      0001C9 A6 04            [ 1]  450 	ld	a, #0x04
      0001CB                        451 00366$:
      0001CB 90 58            [ 2]  452 	sllw	y
      0001CD 59               [ 2]  453 	rlcw	x
      0001CE 4A               [ 1]  454 	dec	a
      0001CF 26 FA            [ 1]  455 	jrne	00366$
      0001D1 4B 64            [ 1]  456 	push	#0x64
                           0001D3   457 	Sstm8s_uart1$UART1_Init$105 ==.
      0001D3 4B 00            [ 1]  458 	push	#0x00
                           0001D5   459 	Sstm8s_uart1$UART1_Init$106 ==.
      0001D5 4B 00            [ 1]  460 	push	#0x00
                           0001D7   461 	Sstm8s_uart1$UART1_Init$107 ==.
      0001D7 4B 00            [ 1]  462 	push	#0x00
                           0001D9   463 	Sstm8s_uart1$UART1_Init$108 ==.
      0001D9 90 89            [ 2]  464 	pushw	y
                           0001DB   465 	Sstm8s_uart1$UART1_Init$109 ==.
      0001DB 89               [ 2]  466 	pushw	x
                           0001DC   467 	Sstm8s_uart1$UART1_Init$110 ==.
      0001DC CDr00r00         [ 4]  468 	call	__divulong
      0001DF 5B 08            [ 2]  469 	addw	sp, #8
                           0001E1   470 	Sstm8s_uart1$UART1_Init$111 ==.
      0001E1 9F               [ 1]  471 	ld	a, xl
      0001E2 A4 0F            [ 1]  472 	and	a, #0x0f
      0001E4 1A 09            [ 1]  473 	or	a, (0x09, sp)
      0001E6 C7 52 33         [ 1]  474 	ld	0x5233, a
                           0001E9   475 	Sstm8s_uart1$UART1_Init$112 ==.
                                    476 ;	./STM8S_StdPeriph_Lib/Libraries/STM8S_StdPeriph_Driver/src/stm8s_uart1.c: 133: UART1->BRR2 |= (uint8_t)((BaudRate_Mantissa >> 4) & (uint8_t)0xF0); 
      0001E9 C6 52 33         [ 1]  477 	ld	a, 0x5233
      0001EC 6B 0D            [ 1]  478 	ld	(0x0d, sp), a
      0001EE 1E 03            [ 2]  479 	ldw	x, (0x03, sp)
      0001F0 A6 10            [ 1]  480 	ld	a, #0x10
      0001F2 62               [ 2]  481 	div	x, a
      0001F3 90 93            [ 1]  482 	ldw	y, x
      0001F5 9F               [ 1]  483 	ld	a, xl
      0001F6 A4 F0            [ 1]  484 	and	a, #0xf0
      0001F8 1A 0D            [ 1]  485 	or	a, (0x0d, sp)
      0001FA C7 52 33         [ 1]  486 	ld	0x5233, a
                           0001FD   487 	Sstm8s_uart1$UART1_Init$113 ==.
                                    488 ;	./STM8S_StdPeriph_Lib/Libraries/STM8S_StdPeriph_Driver/src/stm8s_uart1.c: 135: UART1->BRR1 |= (uint8_t)BaudRate_Mantissa;           
      0001FD C6 52 32         [ 1]  489 	ld	a, 0x5232
      000200 6B 0D            [ 1]  490 	ld	(0x0d, sp), a
      000202 7B 04            [ 1]  491 	ld	a, (0x04, sp)
      000204 1A 0D            [ 1]  492 	or	a, (0x0d, sp)
      000206 C7 52 32         [ 1]  493 	ld	0x5232, a
                           000209   494 	Sstm8s_uart1$UART1_Init$114 ==.
                                    495 ;	./STM8S_StdPeriph_Lib/Libraries/STM8S_StdPeriph_Driver/src/stm8s_uart1.c: 138: UART1->CR2 &= (uint8_t)~(UART1_CR2_TEN | UART1_CR2_REN); 
      000209 C6 52 35         [ 1]  496 	ld	a, 0x5235
      00020C A4 F3            [ 1]  497 	and	a, #0xf3
      00020E C7 52 35         [ 1]  498 	ld	0x5235, a
                           000211   499 	Sstm8s_uart1$UART1_Init$115 ==.
                                    500 ;	./STM8S_StdPeriph_Lib/Libraries/STM8S_StdPeriph_Driver/src/stm8s_uart1.c: 140: UART1->CR3 &= (uint8_t)~(UART1_CR3_CPOL | UART1_CR3_CPHA | UART1_CR3_LBCL); 
      000211 C6 52 36         [ 1]  501 	ld	a, 0x5236
      000214 A4 F8            [ 1]  502 	and	a, #0xf8
      000216 C7 52 36         [ 1]  503 	ld	0x5236, a
                           000219   504 	Sstm8s_uart1$UART1_Init$116 ==.
                                    505 ;	./STM8S_StdPeriph_Lib/Libraries/STM8S_StdPeriph_Driver/src/stm8s_uart1.c: 142: UART1->CR3 |= (uint8_t)((uint8_t)SyncMode & (uint8_t)(UART1_CR3_CPOL | 
      000219 C6 52 36         [ 1]  506 	ld	a, 0x5236
      00021C 6B 0D            [ 1]  507 	ld	(0x0d, sp), a
      00021E 7B 17            [ 1]  508 	ld	a, (0x17, sp)
      000220 A4 07            [ 1]  509 	and	a, #0x07
      000222 1A 0D            [ 1]  510 	or	a, (0x0d, sp)
      000224 C7 52 36         [ 1]  511 	ld	0x5236, a
                           000227   512 	Sstm8s_uart1$UART1_Init$117 ==.
                                    513 ;	./STM8S_StdPeriph_Lib/Libraries/STM8S_StdPeriph_Driver/src/stm8s_uart1.c: 138: UART1->CR2 &= (uint8_t)~(UART1_CR2_TEN | UART1_CR2_REN); 
      000227 C6 52 35         [ 1]  514 	ld	a, 0x5235
                           00022A   515 	Sstm8s_uart1$UART1_Init$118 ==.
                                    516 ;	./STM8S_StdPeriph_Lib/Libraries/STM8S_StdPeriph_Driver/src/stm8s_uart1.c: 145: if ((uint8_t)(Mode & UART1_MODE_TX_ENABLE))
      00022A 88               [ 1]  517 	push	a
                           00022B   518 	Sstm8s_uart1$UART1_Init$119 ==.
      00022B 7B 19            [ 1]  519 	ld	a, (0x19, sp)
      00022D A5 04            [ 1]  520 	bcp	a, #0x04
      00022F 84               [ 1]  521 	pop	a
                           000230   522 	Sstm8s_uart1$UART1_Init$120 ==.
      000230 27 07            [ 1]  523 	jreq	00102$
                           000232   524 	Sstm8s_uart1$UART1_Init$121 ==.
                           000232   525 	Sstm8s_uart1$UART1_Init$122 ==.
                                    526 ;	./STM8S_StdPeriph_Lib/Libraries/STM8S_StdPeriph_Driver/src/stm8s_uart1.c: 148: UART1->CR2 |= (uint8_t)UART1_CR2_TEN;  
      000232 AA 08            [ 1]  527 	or	a, #0x08
      000234 C7 52 35         [ 1]  528 	ld	0x5235, a
                           000237   529 	Sstm8s_uart1$UART1_Init$123 ==.
      000237 20 05            [ 2]  530 	jra	00103$
      000239                        531 00102$:
                           000239   532 	Sstm8s_uart1$UART1_Init$124 ==.
                           000239   533 	Sstm8s_uart1$UART1_Init$125 ==.
                                    534 ;	./STM8S_StdPeriph_Lib/Libraries/STM8S_StdPeriph_Driver/src/stm8s_uart1.c: 153: UART1->CR2 &= (uint8_t)(~UART1_CR2_TEN);  
      000239 A4 F7            [ 1]  535 	and	a, #0xf7
      00023B C7 52 35         [ 1]  536 	ld	0x5235, a
                           00023E   537 	Sstm8s_uart1$UART1_Init$126 ==.
      00023E                        538 00103$:
                           00023E   539 	Sstm8s_uart1$UART1_Init$127 ==.
                                    540 ;	./STM8S_StdPeriph_Lib/Libraries/STM8S_StdPeriph_Driver/src/stm8s_uart1.c: 138: UART1->CR2 &= (uint8_t)~(UART1_CR2_TEN | UART1_CR2_REN); 
      00023E C6 52 35         [ 1]  541 	ld	a, 0x5235
                           000241   542 	Sstm8s_uart1$UART1_Init$128 ==.
                                    543 ;	./STM8S_StdPeriph_Lib/Libraries/STM8S_StdPeriph_Driver/src/stm8s_uart1.c: 155: if ((uint8_t)(Mode & UART1_MODE_RX_ENABLE))
      000241 88               [ 1]  544 	push	a
                           000242   545 	Sstm8s_uart1$UART1_Init$129 ==.
      000242 7B 19            [ 1]  546 	ld	a, (0x19, sp)
      000244 A5 08            [ 1]  547 	bcp	a, #0x08
      000246 84               [ 1]  548 	pop	a
                           000247   549 	Sstm8s_uart1$UART1_Init$130 ==.
      000247 27 07            [ 1]  550 	jreq	00105$
                           000249   551 	Sstm8s_uart1$UART1_Init$131 ==.
                           000249   552 	Sstm8s_uart1$UART1_Init$132 ==.
                                    553 ;	./STM8S_StdPeriph_Lib/Libraries/STM8S_StdPeriph_Driver/src/stm8s_uart1.c: 158: UART1->CR2 |= (uint8_t)UART1_CR2_REN;  
      000249 AA 04            [ 1]  554 	or	a, #0x04
      00024B C7 52 35         [ 1]  555 	ld	0x5235, a
                           00024E   556 	Sstm8s_uart1$UART1_Init$133 ==.
      00024E 20 05            [ 2]  557 	jra	00106$
      000250                        558 00105$:
                           000250   559 	Sstm8s_uart1$UART1_Init$134 ==.
                           000250   560 	Sstm8s_uart1$UART1_Init$135 ==.
                                    561 ;	./STM8S_StdPeriph_Lib/Libraries/STM8S_StdPeriph_Driver/src/stm8s_uart1.c: 163: UART1->CR2 &= (uint8_t)(~UART1_CR2_REN);  
      000250 A4 FB            [ 1]  562 	and	a, #0xfb
      000252 C7 52 35         [ 1]  563 	ld	0x5235, a
                           000255   564 	Sstm8s_uart1$UART1_Init$136 ==.
      000255                        565 00106$:
                           000255   566 	Sstm8s_uart1$UART1_Init$137 ==.
                                    567 ;	./STM8S_StdPeriph_Lib/Libraries/STM8S_StdPeriph_Driver/src/stm8s_uart1.c: 111: UART1->CR3 &= (uint8_t)(~UART1_CR3_STOP);  
      000255 C6 52 36         [ 1]  568 	ld	a, 0x5236
                           000258   569 	Sstm8s_uart1$UART1_Init$138 ==.
                                    570 ;	./STM8S_StdPeriph_Lib/Libraries/STM8S_StdPeriph_Driver/src/stm8s_uart1.c: 167: if ((uint8_t)(SyncMode & UART1_SYNCMODE_CLOCK_DISABLE))
      000258 0D 17            [ 1]  571 	tnz	(0x17, sp)
      00025A 2A 07            [ 1]  572 	jrpl	00108$
                           00025C   573 	Sstm8s_uart1$UART1_Init$139 ==.
                           00025C   574 	Sstm8s_uart1$UART1_Init$140 ==.
                                    575 ;	./STM8S_StdPeriph_Lib/Libraries/STM8S_StdPeriph_Driver/src/stm8s_uart1.c: 170: UART1->CR3 &= (uint8_t)(~UART1_CR3_CKEN); 
      00025C A4 F7            [ 1]  576 	and	a, #0xf7
      00025E C7 52 36         [ 1]  577 	ld	0x5236, a
                           000261   578 	Sstm8s_uart1$UART1_Init$141 ==.
      000261 20 0D            [ 2]  579 	jra	00110$
      000263                        580 00108$:
                           000263   581 	Sstm8s_uart1$UART1_Init$142 ==.
                           000263   582 	Sstm8s_uart1$UART1_Init$143 ==.
                                    583 ;	./STM8S_StdPeriph_Lib/Libraries/STM8S_StdPeriph_Driver/src/stm8s_uart1.c: 174: UART1->CR3 |= (uint8_t)((uint8_t)SyncMode & UART1_CR3_CKEN);
      000263 88               [ 1]  584 	push	a
                           000264   585 	Sstm8s_uart1$UART1_Init$144 ==.
      000264 7B 18            [ 1]  586 	ld	a, (0x18, sp)
      000266 A4 08            [ 1]  587 	and	a, #0x08
      000268 6B 0E            [ 1]  588 	ld	(0x0e, sp), a
      00026A 84               [ 1]  589 	pop	a
                           00026B   590 	Sstm8s_uart1$UART1_Init$145 ==.
      00026B 1A 0D            [ 1]  591 	or	a, (0x0d, sp)
      00026D C7 52 36         [ 1]  592 	ld	0x5236, a
                           000270   593 	Sstm8s_uart1$UART1_Init$146 ==.
      000270                        594 00110$:
                           000270   595 	Sstm8s_uart1$UART1_Init$147 ==.
                                    596 ;	./STM8S_StdPeriph_Lib/Libraries/STM8S_StdPeriph_Driver/src/stm8s_uart1.c: 176: }
      000270 1E 0E            [ 2]  597 	ldw	x, (14, sp)
      000272 5B 18            [ 2]  598 	addw	sp, #24
                           000274   599 	Sstm8s_uart1$UART1_Init$148 ==.
      000274 FC               [ 2]  600 	jp	(x)
                           000275   601 	Sstm8s_uart1$UART1_Init$149 ==.
                           000275   602 	Sstm8s_uart1$UART1_Cmd$150 ==.
                                    603 ;	./STM8S_StdPeriph_Lib/Libraries/STM8S_StdPeriph_Driver/src/stm8s_uart1.c: 184: void UART1_Cmd(FunctionalState NewState)
                                    604 ;	-----------------------------------------
                                    605 ;	 function UART1_Cmd
                                    606 ;	-----------------------------------------
      000275                        607 _UART1_Cmd:
                           000275   608 	Sstm8s_uart1$UART1_Cmd$151 ==.
      000275 88               [ 1]  609 	push	a
                           000276   610 	Sstm8s_uart1$UART1_Cmd$152 ==.
      000276 6B 01            [ 1]  611 	ld	(0x01, sp), a
                           000278   612 	Sstm8s_uart1$UART1_Cmd$153 ==.
                                    613 ;	./STM8S_StdPeriph_Lib/Libraries/STM8S_StdPeriph_Driver/src/stm8s_uart1.c: 189: UART1->CR1 &= (uint8_t)(~UART1_CR1_UARTD); 
      000278 C6 52 34         [ 1]  614 	ld	a, 0x5234
                           00027B   615 	Sstm8s_uart1$UART1_Cmd$154 ==.
                                    616 ;	./STM8S_StdPeriph_Lib/Libraries/STM8S_StdPeriph_Driver/src/stm8s_uart1.c: 186: if (NewState != DISABLE)
      00027B 0D 01            [ 1]  617 	tnz	(0x01, sp)
      00027D 27 07            [ 1]  618 	jreq	00102$
                           00027F   619 	Sstm8s_uart1$UART1_Cmd$155 ==.
                           00027F   620 	Sstm8s_uart1$UART1_Cmd$156 ==.
                                    621 ;	./STM8S_StdPeriph_Lib/Libraries/STM8S_StdPeriph_Driver/src/stm8s_uart1.c: 189: UART1->CR1 &= (uint8_t)(~UART1_CR1_UARTD); 
      00027F A4 DF            [ 1]  622 	and	a, #0xdf
      000281 C7 52 34         [ 1]  623 	ld	0x5234, a
                           000284   624 	Sstm8s_uart1$UART1_Cmd$157 ==.
      000284 20 05            [ 2]  625 	jra	00104$
      000286                        626 00102$:
                           000286   627 	Sstm8s_uart1$UART1_Cmd$158 ==.
                           000286   628 	Sstm8s_uart1$UART1_Cmd$159 ==.
                                    629 ;	./STM8S_StdPeriph_Lib/Libraries/STM8S_StdPeriph_Driver/src/stm8s_uart1.c: 194: UART1->CR1 |= UART1_CR1_UARTD;  
      000286 AA 20            [ 1]  630 	or	a, #0x20
      000288 C7 52 34         [ 1]  631 	ld	0x5234, a
                           00028B   632 	Sstm8s_uart1$UART1_Cmd$160 ==.
      00028B                        633 00104$:
                           00028B   634 	Sstm8s_uart1$UART1_Cmd$161 ==.
                                    635 ;	./STM8S_StdPeriph_Lib/Libraries/STM8S_StdPeriph_Driver/src/stm8s_uart1.c: 196: }
      00028B 84               [ 1]  636 	pop	a
                           00028C   637 	Sstm8s_uart1$UART1_Cmd$162 ==.
                           00028C   638 	Sstm8s_uart1$UART1_Cmd$163 ==.
                           00028C   639 	XG$UART1_Cmd$0$0 ==.
      00028C 81               [ 4]  640 	ret
                           00028D   641 	Sstm8s_uart1$UART1_Cmd$164 ==.
                           00028D   642 	Sstm8s_uart1$UART1_ITConfig$165 ==.
                                    643 ;	./STM8S_StdPeriph_Lib/Libraries/STM8S_StdPeriph_Driver/src/stm8s_uart1.c: 211: void UART1_ITConfig(UART1_IT_TypeDef UART1_IT, FunctionalState NewState)
                                    644 ;	-----------------------------------------
                                    645 ;	 function UART1_ITConfig
                                    646 ;	-----------------------------------------
      00028D                        647 _UART1_ITConfig:
                           00028D   648 	Sstm8s_uart1$UART1_ITConfig$166 ==.
      00028D 52 05            [ 2]  649 	sub	sp, #5
                           00028F   650 	Sstm8s_uart1$UART1_ITConfig$167 ==.
      00028F 1F 04            [ 2]  651 	ldw	(0x04, sp), x
      000291 6B 03            [ 1]  652 	ld	(0x03, sp), a
                           000293   653 	Sstm8s_uart1$UART1_ITConfig$168 ==.
                                    654 ;	./STM8S_StdPeriph_Lib/Libraries/STM8S_StdPeriph_Driver/src/stm8s_uart1.c: 216: assert_param(IS_UART1_CONFIG_IT_OK(UART1_IT));
      000293 1E 04            [ 2]  655 	ldw	x, (0x04, sp)
      000295 A3 01 00         [ 2]  656 	cpw	x, #0x0100
      000298 27 29            [ 1]  657 	jreq	00119$
                           00029A   658 	Sstm8s_uart1$UART1_ITConfig$169 ==.
      00029A A3 02 77         [ 2]  659 	cpw	x, #0x0277
      00029D 27 24            [ 1]  660 	jreq	00119$
                           00029F   661 	Sstm8s_uart1$UART1_ITConfig$170 ==.
      00029F A3 02 66         [ 2]  662 	cpw	x, #0x0266
      0002A2 27 1F            [ 1]  663 	jreq	00119$
                           0002A4   664 	Sstm8s_uart1$UART1_ITConfig$171 ==.
      0002A4 A3 02 05         [ 2]  665 	cpw	x, #0x0205
      0002A7 27 1A            [ 1]  666 	jreq	00119$
                           0002A9   667 	Sstm8s_uart1$UART1_ITConfig$172 ==.
      0002A9 A3 02 44         [ 2]  668 	cpw	x, #0x0244
      0002AC 27 15            [ 1]  669 	jreq	00119$
                           0002AE   670 	Sstm8s_uart1$UART1_ITConfig$173 ==.
      0002AE A3 03 46         [ 2]  671 	cpw	x, #0x0346
      0002B1 27 10            [ 1]  672 	jreq	00119$
                           0002B3   673 	Sstm8s_uart1$UART1_ITConfig$174 ==.
      0002B3 89               [ 2]  674 	pushw	x
                           0002B4   675 	Sstm8s_uart1$UART1_ITConfig$175 ==.
      0002B4 4B D8            [ 1]  676 	push	#0xd8
                           0002B6   677 	Sstm8s_uart1$UART1_ITConfig$176 ==.
      0002B6 4B 00            [ 1]  678 	push	#0x00
                           0002B8   679 	Sstm8s_uart1$UART1_ITConfig$177 ==.
      0002B8 4B 00            [ 1]  680 	push	#0x00
                           0002BA   681 	Sstm8s_uart1$UART1_ITConfig$178 ==.
      0002BA 4B 00            [ 1]  682 	push	#0x00
                           0002BC   683 	Sstm8s_uart1$UART1_ITConfig$179 ==.
      0002BC AEr00r00         [ 2]  684 	ldw	x, #(___str_0+0)
      0002BF CDr00r00         [ 4]  685 	call	_assert_failed
                           0002C2   686 	Sstm8s_uart1$UART1_ITConfig$180 ==.
      0002C2 85               [ 2]  687 	popw	x
                           0002C3   688 	Sstm8s_uart1$UART1_ITConfig$181 ==.
      0002C3                        689 00119$:
                           0002C3   690 	Sstm8s_uart1$UART1_ITConfig$182 ==.
                                    691 ;	./STM8S_StdPeriph_Lib/Libraries/STM8S_StdPeriph_Driver/src/stm8s_uart1.c: 217: assert_param(IS_FUNCTIONALSTATE_OK(NewState));
      0002C3 0D 03            [ 1]  692 	tnz	(0x03, sp)
      0002C5 27 14            [ 1]  693 	jreq	00136$
      0002C7 0D 03            [ 1]  694 	tnz	(0x03, sp)
      0002C9 26 10            [ 1]  695 	jrne	00136$
      0002CB 89               [ 2]  696 	pushw	x
                           0002CC   697 	Sstm8s_uart1$UART1_ITConfig$183 ==.
      0002CC 4B D9            [ 1]  698 	push	#0xd9
                           0002CE   699 	Sstm8s_uart1$UART1_ITConfig$184 ==.
      0002CE 4B 00            [ 1]  700 	push	#0x00
                           0002D0   701 	Sstm8s_uart1$UART1_ITConfig$185 ==.
      0002D0 4B 00            [ 1]  702 	push	#0x00
                           0002D2   703 	Sstm8s_uart1$UART1_ITConfig$186 ==.
      0002D2 4B 00            [ 1]  704 	push	#0x00
                           0002D4   705 	Sstm8s_uart1$UART1_ITConfig$187 ==.
      0002D4 AEr00r00         [ 2]  706 	ldw	x, #(___str_0+0)
      0002D7 CDr00r00         [ 4]  707 	call	_assert_failed
                           0002DA   708 	Sstm8s_uart1$UART1_ITConfig$188 ==.
      0002DA 85               [ 2]  709 	popw	x
                           0002DB   710 	Sstm8s_uart1$UART1_ITConfig$189 ==.
      0002DB                        711 00136$:
                           0002DB   712 	Sstm8s_uart1$UART1_ITConfig$190 ==.
                                    713 ;	./STM8S_StdPeriph_Lib/Libraries/STM8S_StdPeriph_Driver/src/stm8s_uart1.c: 220: uartreg = (uint8_t)((uint16_t)UART1_IT >> 0x08);
                           0002DB   714 	Sstm8s_uart1$UART1_ITConfig$191 ==.
                                    715 ;	./STM8S_StdPeriph_Lib/Libraries/STM8S_StdPeriph_Driver/src/stm8s_uart1.c: 222: itpos = (uint8_t)((uint8_t)1 << (uint8_t)((uint8_t)UART1_IT & (uint8_t)0x0F));
      0002DB 7B 05            [ 1]  716 	ld	a, (0x05, sp)
      0002DD A4 0F            [ 1]  717 	and	a, #0x0f
      0002DF 41               [ 1]  718 	exg	a, xl
      0002E0 A6 01            [ 1]  719 	ld	a, #0x01
      0002E2 41               [ 1]  720 	exg	a, xl
      0002E3 4D               [ 1]  721 	tnz	a
      0002E4 27 06            [ 1]  722 	jreq	00226$
      0002E6                        723 00225$:
      0002E6 41               [ 1]  724 	exg	a, xl
      0002E7 48               [ 1]  725 	sll	a
      0002E8 41               [ 1]  726 	exg	a, xl
      0002E9 4A               [ 1]  727 	dec	a
      0002EA 26 FA            [ 1]  728 	jrne	00225$
      0002EC                        729 00226$:
                           0002EC   730 	Sstm8s_uart1$UART1_ITConfig$192 ==.
                                    731 ;	./STM8S_StdPeriph_Lib/Libraries/STM8S_StdPeriph_Driver/src/stm8s_uart1.c: 227: if (uartreg == 0x01)
      0002EC 9E               [ 1]  732 	ld	a, xh
      0002ED 4A               [ 1]  733 	dec	a
      0002EE 26 05            [ 1]  734 	jrne	00228$
      0002F0 A6 01            [ 1]  735 	ld	a, #0x01
      0002F2 6B 01            [ 1]  736 	ld	(0x01, sp), a
      0002F4 C5                     737 	.byte 0xc5
      0002F5                        738 00228$:
      0002F5 0F 01            [ 1]  739 	clr	(0x01, sp)
      0002F7                        740 00229$:
                           0002F7   741 	Sstm8s_uart1$UART1_ITConfig$193 ==.
                           0002F7   742 	Sstm8s_uart1$UART1_ITConfig$194 ==.
                                    743 ;	./STM8S_StdPeriph_Lib/Libraries/STM8S_StdPeriph_Driver/src/stm8s_uart1.c: 231: else if (uartreg == 0x02)
      0002F7 9E               [ 1]  744 	ld	a, xh
      0002F8 A0 02            [ 1]  745 	sub	a, #0x02
      0002FA 26 04            [ 1]  746 	jrne	00231$
      0002FC 4C               [ 1]  747 	inc	a
      0002FD 95               [ 1]  748 	ld	xh, a
      0002FE 20 02            [ 2]  749 	jra	00232$
      000300                        750 00231$:
      000300 4F               [ 1]  751 	clr	a
      000301 95               [ 1]  752 	ld	xh, a
      000302                        753 00232$:
                           000302   754 	Sstm8s_uart1$UART1_ITConfig$195 ==.
                           000302   755 	Sstm8s_uart1$UART1_ITConfig$196 ==.
                                    756 ;	./STM8S_StdPeriph_Lib/Libraries/STM8S_StdPeriph_Driver/src/stm8s_uart1.c: 224: if (NewState != DISABLE)
      000302 0D 03            [ 1]  757 	tnz	(0x03, sp)
      000304 27 2C            [ 1]  758 	jreq	00114$
                           000306   759 	Sstm8s_uart1$UART1_ITConfig$197 ==.
                           000306   760 	Sstm8s_uart1$UART1_ITConfig$198 ==.
                                    761 ;	./STM8S_StdPeriph_Lib/Libraries/STM8S_StdPeriph_Driver/src/stm8s_uart1.c: 227: if (uartreg == 0x01)
      000306 0D 01            [ 1]  762 	tnz	(0x01, sp)
      000308 27 0C            [ 1]  763 	jreq	00105$
                           00030A   764 	Sstm8s_uart1$UART1_ITConfig$199 ==.
                           00030A   765 	Sstm8s_uart1$UART1_ITConfig$200 ==.
                                    766 ;	./STM8S_StdPeriph_Lib/Libraries/STM8S_StdPeriph_Driver/src/stm8s_uart1.c: 229: UART1->CR1 |= itpos;
      00030A C6 52 34         [ 1]  767 	ld	a, 0x5234
      00030D 89               [ 2]  768 	pushw	x
                           00030E   769 	Sstm8s_uart1$UART1_ITConfig$201 ==.
      00030E 1A 02            [ 1]  770 	or	a, (2, sp)
      000310 85               [ 2]  771 	popw	x
                           000311   772 	Sstm8s_uart1$UART1_ITConfig$202 ==.
      000311 C7 52 34         [ 1]  773 	ld	0x5234, a
                           000314   774 	Sstm8s_uart1$UART1_ITConfig$203 ==.
      000314 20 44            [ 2]  775 	jra	00116$
      000316                        776 00105$:
                           000316   777 	Sstm8s_uart1$UART1_ITConfig$204 ==.
                                    778 ;	./STM8S_StdPeriph_Lib/Libraries/STM8S_StdPeriph_Driver/src/stm8s_uart1.c: 231: else if (uartreg == 0x02)
      000316 9E               [ 1]  779 	ld	a, xh
      000317 4D               [ 1]  780 	tnz	a
      000318 27 0C            [ 1]  781 	jreq	00102$
                           00031A   782 	Sstm8s_uart1$UART1_ITConfig$205 ==.
                           00031A   783 	Sstm8s_uart1$UART1_ITConfig$206 ==.
                                    784 ;	./STM8S_StdPeriph_Lib/Libraries/STM8S_StdPeriph_Driver/src/stm8s_uart1.c: 233: UART1->CR2 |= itpos;
      00031A C6 52 35         [ 1]  785 	ld	a, 0x5235
      00031D 89               [ 2]  786 	pushw	x
                           00031E   787 	Sstm8s_uart1$UART1_ITConfig$207 ==.
      00031E 1A 02            [ 1]  788 	or	a, (2, sp)
      000320 85               [ 2]  789 	popw	x
                           000321   790 	Sstm8s_uart1$UART1_ITConfig$208 ==.
      000321 C7 52 35         [ 1]  791 	ld	0x5235, a
                           000324   792 	Sstm8s_uart1$UART1_ITConfig$209 ==.
      000324 20 34            [ 2]  793 	jra	00116$
      000326                        794 00102$:
                           000326   795 	Sstm8s_uart1$UART1_ITConfig$210 ==.
                           000326   796 	Sstm8s_uart1$UART1_ITConfig$211 ==.
                                    797 ;	./STM8S_StdPeriph_Lib/Libraries/STM8S_StdPeriph_Driver/src/stm8s_uart1.c: 237: UART1->CR4 |= itpos;
      000326 C6 52 37         [ 1]  798 	ld	a, 0x5237
      000329 89               [ 2]  799 	pushw	x
                           00032A   800 	Sstm8s_uart1$UART1_ITConfig$212 ==.
      00032A 1A 02            [ 1]  801 	or	a, (2, sp)
      00032C 85               [ 2]  802 	popw	x
                           00032D   803 	Sstm8s_uart1$UART1_ITConfig$213 ==.
      00032D C7 52 37         [ 1]  804 	ld	0x5237, a
                           000330   805 	Sstm8s_uart1$UART1_ITConfig$214 ==.
      000330 20 28            [ 2]  806 	jra	00116$
      000332                        807 00114$:
                           000332   808 	Sstm8s_uart1$UART1_ITConfig$215 ==.
                                    809 ;	./STM8S_StdPeriph_Lib/Libraries/STM8S_StdPeriph_Driver/src/stm8s_uart1.c: 245: UART1->CR1 &= (uint8_t)(~itpos);
      000332 9F               [ 1]  810 	ld	a, xl
      000333 43               [ 1]  811 	cpl	a
      000334 6B 02            [ 1]  812 	ld	(0x02, sp), a
                           000336   813 	Sstm8s_uart1$UART1_ITConfig$216 ==.
                           000336   814 	Sstm8s_uart1$UART1_ITConfig$217 ==.
                                    815 ;	./STM8S_StdPeriph_Lib/Libraries/STM8S_StdPeriph_Driver/src/stm8s_uart1.c: 243: if (uartreg == 0x01)
      000336 0D 01            [ 1]  816 	tnz	(0x01, sp)
      000338 27 0A            [ 1]  817 	jreq	00111$
                           00033A   818 	Sstm8s_uart1$UART1_ITConfig$218 ==.
                           00033A   819 	Sstm8s_uart1$UART1_ITConfig$219 ==.
                                    820 ;	./STM8S_StdPeriph_Lib/Libraries/STM8S_StdPeriph_Driver/src/stm8s_uart1.c: 245: UART1->CR1 &= (uint8_t)(~itpos);
      00033A C6 52 34         [ 1]  821 	ld	a, 0x5234
      00033D 14 02            [ 1]  822 	and	a, (0x02, sp)
      00033F C7 52 34         [ 1]  823 	ld	0x5234, a
                           000342   824 	Sstm8s_uart1$UART1_ITConfig$220 ==.
      000342 20 16            [ 2]  825 	jra	00116$
      000344                        826 00111$:
                           000344   827 	Sstm8s_uart1$UART1_ITConfig$221 ==.
                                    828 ;	./STM8S_StdPeriph_Lib/Libraries/STM8S_StdPeriph_Driver/src/stm8s_uart1.c: 247: else if (uartreg == 0x02)
      000344 9E               [ 1]  829 	ld	a, xh
      000345 4D               [ 1]  830 	tnz	a
      000346 27 0A            [ 1]  831 	jreq	00108$
                           000348   832 	Sstm8s_uart1$UART1_ITConfig$222 ==.
                           000348   833 	Sstm8s_uart1$UART1_ITConfig$223 ==.
                                    834 ;	./STM8S_StdPeriph_Lib/Libraries/STM8S_StdPeriph_Driver/src/stm8s_uart1.c: 249: UART1->CR2 &= (uint8_t)(~itpos);
      000348 C6 52 35         [ 1]  835 	ld	a, 0x5235
      00034B 14 02            [ 1]  836 	and	a, (0x02, sp)
      00034D C7 52 35         [ 1]  837 	ld	0x5235, a
                           000350   838 	Sstm8s_uart1$UART1_ITConfig$224 ==.
      000350 20 08            [ 2]  839 	jra	00116$
      000352                        840 00108$:
                           000352   841 	Sstm8s_uart1$UART1_ITConfig$225 ==.
                           000352   842 	Sstm8s_uart1$UART1_ITConfig$226 ==.
                                    843 ;	./STM8S_StdPeriph_Lib/Libraries/STM8S_StdPeriph_Driver/src/stm8s_uart1.c: 253: UART1->CR4 &= (uint8_t)(~itpos);
      000352 C6 52 37         [ 1]  844 	ld	a, 0x5237
      000355 14 02            [ 1]  845 	and	a, (0x02, sp)
      000357 C7 52 37         [ 1]  846 	ld	0x5237, a
                           00035A   847 	Sstm8s_uart1$UART1_ITConfig$227 ==.
      00035A                        848 00116$:
                           00035A   849 	Sstm8s_uart1$UART1_ITConfig$228 ==.
                                    850 ;	./STM8S_StdPeriph_Lib/Libraries/STM8S_StdPeriph_Driver/src/stm8s_uart1.c: 257: }
      00035A 5B 05            [ 2]  851 	addw	sp, #5
                           00035C   852 	Sstm8s_uart1$UART1_ITConfig$229 ==.
                           00035C   853 	Sstm8s_uart1$UART1_ITConfig$230 ==.
                           00035C   854 	XG$UART1_ITConfig$0$0 ==.
      00035C 81               [ 4]  855 	ret
                           00035D   856 	Sstm8s_uart1$UART1_ITConfig$231 ==.
                           00035D   857 	Sstm8s_uart1$UART1_HalfDuplexCmd$232 ==.
                                    858 ;	./STM8S_StdPeriph_Lib/Libraries/STM8S_StdPeriph_Driver/src/stm8s_uart1.c: 265: void UART1_HalfDuplexCmd(FunctionalState NewState)
                                    859 ;	-----------------------------------------
                                    860 ;	 function UART1_HalfDuplexCmd
                                    861 ;	-----------------------------------------
      00035D                        862 _UART1_HalfDuplexCmd:
                           00035D   863 	Sstm8s_uart1$UART1_HalfDuplexCmd$233 ==.
      00035D 88               [ 1]  864 	push	a
                           00035E   865 	Sstm8s_uart1$UART1_HalfDuplexCmd$234 ==.
                           00035E   866 	Sstm8s_uart1$UART1_HalfDuplexCmd$235 ==.
                                    867 ;	./STM8S_StdPeriph_Lib/Libraries/STM8S_StdPeriph_Driver/src/stm8s_uart1.c: 267: assert_param(IS_FUNCTIONALSTATE_OK(NewState));
      00035E 6B 01            [ 1]  868 	ld	(0x01, sp), a
      000360 27 10            [ 1]  869 	jreq	00107$
      000362 0D 01            [ 1]  870 	tnz	(0x01, sp)
      000364 26 0C            [ 1]  871 	jrne	00107$
      000366 4B 0B            [ 1]  872 	push	#0x0b
                           000368   873 	Sstm8s_uart1$UART1_HalfDuplexCmd$236 ==.
      000368 4B 01            [ 1]  874 	push	#0x01
                           00036A   875 	Sstm8s_uart1$UART1_HalfDuplexCmd$237 ==.
      00036A 5F               [ 1]  876 	clrw	x
      00036B 89               [ 2]  877 	pushw	x
                           00036C   878 	Sstm8s_uart1$UART1_HalfDuplexCmd$238 ==.
      00036C AEr00r00         [ 2]  879 	ldw	x, #(___str_0+0)
      00036F CDr00r00         [ 4]  880 	call	_assert_failed
                           000372   881 	Sstm8s_uart1$UART1_HalfDuplexCmd$239 ==.
      000372                        882 00107$:
                           000372   883 	Sstm8s_uart1$UART1_HalfDuplexCmd$240 ==.
                                    884 ;	./STM8S_StdPeriph_Lib/Libraries/STM8S_StdPeriph_Driver/src/stm8s_uart1.c: 271: UART1->CR5 |= UART1_CR5_HDSEL;  /**< UART1 Half Duplex Enable  */
      000372 C6 52 38         [ 1]  885 	ld	a, 0x5238
                           000375   886 	Sstm8s_uart1$UART1_HalfDuplexCmd$241 ==.
                                    887 ;	./STM8S_StdPeriph_Lib/Libraries/STM8S_StdPeriph_Driver/src/stm8s_uart1.c: 269: if (NewState != DISABLE)
      000375 0D 01            [ 1]  888 	tnz	(0x01, sp)
      000377 27 07            [ 1]  889 	jreq	00102$
                           000379   890 	Sstm8s_uart1$UART1_HalfDuplexCmd$242 ==.
                           000379   891 	Sstm8s_uart1$UART1_HalfDuplexCmd$243 ==.
                                    892 ;	./STM8S_StdPeriph_Lib/Libraries/STM8S_StdPeriph_Driver/src/stm8s_uart1.c: 271: UART1->CR5 |= UART1_CR5_HDSEL;  /**< UART1 Half Duplex Enable  */
      000379 AA 08            [ 1]  893 	or	a, #0x08
      00037B C7 52 38         [ 1]  894 	ld	0x5238, a
                           00037E   895 	Sstm8s_uart1$UART1_HalfDuplexCmd$244 ==.
      00037E 20 05            [ 2]  896 	jra	00104$
      000380                        897 00102$:
                           000380   898 	Sstm8s_uart1$UART1_HalfDuplexCmd$245 ==.
                           000380   899 	Sstm8s_uart1$UART1_HalfDuplexCmd$246 ==.
                                    900 ;	./STM8S_StdPeriph_Lib/Libraries/STM8S_StdPeriph_Driver/src/stm8s_uart1.c: 275: UART1->CR5 &= (uint8_t)~UART1_CR5_HDSEL; /**< UART1 Half Duplex Disable */
      000380 A4 F7            [ 1]  901 	and	a, #0xf7
      000382 C7 52 38         [ 1]  902 	ld	0x5238, a
                           000385   903 	Sstm8s_uart1$UART1_HalfDuplexCmd$247 ==.
      000385                        904 00104$:
                           000385   905 	Sstm8s_uart1$UART1_HalfDuplexCmd$248 ==.
                                    906 ;	./STM8S_StdPeriph_Lib/Libraries/STM8S_StdPeriph_Driver/src/stm8s_uart1.c: 277: }
      000385 84               [ 1]  907 	pop	a
                           000386   908 	Sstm8s_uart1$UART1_HalfDuplexCmd$249 ==.
                           000386   909 	Sstm8s_uart1$UART1_HalfDuplexCmd$250 ==.
                           000386   910 	XG$UART1_HalfDuplexCmd$0$0 ==.
      000386 81               [ 4]  911 	ret
                           000387   912 	Sstm8s_uart1$UART1_HalfDuplexCmd$251 ==.
                           000387   913 	Sstm8s_uart1$UART1_IrDAConfig$252 ==.
                                    914 ;	./STM8S_StdPeriph_Lib/Libraries/STM8S_StdPeriph_Driver/src/stm8s_uart1.c: 285: void UART1_IrDAConfig(UART1_IrDAMode_TypeDef UART1_IrDAMode)
                                    915 ;	-----------------------------------------
                                    916 ;	 function UART1_IrDAConfig
                                    917 ;	-----------------------------------------
      000387                        918 _UART1_IrDAConfig:
                           000387   919 	Sstm8s_uart1$UART1_IrDAConfig$253 ==.
      000387 88               [ 1]  920 	push	a
                           000388   921 	Sstm8s_uart1$UART1_IrDAConfig$254 ==.
                           000388   922 	Sstm8s_uart1$UART1_IrDAConfig$255 ==.
                                    923 ;	./STM8S_StdPeriph_Lib/Libraries/STM8S_StdPeriph_Driver/src/stm8s_uart1.c: 287: assert_param(IS_UART1_IRDAMODE_OK(UART1_IrDAMode));
      000388 6B 01            [ 1]  924 	ld	(0x01, sp), a
      00038A 26 10            [ 1]  925 	jrne	00107$
      00038C 0D 01            [ 1]  926 	tnz	(0x01, sp)
      00038E 27 0C            [ 1]  927 	jreq	00107$
      000390 4B 1F            [ 1]  928 	push	#0x1f
                           000392   929 	Sstm8s_uart1$UART1_IrDAConfig$256 ==.
      000392 4B 01            [ 1]  930 	push	#0x01
                           000394   931 	Sstm8s_uart1$UART1_IrDAConfig$257 ==.
      000394 5F               [ 1]  932 	clrw	x
      000395 89               [ 2]  933 	pushw	x
                           000396   934 	Sstm8s_uart1$UART1_IrDAConfig$258 ==.
      000396 AEr00r00         [ 2]  935 	ldw	x, #(___str_0+0)
      000399 CDr00r00         [ 4]  936 	call	_assert_failed
                           00039C   937 	Sstm8s_uart1$UART1_IrDAConfig$259 ==.
      00039C                        938 00107$:
                           00039C   939 	Sstm8s_uart1$UART1_IrDAConfig$260 ==.
                                    940 ;	./STM8S_StdPeriph_Lib/Libraries/STM8S_StdPeriph_Driver/src/stm8s_uart1.c: 291: UART1->CR5 |= UART1_CR5_IRLP;
      00039C C6 52 38         [ 1]  941 	ld	a, 0x5238
                           00039F   942 	Sstm8s_uart1$UART1_IrDAConfig$261 ==.
                                    943 ;	./STM8S_StdPeriph_Lib/Libraries/STM8S_StdPeriph_Driver/src/stm8s_uart1.c: 289: if (UART1_IrDAMode != UART1_IRDAMODE_NORMAL)
      00039F 0D 01            [ 1]  944 	tnz	(0x01, sp)
      0003A1 27 07            [ 1]  945 	jreq	00102$
                           0003A3   946 	Sstm8s_uart1$UART1_IrDAConfig$262 ==.
                           0003A3   947 	Sstm8s_uart1$UART1_IrDAConfig$263 ==.
                                    948 ;	./STM8S_StdPeriph_Lib/Libraries/STM8S_StdPeriph_Driver/src/stm8s_uart1.c: 291: UART1->CR5 |= UART1_CR5_IRLP;
      0003A3 AA 04            [ 1]  949 	or	a, #0x04
      0003A5 C7 52 38         [ 1]  950 	ld	0x5238, a
                           0003A8   951 	Sstm8s_uart1$UART1_IrDAConfig$264 ==.
      0003A8 20 05            [ 2]  952 	jra	00104$
      0003AA                        953 00102$:
                           0003AA   954 	Sstm8s_uart1$UART1_IrDAConfig$265 ==.
                           0003AA   955 	Sstm8s_uart1$UART1_IrDAConfig$266 ==.
                                    956 ;	./STM8S_StdPeriph_Lib/Libraries/STM8S_StdPeriph_Driver/src/stm8s_uart1.c: 295: UART1->CR5 &= ((uint8_t)~UART1_CR5_IRLP);
      0003AA A4 FB            [ 1]  957 	and	a, #0xfb
      0003AC C7 52 38         [ 1]  958 	ld	0x5238, a
                           0003AF   959 	Sstm8s_uart1$UART1_IrDAConfig$267 ==.
      0003AF                        960 00104$:
                           0003AF   961 	Sstm8s_uart1$UART1_IrDAConfig$268 ==.
                                    962 ;	./STM8S_StdPeriph_Lib/Libraries/STM8S_StdPeriph_Driver/src/stm8s_uart1.c: 297: }
      0003AF 84               [ 1]  963 	pop	a
                           0003B0   964 	Sstm8s_uart1$UART1_IrDAConfig$269 ==.
                           0003B0   965 	Sstm8s_uart1$UART1_IrDAConfig$270 ==.
                           0003B0   966 	XG$UART1_IrDAConfig$0$0 ==.
      0003B0 81               [ 4]  967 	ret
                           0003B1   968 	Sstm8s_uart1$UART1_IrDAConfig$271 ==.
                           0003B1   969 	Sstm8s_uart1$UART1_IrDACmd$272 ==.
                                    970 ;	./STM8S_StdPeriph_Lib/Libraries/STM8S_StdPeriph_Driver/src/stm8s_uart1.c: 305: void UART1_IrDACmd(FunctionalState NewState)
                                    971 ;	-----------------------------------------
                                    972 ;	 function UART1_IrDACmd
                                    973 ;	-----------------------------------------
      0003B1                        974 _UART1_IrDACmd:
                           0003B1   975 	Sstm8s_uart1$UART1_IrDACmd$273 ==.
      0003B1 88               [ 1]  976 	push	a
                           0003B2   977 	Sstm8s_uart1$UART1_IrDACmd$274 ==.
                           0003B2   978 	Sstm8s_uart1$UART1_IrDACmd$275 ==.
                                    979 ;	./STM8S_StdPeriph_Lib/Libraries/STM8S_StdPeriph_Driver/src/stm8s_uart1.c: 308: assert_param(IS_FUNCTIONALSTATE_OK(NewState));
      0003B2 6B 01            [ 1]  980 	ld	(0x01, sp), a
      0003B4 27 10            [ 1]  981 	jreq	00107$
      0003B6 0D 01            [ 1]  982 	tnz	(0x01, sp)
      0003B8 26 0C            [ 1]  983 	jrne	00107$
      0003BA 4B 34            [ 1]  984 	push	#0x34
                           0003BC   985 	Sstm8s_uart1$UART1_IrDACmd$276 ==.
      0003BC 4B 01            [ 1]  986 	push	#0x01
                           0003BE   987 	Sstm8s_uart1$UART1_IrDACmd$277 ==.
      0003BE 5F               [ 1]  988 	clrw	x
      0003BF 89               [ 2]  989 	pushw	x
                           0003C0   990 	Sstm8s_uart1$UART1_IrDACmd$278 ==.
      0003C0 AEr00r00         [ 2]  991 	ldw	x, #(___str_0+0)
      0003C3 CDr00r00         [ 4]  992 	call	_assert_failed
                           0003C6   993 	Sstm8s_uart1$UART1_IrDACmd$279 ==.
      0003C6                        994 00107$:
                           0003C6   995 	Sstm8s_uart1$UART1_IrDACmd$280 ==.
                                    996 ;	./STM8S_StdPeriph_Lib/Libraries/STM8S_StdPeriph_Driver/src/stm8s_uart1.c: 313: UART1->CR5 |= UART1_CR5_IREN;
      0003C6 C6 52 38         [ 1]  997 	ld	a, 0x5238
                           0003C9   998 	Sstm8s_uart1$UART1_IrDACmd$281 ==.
                                    999 ;	./STM8S_StdPeriph_Lib/Libraries/STM8S_StdPeriph_Driver/src/stm8s_uart1.c: 310: if (NewState != DISABLE)
      0003C9 0D 01            [ 1] 1000 	tnz	(0x01, sp)
      0003CB 27 07            [ 1] 1001 	jreq	00102$
                           0003CD  1002 	Sstm8s_uart1$UART1_IrDACmd$282 ==.
                           0003CD  1003 	Sstm8s_uart1$UART1_IrDACmd$283 ==.
                                   1004 ;	./STM8S_StdPeriph_Lib/Libraries/STM8S_StdPeriph_Driver/src/stm8s_uart1.c: 313: UART1->CR5 |= UART1_CR5_IREN;
      0003CD AA 02            [ 1] 1005 	or	a, #0x02
      0003CF C7 52 38         [ 1] 1006 	ld	0x5238, a
                           0003D2  1007 	Sstm8s_uart1$UART1_IrDACmd$284 ==.
      0003D2 20 05            [ 2] 1008 	jra	00104$
      0003D4                       1009 00102$:
                           0003D4  1010 	Sstm8s_uart1$UART1_IrDACmd$285 ==.
                           0003D4  1011 	Sstm8s_uart1$UART1_IrDACmd$286 ==.
                                   1012 ;	./STM8S_StdPeriph_Lib/Libraries/STM8S_StdPeriph_Driver/src/stm8s_uart1.c: 318: UART1->CR5 &= ((uint8_t)~UART1_CR5_IREN);
      0003D4 A4 FD            [ 1] 1013 	and	a, #0xfd
      0003D6 C7 52 38         [ 1] 1014 	ld	0x5238, a
                           0003D9  1015 	Sstm8s_uart1$UART1_IrDACmd$287 ==.
      0003D9                       1016 00104$:
                           0003D9  1017 	Sstm8s_uart1$UART1_IrDACmd$288 ==.
                                   1018 ;	./STM8S_StdPeriph_Lib/Libraries/STM8S_StdPeriph_Driver/src/stm8s_uart1.c: 320: }
      0003D9 84               [ 1] 1019 	pop	a
                           0003DA  1020 	Sstm8s_uart1$UART1_IrDACmd$289 ==.
                           0003DA  1021 	Sstm8s_uart1$UART1_IrDACmd$290 ==.
                           0003DA  1022 	XG$UART1_IrDACmd$0$0 ==.
      0003DA 81               [ 4] 1023 	ret
                           0003DB  1024 	Sstm8s_uart1$UART1_IrDACmd$291 ==.
                           0003DB  1025 	Sstm8s_uart1$UART1_LINBreakDetectionConfig$292 ==.
                                   1026 ;	./STM8S_StdPeriph_Lib/Libraries/STM8S_StdPeriph_Driver/src/stm8s_uart1.c: 329: void UART1_LINBreakDetectionConfig(UART1_LINBreakDetectionLength_TypeDef UART1_LINBreakDetectionLength)
                                   1027 ;	-----------------------------------------
                                   1028 ;	 function UART1_LINBreakDetectionConfig
                                   1029 ;	-----------------------------------------
      0003DB                       1030 _UART1_LINBreakDetectionConfig:
                           0003DB  1031 	Sstm8s_uart1$UART1_LINBreakDetectionConfig$293 ==.
      0003DB 88               [ 1] 1032 	push	a
                           0003DC  1033 	Sstm8s_uart1$UART1_LINBreakDetectionConfig$294 ==.
                           0003DC  1034 	Sstm8s_uart1$UART1_LINBreakDetectionConfig$295 ==.
                                   1035 ;	./STM8S_StdPeriph_Lib/Libraries/STM8S_StdPeriph_Driver/src/stm8s_uart1.c: 331: assert_param(IS_UART1_LINBREAKDETECTIONLENGTH_OK(UART1_LINBreakDetectionLength));
      0003DC 6B 01            [ 1] 1036 	ld	(0x01, sp), a
      0003DE 27 10            [ 1] 1037 	jreq	00107$
      0003E0 0D 01            [ 1] 1038 	tnz	(0x01, sp)
      0003E2 26 0C            [ 1] 1039 	jrne	00107$
      0003E4 4B 4B            [ 1] 1040 	push	#0x4b
                           0003E6  1041 	Sstm8s_uart1$UART1_LINBreakDetectionConfig$296 ==.
      0003E6 4B 01            [ 1] 1042 	push	#0x01
                           0003E8  1043 	Sstm8s_uart1$UART1_LINBreakDetectionConfig$297 ==.
      0003E8 5F               [ 1] 1044 	clrw	x
      0003E9 89               [ 2] 1045 	pushw	x
                           0003EA  1046 	Sstm8s_uart1$UART1_LINBreakDetectionConfig$298 ==.
      0003EA AEr00r00         [ 2] 1047 	ldw	x, #(___str_0+0)
      0003ED CDr00r00         [ 4] 1048 	call	_assert_failed
                           0003F0  1049 	Sstm8s_uart1$UART1_LINBreakDetectionConfig$299 ==.
      0003F0                       1050 00107$:
                           0003F0  1051 	Sstm8s_uart1$UART1_LINBreakDetectionConfig$300 ==.
                                   1052 ;	./STM8S_StdPeriph_Lib/Libraries/STM8S_StdPeriph_Driver/src/stm8s_uart1.c: 335: UART1->CR4 |= UART1_CR4_LBDL;
      0003F0 C6 52 37         [ 1] 1053 	ld	a, 0x5237
                           0003F3  1054 	Sstm8s_uart1$UART1_LINBreakDetectionConfig$301 ==.
                                   1055 ;	./STM8S_StdPeriph_Lib/Libraries/STM8S_StdPeriph_Driver/src/stm8s_uart1.c: 333: if (UART1_LINBreakDetectionLength != UART1_LINBREAKDETECTIONLENGTH_10BITS)
      0003F3 0D 01            [ 1] 1056 	tnz	(0x01, sp)
      0003F5 27 07            [ 1] 1057 	jreq	00102$
                           0003F7  1058 	Sstm8s_uart1$UART1_LINBreakDetectionConfig$302 ==.
                           0003F7  1059 	Sstm8s_uart1$UART1_LINBreakDetectionConfig$303 ==.
                                   1060 ;	./STM8S_StdPeriph_Lib/Libraries/STM8S_StdPeriph_Driver/src/stm8s_uart1.c: 335: UART1->CR4 |= UART1_CR4_LBDL;
      0003F7 AA 20            [ 1] 1061 	or	a, #0x20
      0003F9 C7 52 37         [ 1] 1062 	ld	0x5237, a
                           0003FC  1063 	Sstm8s_uart1$UART1_LINBreakDetectionConfig$304 ==.
      0003FC 20 05            [ 2] 1064 	jra	00104$
      0003FE                       1065 00102$:
                           0003FE  1066 	Sstm8s_uart1$UART1_LINBreakDetectionConfig$305 ==.
                           0003FE  1067 	Sstm8s_uart1$UART1_LINBreakDetectionConfig$306 ==.
                                   1068 ;	./STM8S_StdPeriph_Lib/Libraries/STM8S_StdPeriph_Driver/src/stm8s_uart1.c: 339: UART1->CR4 &= ((uint8_t)~UART1_CR4_LBDL);
      0003FE A4 DF            [ 1] 1069 	and	a, #0xdf
      000400 C7 52 37         [ 1] 1070 	ld	0x5237, a
                           000403  1071 	Sstm8s_uart1$UART1_LINBreakDetectionConfig$307 ==.
      000403                       1072 00104$:
                           000403  1073 	Sstm8s_uart1$UART1_LINBreakDetectionConfig$308 ==.
                                   1074 ;	./STM8S_StdPeriph_Lib/Libraries/STM8S_StdPeriph_Driver/src/stm8s_uart1.c: 341: }
      000403 84               [ 1] 1075 	pop	a
                           000404  1076 	Sstm8s_uart1$UART1_LINBreakDetectionConfig$309 ==.
                           000404  1077 	Sstm8s_uart1$UART1_LINBreakDetectionConfig$310 ==.
                           000404  1078 	XG$UART1_LINBreakDetectionConfig$0$0 ==.
      000404 81               [ 4] 1079 	ret
                           000405  1080 	Sstm8s_uart1$UART1_LINBreakDetectionConfig$311 ==.
                           000405  1081 	Sstm8s_uart1$UART1_LINCmd$312 ==.
                                   1082 ;	./STM8S_StdPeriph_Lib/Libraries/STM8S_StdPeriph_Driver/src/stm8s_uart1.c: 349: void UART1_LINCmd(FunctionalState NewState)
                                   1083 ;	-----------------------------------------
                                   1084 ;	 function UART1_LINCmd
                                   1085 ;	-----------------------------------------
      000405                       1086 _UART1_LINCmd:
                           000405  1087 	Sstm8s_uart1$UART1_LINCmd$313 ==.
      000405 88               [ 1] 1088 	push	a
                           000406  1089 	Sstm8s_uart1$UART1_LINCmd$314 ==.
                           000406  1090 	Sstm8s_uart1$UART1_LINCmd$315 ==.
                                   1091 ;	./STM8S_StdPeriph_Lib/Libraries/STM8S_StdPeriph_Driver/src/stm8s_uart1.c: 351: assert_param(IS_FUNCTIONALSTATE_OK(NewState));
      000406 6B 01            [ 1] 1092 	ld	(0x01, sp), a
      000408 27 10            [ 1] 1093 	jreq	00107$
      00040A 0D 01            [ 1] 1094 	tnz	(0x01, sp)
      00040C 26 0C            [ 1] 1095 	jrne	00107$
      00040E 4B 5F            [ 1] 1096 	push	#0x5f
                           000410  1097 	Sstm8s_uart1$UART1_LINCmd$316 ==.
      000410 4B 01            [ 1] 1098 	push	#0x01
                           000412  1099 	Sstm8s_uart1$UART1_LINCmd$317 ==.
      000412 5F               [ 1] 1100 	clrw	x
      000413 89               [ 2] 1101 	pushw	x
                           000414  1102 	Sstm8s_uart1$UART1_LINCmd$318 ==.
      000414 AEr00r00         [ 2] 1103 	ldw	x, #(___str_0+0)
      000417 CDr00r00         [ 4] 1104 	call	_assert_failed
                           00041A  1105 	Sstm8s_uart1$UART1_LINCmd$319 ==.
      00041A                       1106 00107$:
                           00041A  1107 	Sstm8s_uart1$UART1_LINCmd$320 ==.
                                   1108 ;	./STM8S_StdPeriph_Lib/Libraries/STM8S_StdPeriph_Driver/src/stm8s_uart1.c: 356: UART1->CR3 |= UART1_CR3_LINEN;
      00041A C6 52 36         [ 1] 1109 	ld	a, 0x5236
                           00041D  1110 	Sstm8s_uart1$UART1_LINCmd$321 ==.
                                   1111 ;	./STM8S_StdPeriph_Lib/Libraries/STM8S_StdPeriph_Driver/src/stm8s_uart1.c: 353: if (NewState != DISABLE)
      00041D 0D 01            [ 1] 1112 	tnz	(0x01, sp)
      00041F 27 07            [ 1] 1113 	jreq	00102$
                           000421  1114 	Sstm8s_uart1$UART1_LINCmd$322 ==.
                           000421  1115 	Sstm8s_uart1$UART1_LINCmd$323 ==.
                                   1116 ;	./STM8S_StdPeriph_Lib/Libraries/STM8S_StdPeriph_Driver/src/stm8s_uart1.c: 356: UART1->CR3 |= UART1_CR3_LINEN;
      000421 AA 40            [ 1] 1117 	or	a, #0x40
      000423 C7 52 36         [ 1] 1118 	ld	0x5236, a
                           000426  1119 	Sstm8s_uart1$UART1_LINCmd$324 ==.
      000426 20 05            [ 2] 1120 	jra	00104$
      000428                       1121 00102$:
                           000428  1122 	Sstm8s_uart1$UART1_LINCmd$325 ==.
                           000428  1123 	Sstm8s_uart1$UART1_LINCmd$326 ==.
                                   1124 ;	./STM8S_StdPeriph_Lib/Libraries/STM8S_StdPeriph_Driver/src/stm8s_uart1.c: 361: UART1->CR3 &= ((uint8_t)~UART1_CR3_LINEN);
      000428 A4 BF            [ 1] 1125 	and	a, #0xbf
      00042A C7 52 36         [ 1] 1126 	ld	0x5236, a
                           00042D  1127 	Sstm8s_uart1$UART1_LINCmd$327 ==.
      00042D                       1128 00104$:
                           00042D  1129 	Sstm8s_uart1$UART1_LINCmd$328 ==.
                                   1130 ;	./STM8S_StdPeriph_Lib/Libraries/STM8S_StdPeriph_Driver/src/stm8s_uart1.c: 363: }
      00042D 84               [ 1] 1131 	pop	a
                           00042E  1132 	Sstm8s_uart1$UART1_LINCmd$329 ==.
                           00042E  1133 	Sstm8s_uart1$UART1_LINCmd$330 ==.
                           00042E  1134 	XG$UART1_LINCmd$0$0 ==.
      00042E 81               [ 4] 1135 	ret
                           00042F  1136 	Sstm8s_uart1$UART1_LINCmd$331 ==.
                           00042F  1137 	Sstm8s_uart1$UART1_SmartCardCmd$332 ==.
                                   1138 ;	./STM8S_StdPeriph_Lib/Libraries/STM8S_StdPeriph_Driver/src/stm8s_uart1.c: 371: void UART1_SmartCardCmd(FunctionalState NewState)
                                   1139 ;	-----------------------------------------
                                   1140 ;	 function UART1_SmartCardCmd
                                   1141 ;	-----------------------------------------
      00042F                       1142 _UART1_SmartCardCmd:
                           00042F  1143 	Sstm8s_uart1$UART1_SmartCardCmd$333 ==.
      00042F 88               [ 1] 1144 	push	a
                           000430  1145 	Sstm8s_uart1$UART1_SmartCardCmd$334 ==.
                           000430  1146 	Sstm8s_uart1$UART1_SmartCardCmd$335 ==.
                                   1147 ;	./STM8S_StdPeriph_Lib/Libraries/STM8S_StdPeriph_Driver/src/stm8s_uart1.c: 373: assert_param(IS_FUNCTIONALSTATE_OK(NewState));
      000430 6B 01            [ 1] 1148 	ld	(0x01, sp), a
      000432 27 10            [ 1] 1149 	jreq	00107$
      000434 0D 01            [ 1] 1150 	tnz	(0x01, sp)
      000436 26 0C            [ 1] 1151 	jrne	00107$
      000438 4B 75            [ 1] 1152 	push	#0x75
                           00043A  1153 	Sstm8s_uart1$UART1_SmartCardCmd$336 ==.
      00043A 4B 01            [ 1] 1154 	push	#0x01
                           00043C  1155 	Sstm8s_uart1$UART1_SmartCardCmd$337 ==.
      00043C 5F               [ 1] 1156 	clrw	x
      00043D 89               [ 2] 1157 	pushw	x
                           00043E  1158 	Sstm8s_uart1$UART1_SmartCardCmd$338 ==.
      00043E AEr00r00         [ 2] 1159 	ldw	x, #(___str_0+0)
      000441 CDr00r00         [ 4] 1160 	call	_assert_failed
                           000444  1161 	Sstm8s_uart1$UART1_SmartCardCmd$339 ==.
      000444                       1162 00107$:
                           000444  1163 	Sstm8s_uart1$UART1_SmartCardCmd$340 ==.
                                   1164 ;	./STM8S_StdPeriph_Lib/Libraries/STM8S_StdPeriph_Driver/src/stm8s_uart1.c: 378: UART1->CR5 |= UART1_CR5_SCEN;
      000444 C6 52 38         [ 1] 1165 	ld	a, 0x5238
                           000447  1166 	Sstm8s_uart1$UART1_SmartCardCmd$341 ==.
                                   1167 ;	./STM8S_StdPeriph_Lib/Libraries/STM8S_StdPeriph_Driver/src/stm8s_uart1.c: 375: if (NewState != DISABLE)
      000447 0D 01            [ 1] 1168 	tnz	(0x01, sp)
      000449 27 07            [ 1] 1169 	jreq	00102$
                           00044B  1170 	Sstm8s_uart1$UART1_SmartCardCmd$342 ==.
                           00044B  1171 	Sstm8s_uart1$UART1_SmartCardCmd$343 ==.
                                   1172 ;	./STM8S_StdPeriph_Lib/Libraries/STM8S_StdPeriph_Driver/src/stm8s_uart1.c: 378: UART1->CR5 |= UART1_CR5_SCEN;
      00044B AA 20            [ 1] 1173 	or	a, #0x20
      00044D C7 52 38         [ 1] 1174 	ld	0x5238, a
                           000450  1175 	Sstm8s_uart1$UART1_SmartCardCmd$344 ==.
      000450 20 05            [ 2] 1176 	jra	00104$
      000452                       1177 00102$:
                           000452  1178 	Sstm8s_uart1$UART1_SmartCardCmd$345 ==.
                           000452  1179 	Sstm8s_uart1$UART1_SmartCardCmd$346 ==.
                                   1180 ;	./STM8S_StdPeriph_Lib/Libraries/STM8S_StdPeriph_Driver/src/stm8s_uart1.c: 383: UART1->CR5 &= ((uint8_t)(~UART1_CR5_SCEN));
      000452 A4 DF            [ 1] 1181 	and	a, #0xdf
      000454 C7 52 38         [ 1] 1182 	ld	0x5238, a
                           000457  1183 	Sstm8s_uart1$UART1_SmartCardCmd$347 ==.
      000457                       1184 00104$:
                           000457  1185 	Sstm8s_uart1$UART1_SmartCardCmd$348 ==.
                                   1186 ;	./STM8S_StdPeriph_Lib/Libraries/STM8S_StdPeriph_Driver/src/stm8s_uart1.c: 385: }
      000457 84               [ 1] 1187 	pop	a
                           000458  1188 	Sstm8s_uart1$UART1_SmartCardCmd$349 ==.
                           000458  1189 	Sstm8s_uart1$UART1_SmartCardCmd$350 ==.
                           000458  1190 	XG$UART1_SmartCardCmd$0$0 ==.
      000458 81               [ 4] 1191 	ret
                           000459  1192 	Sstm8s_uart1$UART1_SmartCardCmd$351 ==.
                           000459  1193 	Sstm8s_uart1$UART1_SmartCardNACKCmd$352 ==.
                                   1194 ;	./STM8S_StdPeriph_Lib/Libraries/STM8S_StdPeriph_Driver/src/stm8s_uart1.c: 394: void UART1_SmartCardNACKCmd(FunctionalState NewState)
                                   1195 ;	-----------------------------------------
                                   1196 ;	 function UART1_SmartCardNACKCmd
                                   1197 ;	-----------------------------------------
      000459                       1198 _UART1_SmartCardNACKCmd:
                           000459  1199 	Sstm8s_uart1$UART1_SmartCardNACKCmd$353 ==.
      000459 88               [ 1] 1200 	push	a
                           00045A  1201 	Sstm8s_uart1$UART1_SmartCardNACKCmd$354 ==.
                           00045A  1202 	Sstm8s_uart1$UART1_SmartCardNACKCmd$355 ==.
                                   1203 ;	./STM8S_StdPeriph_Lib/Libraries/STM8S_StdPeriph_Driver/src/stm8s_uart1.c: 396: assert_param(IS_FUNCTIONALSTATE_OK(NewState));
      00045A 6B 01            [ 1] 1204 	ld	(0x01, sp), a
      00045C 27 10            [ 1] 1205 	jreq	00107$
      00045E 0D 01            [ 1] 1206 	tnz	(0x01, sp)
      000460 26 0C            [ 1] 1207 	jrne	00107$
      000462 4B 8C            [ 1] 1208 	push	#0x8c
                           000464  1209 	Sstm8s_uart1$UART1_SmartCardNACKCmd$356 ==.
      000464 4B 01            [ 1] 1210 	push	#0x01
                           000466  1211 	Sstm8s_uart1$UART1_SmartCardNACKCmd$357 ==.
      000466 5F               [ 1] 1212 	clrw	x
      000467 89               [ 2] 1213 	pushw	x
                           000468  1214 	Sstm8s_uart1$UART1_SmartCardNACKCmd$358 ==.
      000468 AEr00r00         [ 2] 1215 	ldw	x, #(___str_0+0)
      00046B CDr00r00         [ 4] 1216 	call	_assert_failed
                           00046E  1217 	Sstm8s_uart1$UART1_SmartCardNACKCmd$359 ==.
      00046E                       1218 00107$:
                           00046E  1219 	Sstm8s_uart1$UART1_SmartCardNACKCmd$360 ==.
                                   1220 ;	./STM8S_StdPeriph_Lib/Libraries/STM8S_StdPeriph_Driver/src/stm8s_uart1.c: 401: UART1->CR5 |= UART1_CR5_NACK;
      00046E C6 52 38         [ 1] 1221 	ld	a, 0x5238
                           000471  1222 	Sstm8s_uart1$UART1_SmartCardNACKCmd$361 ==.
                                   1223 ;	./STM8S_StdPeriph_Lib/Libraries/STM8S_StdPeriph_Driver/src/stm8s_uart1.c: 398: if (NewState != DISABLE)
      000471 0D 01            [ 1] 1224 	tnz	(0x01, sp)
      000473 27 07            [ 1] 1225 	jreq	00102$
                           000475  1226 	Sstm8s_uart1$UART1_SmartCardNACKCmd$362 ==.
                           000475  1227 	Sstm8s_uart1$UART1_SmartCardNACKCmd$363 ==.
                                   1228 ;	./STM8S_StdPeriph_Lib/Libraries/STM8S_StdPeriph_Driver/src/stm8s_uart1.c: 401: UART1->CR5 |= UART1_CR5_NACK;
      000475 AA 10            [ 1] 1229 	or	a, #0x10
      000477 C7 52 38         [ 1] 1230 	ld	0x5238, a
                           00047A  1231 	Sstm8s_uart1$UART1_SmartCardNACKCmd$364 ==.
      00047A 20 05            [ 2] 1232 	jra	00104$
      00047C                       1233 00102$:
                           00047C  1234 	Sstm8s_uart1$UART1_SmartCardNACKCmd$365 ==.
                           00047C  1235 	Sstm8s_uart1$UART1_SmartCardNACKCmd$366 ==.
                                   1236 ;	./STM8S_StdPeriph_Lib/Libraries/STM8S_StdPeriph_Driver/src/stm8s_uart1.c: 406: UART1->CR5 &= ((uint8_t)~(UART1_CR5_NACK));
      00047C A4 EF            [ 1] 1237 	and	a, #0xef
      00047E C7 52 38         [ 1] 1238 	ld	0x5238, a
                           000481  1239 	Sstm8s_uart1$UART1_SmartCardNACKCmd$367 ==.
      000481                       1240 00104$:
                           000481  1241 	Sstm8s_uart1$UART1_SmartCardNACKCmd$368 ==.
                                   1242 ;	./STM8S_StdPeriph_Lib/Libraries/STM8S_StdPeriph_Driver/src/stm8s_uart1.c: 408: }
      000481 84               [ 1] 1243 	pop	a
                           000482  1244 	Sstm8s_uart1$UART1_SmartCardNACKCmd$369 ==.
                           000482  1245 	Sstm8s_uart1$UART1_SmartCardNACKCmd$370 ==.
                           000482  1246 	XG$UART1_SmartCardNACKCmd$0$0 ==.
      000482 81               [ 4] 1247 	ret
                           000483  1248 	Sstm8s_uart1$UART1_SmartCardNACKCmd$371 ==.
                           000483  1249 	Sstm8s_uart1$UART1_WakeUpConfig$372 ==.
                                   1250 ;	./STM8S_StdPeriph_Lib/Libraries/STM8S_StdPeriph_Driver/src/stm8s_uart1.c: 416: void UART1_WakeUpConfig(UART1_WakeUp_TypeDef UART1_WakeUp)
                                   1251 ;	-----------------------------------------
                                   1252 ;	 function UART1_WakeUpConfig
                                   1253 ;	-----------------------------------------
      000483                       1254 _UART1_WakeUpConfig:
                           000483  1255 	Sstm8s_uart1$UART1_WakeUpConfig$373 ==.
      000483 88               [ 1] 1256 	push	a
                           000484  1257 	Sstm8s_uart1$UART1_WakeUpConfig$374 ==.
                           000484  1258 	Sstm8s_uart1$UART1_WakeUpConfig$375 ==.
                                   1259 ;	./STM8S_StdPeriph_Lib/Libraries/STM8S_StdPeriph_Driver/src/stm8s_uart1.c: 418: assert_param(IS_UART1_WAKEUP_OK(UART1_WakeUp));
      000484 6B 01            [ 1] 1260 	ld	(0x01, sp), a
      000486 27 12            [ 1] 1261 	jreq	00104$
      000488 7B 01            [ 1] 1262 	ld	a, (0x01, sp)
      00048A A1 08            [ 1] 1263 	cp	a, #0x08
      00048C 27 0C            [ 1] 1264 	jreq	00104$
                           00048E  1265 	Sstm8s_uart1$UART1_WakeUpConfig$376 ==.
      00048E 4B A2            [ 1] 1266 	push	#0xa2
                           000490  1267 	Sstm8s_uart1$UART1_WakeUpConfig$377 ==.
      000490 4B 01            [ 1] 1268 	push	#0x01
                           000492  1269 	Sstm8s_uart1$UART1_WakeUpConfig$378 ==.
      000492 5F               [ 1] 1270 	clrw	x
      000493 89               [ 2] 1271 	pushw	x
                           000494  1272 	Sstm8s_uart1$UART1_WakeUpConfig$379 ==.
      000494 AEr00r00         [ 2] 1273 	ldw	x, #(___str_0+0)
      000497 CDr00r00         [ 4] 1274 	call	_assert_failed
                           00049A  1275 	Sstm8s_uart1$UART1_WakeUpConfig$380 ==.
      00049A                       1276 00104$:
                           00049A  1277 	Sstm8s_uart1$UART1_WakeUpConfig$381 ==.
                                   1278 ;	./STM8S_StdPeriph_Lib/Libraries/STM8S_StdPeriph_Driver/src/stm8s_uart1.c: 420: UART1->CR1 &= ((uint8_t)~UART1_CR1_WAKE);
      00049A 72 17 52 34      [ 1] 1279 	bres	0x5234, #3
                           00049E  1280 	Sstm8s_uart1$UART1_WakeUpConfig$382 ==.
                                   1281 ;	./STM8S_StdPeriph_Lib/Libraries/STM8S_StdPeriph_Driver/src/stm8s_uart1.c: 421: UART1->CR1 |= (uint8_t)UART1_WakeUp;
      00049E C6 52 34         [ 1] 1282 	ld	a, 0x5234
      0004A1 1A 01            [ 1] 1283 	or	a, (0x01, sp)
      0004A3 C7 52 34         [ 1] 1284 	ld	0x5234, a
                           0004A6  1285 	Sstm8s_uart1$UART1_WakeUpConfig$383 ==.
                                   1286 ;	./STM8S_StdPeriph_Lib/Libraries/STM8S_StdPeriph_Driver/src/stm8s_uart1.c: 422: }
      0004A6 84               [ 1] 1287 	pop	a
                           0004A7  1288 	Sstm8s_uart1$UART1_WakeUpConfig$384 ==.
                           0004A7  1289 	Sstm8s_uart1$UART1_WakeUpConfig$385 ==.
                           0004A7  1290 	XG$UART1_WakeUpConfig$0$0 ==.
      0004A7 81               [ 4] 1291 	ret
                           0004A8  1292 	Sstm8s_uart1$UART1_WakeUpConfig$386 ==.
                           0004A8  1293 	Sstm8s_uart1$UART1_ReceiverWakeUpCmd$387 ==.
                                   1294 ;	./STM8S_StdPeriph_Lib/Libraries/STM8S_StdPeriph_Driver/src/stm8s_uart1.c: 430: void UART1_ReceiverWakeUpCmd(FunctionalState NewState)
                                   1295 ;	-----------------------------------------
                                   1296 ;	 function UART1_ReceiverWakeUpCmd
                                   1297 ;	-----------------------------------------
      0004A8                       1298 _UART1_ReceiverWakeUpCmd:
                           0004A8  1299 	Sstm8s_uart1$UART1_ReceiverWakeUpCmd$388 ==.
      0004A8 88               [ 1] 1300 	push	a
                           0004A9  1301 	Sstm8s_uart1$UART1_ReceiverWakeUpCmd$389 ==.
                           0004A9  1302 	Sstm8s_uart1$UART1_ReceiverWakeUpCmd$390 ==.
                                   1303 ;	./STM8S_StdPeriph_Lib/Libraries/STM8S_StdPeriph_Driver/src/stm8s_uart1.c: 432: assert_param(IS_FUNCTIONALSTATE_OK(NewState));
      0004A9 6B 01            [ 1] 1304 	ld	(0x01, sp), a
      0004AB 27 10            [ 1] 1305 	jreq	00107$
      0004AD 0D 01            [ 1] 1306 	tnz	(0x01, sp)
      0004AF 26 0C            [ 1] 1307 	jrne	00107$
      0004B1 4B B0            [ 1] 1308 	push	#0xb0
                           0004B3  1309 	Sstm8s_uart1$UART1_ReceiverWakeUpCmd$391 ==.
      0004B3 4B 01            [ 1] 1310 	push	#0x01
                           0004B5  1311 	Sstm8s_uart1$UART1_ReceiverWakeUpCmd$392 ==.
      0004B5 5F               [ 1] 1312 	clrw	x
      0004B6 89               [ 2] 1313 	pushw	x
                           0004B7  1314 	Sstm8s_uart1$UART1_ReceiverWakeUpCmd$393 ==.
      0004B7 AEr00r00         [ 2] 1315 	ldw	x, #(___str_0+0)
      0004BA CDr00r00         [ 4] 1316 	call	_assert_failed
                           0004BD  1317 	Sstm8s_uart1$UART1_ReceiverWakeUpCmd$394 ==.
      0004BD                       1318 00107$:
                           0004BD  1319 	Sstm8s_uart1$UART1_ReceiverWakeUpCmd$395 ==.
                                   1320 ;	./STM8S_StdPeriph_Lib/Libraries/STM8S_StdPeriph_Driver/src/stm8s_uart1.c: 437: UART1->CR2 |= UART1_CR2_RWU;
      0004BD C6 52 35         [ 1] 1321 	ld	a, 0x5235
                           0004C0  1322 	Sstm8s_uart1$UART1_ReceiverWakeUpCmd$396 ==.
                                   1323 ;	./STM8S_StdPeriph_Lib/Libraries/STM8S_StdPeriph_Driver/src/stm8s_uart1.c: 434: if (NewState != DISABLE)
      0004C0 0D 01            [ 1] 1324 	tnz	(0x01, sp)
      0004C2 27 07            [ 1] 1325 	jreq	00102$
                           0004C4  1326 	Sstm8s_uart1$UART1_ReceiverWakeUpCmd$397 ==.
                           0004C4  1327 	Sstm8s_uart1$UART1_ReceiverWakeUpCmd$398 ==.
                                   1328 ;	./STM8S_StdPeriph_Lib/Libraries/STM8S_StdPeriph_Driver/src/stm8s_uart1.c: 437: UART1->CR2 |= UART1_CR2_RWU;
      0004C4 AA 02            [ 1] 1329 	or	a, #0x02
      0004C6 C7 52 35         [ 1] 1330 	ld	0x5235, a
                           0004C9  1331 	Sstm8s_uart1$UART1_ReceiverWakeUpCmd$399 ==.
      0004C9 20 05            [ 2] 1332 	jra	00104$
      0004CB                       1333 00102$:
                           0004CB  1334 	Sstm8s_uart1$UART1_ReceiverWakeUpCmd$400 ==.
                           0004CB  1335 	Sstm8s_uart1$UART1_ReceiverWakeUpCmd$401 ==.
                                   1336 ;	./STM8S_StdPeriph_Lib/Libraries/STM8S_StdPeriph_Driver/src/stm8s_uart1.c: 442: UART1->CR2 &= ((uint8_t)~UART1_CR2_RWU);
      0004CB A4 FD            [ 1] 1337 	and	a, #0xfd
      0004CD C7 52 35         [ 1] 1338 	ld	0x5235, a
                           0004D0  1339 	Sstm8s_uart1$UART1_ReceiverWakeUpCmd$402 ==.
      0004D0                       1340 00104$:
                           0004D0  1341 	Sstm8s_uart1$UART1_ReceiverWakeUpCmd$403 ==.
                                   1342 ;	./STM8S_StdPeriph_Lib/Libraries/STM8S_StdPeriph_Driver/src/stm8s_uart1.c: 444: }
      0004D0 84               [ 1] 1343 	pop	a
                           0004D1  1344 	Sstm8s_uart1$UART1_ReceiverWakeUpCmd$404 ==.
                           0004D1  1345 	Sstm8s_uart1$UART1_ReceiverWakeUpCmd$405 ==.
                           0004D1  1346 	XG$UART1_ReceiverWakeUpCmd$0$0 ==.
      0004D1 81               [ 4] 1347 	ret
                           0004D2  1348 	Sstm8s_uart1$UART1_ReceiverWakeUpCmd$406 ==.
                           0004D2  1349 	Sstm8s_uart1$UART1_ReceiveData8$407 ==.
                                   1350 ;	./STM8S_StdPeriph_Lib/Libraries/STM8S_StdPeriph_Driver/src/stm8s_uart1.c: 451: uint8_t UART1_ReceiveData8(void)
                                   1351 ;	-----------------------------------------
                                   1352 ;	 function UART1_ReceiveData8
                                   1353 ;	-----------------------------------------
      0004D2                       1354 _UART1_ReceiveData8:
                           0004D2  1355 	Sstm8s_uart1$UART1_ReceiveData8$408 ==.
                           0004D2  1356 	Sstm8s_uart1$UART1_ReceiveData8$409 ==.
                                   1357 ;	./STM8S_StdPeriph_Lib/Libraries/STM8S_StdPeriph_Driver/src/stm8s_uart1.c: 453: return ((uint8_t)UART1->DR);
      0004D2 C6 52 31         [ 1] 1358 	ld	a, 0x5231
                           0004D5  1359 	Sstm8s_uart1$UART1_ReceiveData8$410 ==.
                                   1360 ;	./STM8S_StdPeriph_Lib/Libraries/STM8S_StdPeriph_Driver/src/stm8s_uart1.c: 454: }
                           0004D5  1361 	Sstm8s_uart1$UART1_ReceiveData8$411 ==.
                           0004D5  1362 	XG$UART1_ReceiveData8$0$0 ==.
      0004D5 81               [ 4] 1363 	ret
                           0004D6  1364 	Sstm8s_uart1$UART1_ReceiveData8$412 ==.
                           0004D6  1365 	Sstm8s_uart1$UART1_ReceiveData9$413 ==.
                                   1366 ;	./STM8S_StdPeriph_Lib/Libraries/STM8S_StdPeriph_Driver/src/stm8s_uart1.c: 461: uint16_t UART1_ReceiveData9(void)
                                   1367 ;	-----------------------------------------
                                   1368 ;	 function UART1_ReceiveData9
                                   1369 ;	-----------------------------------------
      0004D6                       1370 _UART1_ReceiveData9:
                           0004D6  1371 	Sstm8s_uart1$UART1_ReceiveData9$414 ==.
      0004D6 89               [ 2] 1372 	pushw	x
                           0004D7  1373 	Sstm8s_uart1$UART1_ReceiveData9$415 ==.
                           0004D7  1374 	Sstm8s_uart1$UART1_ReceiveData9$416 ==.
                                   1375 ;	./STM8S_StdPeriph_Lib/Libraries/STM8S_StdPeriph_Driver/src/stm8s_uart1.c: 465: temp = (uint16_t)(((uint16_t)( (uint16_t)UART1->CR1 & (uint16_t)UART1_CR1_R8)) << 1);
      0004D7 C6 52 34         [ 1] 1376 	ld	a, 0x5234
      0004DA A4 80            [ 1] 1377 	and	a, #0x80
      0004DC 97               [ 1] 1378 	ld	xl, a
      0004DD 4F               [ 1] 1379 	clr	a
      0004DE 95               [ 1] 1380 	ld	xh, a
      0004DF 58               [ 2] 1381 	sllw	x
      0004E0 1F 01            [ 2] 1382 	ldw	(0x01, sp), x
                           0004E2  1383 	Sstm8s_uart1$UART1_ReceiveData9$417 ==.
                                   1384 ;	./STM8S_StdPeriph_Lib/Libraries/STM8S_StdPeriph_Driver/src/stm8s_uart1.c: 466: return (uint16_t)( (((uint16_t) UART1->DR) | temp ) & ((uint16_t)0x01FF));
      0004E2 C6 52 31         [ 1] 1385 	ld	a, 0x5231
      0004E5 5F               [ 1] 1386 	clrw	x
      0004E6 1A 02            [ 1] 1387 	or	a, (0x02, sp)
      0004E8 02               [ 1] 1388 	rlwa	x
      0004E9 1A 01            [ 1] 1389 	or	a, (0x01, sp)
      0004EB A4 01            [ 1] 1390 	and	a, #0x01
      0004ED 95               [ 1] 1391 	ld	xh, a
                           0004EE  1392 	Sstm8s_uart1$UART1_ReceiveData9$418 ==.
                                   1393 ;	./STM8S_StdPeriph_Lib/Libraries/STM8S_StdPeriph_Driver/src/stm8s_uart1.c: 467: }
      0004EE 5B 02            [ 2] 1394 	addw	sp, #2
                           0004F0  1395 	Sstm8s_uart1$UART1_ReceiveData9$419 ==.
                           0004F0  1396 	Sstm8s_uart1$UART1_ReceiveData9$420 ==.
                           0004F0  1397 	XG$UART1_ReceiveData9$0$0 ==.
      0004F0 81               [ 4] 1398 	ret
                           0004F1  1399 	Sstm8s_uart1$UART1_ReceiveData9$421 ==.
                           0004F1  1400 	Sstm8s_uart1$UART1_SendData8$422 ==.
                                   1401 ;	./STM8S_StdPeriph_Lib/Libraries/STM8S_StdPeriph_Driver/src/stm8s_uart1.c: 474: void UART1_SendData8(uint8_t Data)
                                   1402 ;	-----------------------------------------
                                   1403 ;	 function UART1_SendData8
                                   1404 ;	-----------------------------------------
      0004F1                       1405 _UART1_SendData8:
                           0004F1  1406 	Sstm8s_uart1$UART1_SendData8$423 ==.
                           0004F1  1407 	Sstm8s_uart1$UART1_SendData8$424 ==.
                                   1408 ;	./STM8S_StdPeriph_Lib/Libraries/STM8S_StdPeriph_Driver/src/stm8s_uart1.c: 477: UART1->DR = Data;
      0004F1 C7 52 31         [ 1] 1409 	ld	0x5231, a
                           0004F4  1410 	Sstm8s_uart1$UART1_SendData8$425 ==.
                                   1411 ;	./STM8S_StdPeriph_Lib/Libraries/STM8S_StdPeriph_Driver/src/stm8s_uart1.c: 478: }
                           0004F4  1412 	Sstm8s_uart1$UART1_SendData8$426 ==.
                           0004F4  1413 	XG$UART1_SendData8$0$0 ==.
      0004F4 81               [ 4] 1414 	ret
                           0004F5  1415 	Sstm8s_uart1$UART1_SendData8$427 ==.
                           0004F5  1416 	Sstm8s_uart1$UART1_SendData9$428 ==.
                                   1417 ;	./STM8S_StdPeriph_Lib/Libraries/STM8S_StdPeriph_Driver/src/stm8s_uart1.c: 486: void UART1_SendData9(uint16_t Data)
                                   1418 ;	-----------------------------------------
                                   1419 ;	 function UART1_SendData9
                                   1420 ;	-----------------------------------------
      0004F5                       1421 _UART1_SendData9:
                           0004F5  1422 	Sstm8s_uart1$UART1_SendData9$429 ==.
      0004F5 88               [ 1] 1423 	push	a
                           0004F6  1424 	Sstm8s_uart1$UART1_SendData9$430 ==.
      0004F6 51               [ 1] 1425 	exgw	x, y
                           0004F7  1426 	Sstm8s_uart1$UART1_SendData9$431 ==.
                                   1427 ;	./STM8S_StdPeriph_Lib/Libraries/STM8S_StdPeriph_Driver/src/stm8s_uart1.c: 489: UART1->CR1 &= ((uint8_t)~UART1_CR1_T8);
      0004F7 72 1D 52 34      [ 1] 1428 	bres	0x5234, #6
                           0004FB  1429 	Sstm8s_uart1$UART1_SendData9$432 ==.
                                   1430 ;	./STM8S_StdPeriph_Lib/Libraries/STM8S_StdPeriph_Driver/src/stm8s_uart1.c: 491: UART1->CR1 |= (uint8_t)(((uint8_t)(Data >> 2)) & UART1_CR1_T8);
      0004FB C6 52 34         [ 1] 1431 	ld	a, 0x5234
      0004FE 6B 01            [ 1] 1432 	ld	(0x01, sp), a
      000500 93               [ 1] 1433 	ldw	x, y
      000501 54               [ 2] 1434 	srlw	x
      000502 54               [ 2] 1435 	srlw	x
      000503 9F               [ 1] 1436 	ld	a, xl
      000504 A4 40            [ 1] 1437 	and	a, #0x40
      000506 1A 01            [ 1] 1438 	or	a, (0x01, sp)
      000508 C7 52 34         [ 1] 1439 	ld	0x5234, a
                           00050B  1440 	Sstm8s_uart1$UART1_SendData9$433 ==.
                                   1441 ;	./STM8S_StdPeriph_Lib/Libraries/STM8S_StdPeriph_Driver/src/stm8s_uart1.c: 493: UART1->DR   = (uint8_t)(Data);
      00050B 90 9F            [ 1] 1442 	ld	a, yl
      00050D C7 52 31         [ 1] 1443 	ld	0x5231, a
                           000510  1444 	Sstm8s_uart1$UART1_SendData9$434 ==.
                                   1445 ;	./STM8S_StdPeriph_Lib/Libraries/STM8S_StdPeriph_Driver/src/stm8s_uart1.c: 494: }
      000510 84               [ 1] 1446 	pop	a
                           000511  1447 	Sstm8s_uart1$UART1_SendData9$435 ==.
                           000511  1448 	Sstm8s_uart1$UART1_SendData9$436 ==.
                           000511  1449 	XG$UART1_SendData9$0$0 ==.
      000511 81               [ 4] 1450 	ret
                           000512  1451 	Sstm8s_uart1$UART1_SendData9$437 ==.
                           000512  1452 	Sstm8s_uart1$UART1_SendBreak$438 ==.
                                   1453 ;	./STM8S_StdPeriph_Lib/Libraries/STM8S_StdPeriph_Driver/src/stm8s_uart1.c: 501: void UART1_SendBreak(void)
                                   1454 ;	-----------------------------------------
                                   1455 ;	 function UART1_SendBreak
                                   1456 ;	-----------------------------------------
      000512                       1457 _UART1_SendBreak:
                           000512  1458 	Sstm8s_uart1$UART1_SendBreak$439 ==.
                           000512  1459 	Sstm8s_uart1$UART1_SendBreak$440 ==.
                                   1460 ;	./STM8S_StdPeriph_Lib/Libraries/STM8S_StdPeriph_Driver/src/stm8s_uart1.c: 503: UART1->CR2 |= UART1_CR2_SBK;
      000512 72 10 52 35      [ 1] 1461 	bset	0x5235, #0
                           000516  1462 	Sstm8s_uart1$UART1_SendBreak$441 ==.
                                   1463 ;	./STM8S_StdPeriph_Lib/Libraries/STM8S_StdPeriph_Driver/src/stm8s_uart1.c: 504: }
                           000516  1464 	Sstm8s_uart1$UART1_SendBreak$442 ==.
                           000516  1465 	XG$UART1_SendBreak$0$0 ==.
      000516 81               [ 4] 1466 	ret
                           000517  1467 	Sstm8s_uart1$UART1_SendBreak$443 ==.
                           000517  1468 	Sstm8s_uart1$UART1_SetAddress$444 ==.
                                   1469 ;	./STM8S_StdPeriph_Lib/Libraries/STM8S_StdPeriph_Driver/src/stm8s_uart1.c: 511: void UART1_SetAddress(uint8_t UART1_Address)
                                   1470 ;	-----------------------------------------
                                   1471 ;	 function UART1_SetAddress
                                   1472 ;	-----------------------------------------
      000517                       1473 _UART1_SetAddress:
                           000517  1474 	Sstm8s_uart1$UART1_SetAddress$445 ==.
      000517 88               [ 1] 1475 	push	a
                           000518  1476 	Sstm8s_uart1$UART1_SetAddress$446 ==.
                           000518  1477 	Sstm8s_uart1$UART1_SetAddress$447 ==.
                                   1478 ;	./STM8S_StdPeriph_Lib/Libraries/STM8S_StdPeriph_Driver/src/stm8s_uart1.c: 514: assert_param(IS_UART1_ADDRESS_OK(UART1_Address));
      000518 6B 01            [ 1] 1479 	ld	(0x01, sp), a
      00051A A1 10            [ 1] 1480 	cp	a, #0x10
      00051C 25 0C            [ 1] 1481 	jrc	00104$
      00051E 4B 02            [ 1] 1482 	push	#0x02
                           000520  1483 	Sstm8s_uart1$UART1_SetAddress$448 ==.
      000520 4B 02            [ 1] 1484 	push	#0x02
                           000522  1485 	Sstm8s_uart1$UART1_SetAddress$449 ==.
      000522 5F               [ 1] 1486 	clrw	x
      000523 89               [ 2] 1487 	pushw	x
                           000524  1488 	Sstm8s_uart1$UART1_SetAddress$450 ==.
      000524 AEr00r00         [ 2] 1489 	ldw	x, #(___str_0+0)
      000527 CDr00r00         [ 4] 1490 	call	_assert_failed
                           00052A  1491 	Sstm8s_uart1$UART1_SetAddress$451 ==.
      00052A                       1492 00104$:
                           00052A  1493 	Sstm8s_uart1$UART1_SetAddress$452 ==.
                                   1494 ;	./STM8S_StdPeriph_Lib/Libraries/STM8S_StdPeriph_Driver/src/stm8s_uart1.c: 517: UART1->CR4 &= ((uint8_t)~UART1_CR4_ADD);
      00052A C6 52 37         [ 1] 1495 	ld	a, 0x5237
      00052D A4 F0            [ 1] 1496 	and	a, #0xf0
      00052F C7 52 37         [ 1] 1497 	ld	0x5237, a
                           000532  1498 	Sstm8s_uart1$UART1_SetAddress$453 ==.
                                   1499 ;	./STM8S_StdPeriph_Lib/Libraries/STM8S_StdPeriph_Driver/src/stm8s_uart1.c: 519: UART1->CR4 |= UART1_Address;
      000532 C6 52 37         [ 1] 1500 	ld	a, 0x5237
      000535 1A 01            [ 1] 1501 	or	a, (0x01, sp)
      000537 C7 52 37         [ 1] 1502 	ld	0x5237, a
                           00053A  1503 	Sstm8s_uart1$UART1_SetAddress$454 ==.
                                   1504 ;	./STM8S_StdPeriph_Lib/Libraries/STM8S_StdPeriph_Driver/src/stm8s_uart1.c: 520: }
      00053A 84               [ 1] 1505 	pop	a
                           00053B  1506 	Sstm8s_uart1$UART1_SetAddress$455 ==.
                           00053B  1507 	Sstm8s_uart1$UART1_SetAddress$456 ==.
                           00053B  1508 	XG$UART1_SetAddress$0$0 ==.
      00053B 81               [ 4] 1509 	ret
                           00053C  1510 	Sstm8s_uart1$UART1_SetAddress$457 ==.
                           00053C  1511 	Sstm8s_uart1$UART1_SetGuardTime$458 ==.
                                   1512 ;	./STM8S_StdPeriph_Lib/Libraries/STM8S_StdPeriph_Driver/src/stm8s_uart1.c: 528: void UART1_SetGuardTime(uint8_t UART1_GuardTime)
                                   1513 ;	-----------------------------------------
                                   1514 ;	 function UART1_SetGuardTime
                                   1515 ;	-----------------------------------------
      00053C                       1516 _UART1_SetGuardTime:
                           00053C  1517 	Sstm8s_uart1$UART1_SetGuardTime$459 ==.
                           00053C  1518 	Sstm8s_uart1$UART1_SetGuardTime$460 ==.
                                   1519 ;	./STM8S_StdPeriph_Lib/Libraries/STM8S_StdPeriph_Driver/src/stm8s_uart1.c: 531: UART1->GTR = UART1_GuardTime;
      00053C C7 52 39         [ 1] 1520 	ld	0x5239, a
                           00053F  1521 	Sstm8s_uart1$UART1_SetGuardTime$461 ==.
                                   1522 ;	./STM8S_StdPeriph_Lib/Libraries/STM8S_StdPeriph_Driver/src/stm8s_uart1.c: 532: }
                           00053F  1523 	Sstm8s_uart1$UART1_SetGuardTime$462 ==.
                           00053F  1524 	XG$UART1_SetGuardTime$0$0 ==.
      00053F 81               [ 4] 1525 	ret
                           000540  1526 	Sstm8s_uart1$UART1_SetGuardTime$463 ==.
                           000540  1527 	Sstm8s_uart1$UART1_SetPrescaler$464 ==.
                                   1528 ;	./STM8S_StdPeriph_Lib/Libraries/STM8S_StdPeriph_Driver/src/stm8s_uart1.c: 556: void UART1_SetPrescaler(uint8_t UART1_Prescaler)
                                   1529 ;	-----------------------------------------
                                   1530 ;	 function UART1_SetPrescaler
                                   1531 ;	-----------------------------------------
      000540                       1532 _UART1_SetPrescaler:
                           000540  1533 	Sstm8s_uart1$UART1_SetPrescaler$465 ==.
                           000540  1534 	Sstm8s_uart1$UART1_SetPrescaler$466 ==.
                                   1535 ;	./STM8S_StdPeriph_Lib/Libraries/STM8S_StdPeriph_Driver/src/stm8s_uart1.c: 559: UART1->PSCR = UART1_Prescaler;
      000540 C7 52 3A         [ 1] 1536 	ld	0x523a, a
                           000543  1537 	Sstm8s_uart1$UART1_SetPrescaler$467 ==.
                                   1538 ;	./STM8S_StdPeriph_Lib/Libraries/STM8S_StdPeriph_Driver/src/stm8s_uart1.c: 560: }
                           000543  1539 	Sstm8s_uart1$UART1_SetPrescaler$468 ==.
                           000543  1540 	XG$UART1_SetPrescaler$0$0 ==.
      000543 81               [ 4] 1541 	ret
                           000544  1542 	Sstm8s_uart1$UART1_SetPrescaler$469 ==.
                           000544  1543 	Sstm8s_uart1$UART1_GetFlagStatus$470 ==.
                                   1544 ;	./STM8S_StdPeriph_Lib/Libraries/STM8S_StdPeriph_Driver/src/stm8s_uart1.c: 568: FlagStatus UART1_GetFlagStatus(UART1_Flag_TypeDef UART1_FLAG)
                                   1545 ;	-----------------------------------------
                                   1546 ;	 function UART1_GetFlagStatus
                                   1547 ;	-----------------------------------------
      000544                       1548 _UART1_GetFlagStatus:
                           000544  1549 	Sstm8s_uart1$UART1_GetFlagStatus$471 ==.
      000544 89               [ 2] 1550 	pushw	x
                           000545  1551 	Sstm8s_uart1$UART1_GetFlagStatus$472 ==.
                           000545  1552 	Sstm8s_uart1$UART1_GetFlagStatus$473 ==.
                                   1553 ;	./STM8S_StdPeriph_Lib/Libraries/STM8S_StdPeriph_Driver/src/stm8s_uart1.c: 573: assert_param(IS_UART1_FLAG_OK(UART1_FLAG));
      000545 90 93            [ 1] 1554 	ldw	y, x
      000547 A3 01 01         [ 2] 1555 	cpw	x, #0x0101
      00054A 26 05            [ 1] 1556 	jrne	00223$
      00054C A6 01            [ 1] 1557 	ld	a, #0x01
      00054E 6B 01            [ 1] 1558 	ld	(0x01, sp), a
      000550 C5                    1559 	.byte 0xc5
      000551                       1560 00223$:
      000551 0F 01            [ 1] 1561 	clr	(0x01, sp)
      000553                       1562 00224$:
                           000553  1563 	Sstm8s_uart1$UART1_GetFlagStatus$474 ==.
      000553 A3 02 10         [ 2] 1564 	cpw	x, #0x0210
      000556 26 03            [ 1] 1565 	jrne	00226$
      000558 A6 01            [ 1] 1566 	ld	a, #0x01
      00055A 21                    1567 	.byte 0x21
      00055B                       1568 00226$:
      00055B 4F               [ 1] 1569 	clr	a
      00055C                       1570 00227$:
                           00055C  1571 	Sstm8s_uart1$UART1_GetFlagStatus$475 ==.
      00055C A3 00 80         [ 2] 1572 	cpw	x, #0x0080
      00055F 27 3A            [ 1] 1573 	jreq	00119$
                           000561  1574 	Sstm8s_uart1$UART1_GetFlagStatus$476 ==.
      000561 A3 00 40         [ 2] 1575 	cpw	x, #0x0040
      000564 27 35            [ 1] 1576 	jreq	00119$
                           000566  1577 	Sstm8s_uart1$UART1_GetFlagStatus$477 ==.
      000566 A3 00 20         [ 2] 1578 	cpw	x, #0x0020
      000569 27 30            [ 1] 1579 	jreq	00119$
                           00056B  1580 	Sstm8s_uart1$UART1_GetFlagStatus$478 ==.
      00056B A3 00 10         [ 2] 1581 	cpw	x, #0x0010
      00056E 27 2B            [ 1] 1582 	jreq	00119$
                           000570  1583 	Sstm8s_uart1$UART1_GetFlagStatus$479 ==.
      000570 A3 00 08         [ 2] 1584 	cpw	x, #0x0008
      000573 27 26            [ 1] 1585 	jreq	00119$
                           000575  1586 	Sstm8s_uart1$UART1_GetFlagStatus$480 ==.
      000575 A3 00 04         [ 2] 1587 	cpw	x, #0x0004
      000578 27 21            [ 1] 1588 	jreq	00119$
                           00057A  1589 	Sstm8s_uart1$UART1_GetFlagStatus$481 ==.
      00057A A3 00 02         [ 2] 1590 	cpw	x, #0x0002
      00057D 27 1C            [ 1] 1591 	jreq	00119$
                           00057F  1592 	Sstm8s_uart1$UART1_GetFlagStatus$482 ==.
      00057F 5A               [ 2] 1593 	decw	x
      000580 27 19            [ 1] 1594 	jreq	00119$
                           000582  1595 	Sstm8s_uart1$UART1_GetFlagStatus$483 ==.
      000582 0D 01            [ 1] 1596 	tnz	(0x01, sp)
      000584 26 15            [ 1] 1597 	jrne	00119$
      000586 4D               [ 1] 1598 	tnz	a
      000587 26 12            [ 1] 1599 	jrne	00119$
      000589 88               [ 1] 1600 	push	a
                           00058A  1601 	Sstm8s_uart1$UART1_GetFlagStatus$484 ==.
      00058A 90 89            [ 2] 1602 	pushw	y
                           00058C  1603 	Sstm8s_uart1$UART1_GetFlagStatus$485 ==.
      00058C 4B 3D            [ 1] 1604 	push	#0x3d
                           00058E  1605 	Sstm8s_uart1$UART1_GetFlagStatus$486 ==.
      00058E 4B 02            [ 1] 1606 	push	#0x02
                           000590  1607 	Sstm8s_uart1$UART1_GetFlagStatus$487 ==.
      000590 5F               [ 1] 1608 	clrw	x
      000591 89               [ 2] 1609 	pushw	x
                           000592  1610 	Sstm8s_uart1$UART1_GetFlagStatus$488 ==.
      000592 AEr00r00         [ 2] 1611 	ldw	x, #(___str_0+0)
      000595 CDr00r00         [ 4] 1612 	call	_assert_failed
                           000598  1613 	Sstm8s_uart1$UART1_GetFlagStatus$489 ==.
      000598 90 85            [ 2] 1614 	popw	y
                           00059A  1615 	Sstm8s_uart1$UART1_GetFlagStatus$490 ==.
      00059A 84               [ 1] 1616 	pop	a
                           00059B  1617 	Sstm8s_uart1$UART1_GetFlagStatus$491 ==.
      00059B                       1618 00119$:
                           00059B  1619 	Sstm8s_uart1$UART1_GetFlagStatus$492 ==.
                                   1620 ;	./STM8S_StdPeriph_Lib/Libraries/STM8S_StdPeriph_Driver/src/stm8s_uart1.c: 579: if ((UART1->CR4 & (uint8_t)UART1_FLAG) != (uint8_t)0x00)
      00059B 61               [ 1] 1621 	exg	a, yl
      00059C 6B 02            [ 1] 1622 	ld	(0x02, sp), a
      00059E 61               [ 1] 1623 	exg	a, yl
                           00059F  1624 	Sstm8s_uart1$UART1_GetFlagStatus$493 ==.
                                   1625 ;	./STM8S_StdPeriph_Lib/Libraries/STM8S_StdPeriph_Driver/src/stm8s_uart1.c: 577: if (UART1_FLAG == UART1_FLAG_LBDF)
      00059F 4D               [ 1] 1626 	tnz	a
      0005A0 27 0E            [ 1] 1627 	jreq	00114$
                           0005A2  1628 	Sstm8s_uart1$UART1_GetFlagStatus$494 ==.
                           0005A2  1629 	Sstm8s_uart1$UART1_GetFlagStatus$495 ==.
                                   1630 ;	./STM8S_StdPeriph_Lib/Libraries/STM8S_StdPeriph_Driver/src/stm8s_uart1.c: 579: if ((UART1->CR4 & (uint8_t)UART1_FLAG) != (uint8_t)0x00)
      0005A2 C6 52 37         [ 1] 1631 	ld	a, 0x5237
      0005A5 14 02            [ 1] 1632 	and	a, (0x02, sp)
      0005A7 27 04            [ 1] 1633 	jreq	00102$
                           0005A9  1634 	Sstm8s_uart1$UART1_GetFlagStatus$496 ==.
                           0005A9  1635 	Sstm8s_uart1$UART1_GetFlagStatus$497 ==.
                                   1636 ;	./STM8S_StdPeriph_Lib/Libraries/STM8S_StdPeriph_Driver/src/stm8s_uart1.c: 582: status = SET;
      0005A9 A6 01            [ 1] 1637 	ld	a, #0x01
                           0005AB  1638 	Sstm8s_uart1$UART1_GetFlagStatus$498 ==.
      0005AB 20 20            [ 2] 1639 	jra	00115$
      0005AD                       1640 00102$:
                           0005AD  1641 	Sstm8s_uart1$UART1_GetFlagStatus$499 ==.
                           0005AD  1642 	Sstm8s_uart1$UART1_GetFlagStatus$500 ==.
                                   1643 ;	./STM8S_StdPeriph_Lib/Libraries/STM8S_StdPeriph_Driver/src/stm8s_uart1.c: 587: status = RESET;
      0005AD 4F               [ 1] 1644 	clr	a
                           0005AE  1645 	Sstm8s_uart1$UART1_GetFlagStatus$501 ==.
      0005AE 20 1D            [ 2] 1646 	jra	00115$
      0005B0                       1647 00114$:
                           0005B0  1648 	Sstm8s_uart1$UART1_GetFlagStatus$502 ==.
                                   1649 ;	./STM8S_StdPeriph_Lib/Libraries/STM8S_StdPeriph_Driver/src/stm8s_uart1.c: 590: else if (UART1_FLAG == UART1_FLAG_SBK)
      0005B0 7B 01            [ 1] 1650 	ld	a, (0x01, sp)
      0005B2 27 0E            [ 1] 1651 	jreq	00111$
                           0005B4  1652 	Sstm8s_uart1$UART1_GetFlagStatus$503 ==.
                           0005B4  1653 	Sstm8s_uart1$UART1_GetFlagStatus$504 ==.
                                   1654 ;	./STM8S_StdPeriph_Lib/Libraries/STM8S_StdPeriph_Driver/src/stm8s_uart1.c: 592: if ((UART1->CR2 & (uint8_t)UART1_FLAG) != (uint8_t)0x00)
      0005B4 C6 52 35         [ 1] 1655 	ld	a, 0x5235
      0005B7 14 02            [ 1] 1656 	and	a, (0x02, sp)
      0005B9 27 04            [ 1] 1657 	jreq	00105$
                           0005BB  1658 	Sstm8s_uart1$UART1_GetFlagStatus$505 ==.
                           0005BB  1659 	Sstm8s_uart1$UART1_GetFlagStatus$506 ==.
                                   1660 ;	./STM8S_StdPeriph_Lib/Libraries/STM8S_StdPeriph_Driver/src/stm8s_uart1.c: 595: status = SET;
      0005BB A6 01            [ 1] 1661 	ld	a, #0x01
                           0005BD  1662 	Sstm8s_uart1$UART1_GetFlagStatus$507 ==.
      0005BD 20 0E            [ 2] 1663 	jra	00115$
      0005BF                       1664 00105$:
                           0005BF  1665 	Sstm8s_uart1$UART1_GetFlagStatus$508 ==.
                           0005BF  1666 	Sstm8s_uart1$UART1_GetFlagStatus$509 ==.
                                   1667 ;	./STM8S_StdPeriph_Lib/Libraries/STM8S_StdPeriph_Driver/src/stm8s_uart1.c: 600: status = RESET;
      0005BF 4F               [ 1] 1668 	clr	a
                           0005C0  1669 	Sstm8s_uart1$UART1_GetFlagStatus$510 ==.
      0005C0 20 0B            [ 2] 1670 	jra	00115$
      0005C2                       1671 00111$:
                           0005C2  1672 	Sstm8s_uart1$UART1_GetFlagStatus$511 ==.
                           0005C2  1673 	Sstm8s_uart1$UART1_GetFlagStatus$512 ==.
                                   1674 ;	./STM8S_StdPeriph_Lib/Libraries/STM8S_StdPeriph_Driver/src/stm8s_uart1.c: 605: if ((UART1->SR & (uint8_t)UART1_FLAG) != (uint8_t)0x00)
      0005C2 C6 52 30         [ 1] 1675 	ld	a, 0x5230
      0005C5 14 02            [ 1] 1676 	and	a, (0x02, sp)
      0005C7 27 03            [ 1] 1677 	jreq	00108$
                           0005C9  1678 	Sstm8s_uart1$UART1_GetFlagStatus$513 ==.
                           0005C9  1679 	Sstm8s_uart1$UART1_GetFlagStatus$514 ==.
                                   1680 ;	./STM8S_StdPeriph_Lib/Libraries/STM8S_StdPeriph_Driver/src/stm8s_uart1.c: 608: status = SET;
      0005C9 A6 01            [ 1] 1681 	ld	a, #0x01
                           0005CB  1682 	Sstm8s_uart1$UART1_GetFlagStatus$515 ==.
                           0005CB  1683 	Sstm8s_uart1$UART1_GetFlagStatus$516 ==.
                           0005CB  1684 	Sstm8s_uart1$UART1_GetFlagStatus$517 ==.
                                   1685 ;	./STM8S_StdPeriph_Lib/Libraries/STM8S_StdPeriph_Driver/src/stm8s_uart1.c: 613: status = RESET;
                           0005CB  1686 	Sstm8s_uart1$UART1_GetFlagStatus$518 ==.
      0005CB 21                    1687 	.byte 0x21
      0005CC                       1688 00108$:
      0005CC 4F               [ 1] 1689 	clr	a
      0005CD                       1690 00115$:
                           0005CD  1691 	Sstm8s_uart1$UART1_GetFlagStatus$519 ==.
                                   1692 ;	./STM8S_StdPeriph_Lib/Libraries/STM8S_StdPeriph_Driver/src/stm8s_uart1.c: 617: return status;
                           0005CD  1693 	Sstm8s_uart1$UART1_GetFlagStatus$520 ==.
                                   1694 ;	./STM8S_StdPeriph_Lib/Libraries/STM8S_StdPeriph_Driver/src/stm8s_uart1.c: 618: }
      0005CD 85               [ 2] 1695 	popw	x
                           0005CE  1696 	Sstm8s_uart1$UART1_GetFlagStatus$521 ==.
                           0005CE  1697 	Sstm8s_uart1$UART1_GetFlagStatus$522 ==.
                           0005CE  1698 	XG$UART1_GetFlagStatus$0$0 ==.
      0005CE 81               [ 4] 1699 	ret
                           0005CF  1700 	Sstm8s_uart1$UART1_GetFlagStatus$523 ==.
                           0005CF  1701 	Sstm8s_uart1$UART1_ClearFlag$524 ==.
                                   1702 ;	./STM8S_StdPeriph_Lib/Libraries/STM8S_StdPeriph_Driver/src/stm8s_uart1.c: 646: void UART1_ClearFlag(UART1_Flag_TypeDef UART1_FLAG)
                                   1703 ;	-----------------------------------------
                                   1704 ;	 function UART1_ClearFlag
                                   1705 ;	-----------------------------------------
      0005CF                       1706 _UART1_ClearFlag:
                           0005CF  1707 	Sstm8s_uart1$UART1_ClearFlag$525 ==.
                           0005CF  1708 	Sstm8s_uart1$UART1_ClearFlag$526 ==.
                                   1709 ;	./STM8S_StdPeriph_Lib/Libraries/STM8S_StdPeriph_Driver/src/stm8s_uart1.c: 648: assert_param(IS_UART1_CLEAR_FLAG_OK(UART1_FLAG));
      0005CF A3 00 20         [ 2] 1710 	cpw	x, #0x0020
      0005D2 26 03            [ 1] 1711 	jrne	00127$
      0005D4 A6 01            [ 1] 1712 	ld	a, #0x01
      0005D6 21                    1713 	.byte 0x21
      0005D7                       1714 00127$:
      0005D7 4F               [ 1] 1715 	clr	a
      0005D8                       1716 00128$:
                           0005D8  1717 	Sstm8s_uart1$UART1_ClearFlag$527 ==.
      0005D8 4D               [ 1] 1718 	tnz	a
      0005D9 26 13            [ 1] 1719 	jrne	00107$
      0005DB A3 02 10         [ 2] 1720 	cpw	x, #0x0210
      0005DE 27 0E            [ 1] 1721 	jreq	00107$
                           0005E0  1722 	Sstm8s_uart1$UART1_ClearFlag$528 ==.
      0005E0 88               [ 1] 1723 	push	a
                           0005E1  1724 	Sstm8s_uart1$UART1_ClearFlag$529 ==.
      0005E1 4B 88            [ 1] 1725 	push	#0x88
                           0005E3  1726 	Sstm8s_uart1$UART1_ClearFlag$530 ==.
      0005E3 4B 02            [ 1] 1727 	push	#0x02
                           0005E5  1728 	Sstm8s_uart1$UART1_ClearFlag$531 ==.
      0005E5 5F               [ 1] 1729 	clrw	x
      0005E6 89               [ 2] 1730 	pushw	x
                           0005E7  1731 	Sstm8s_uart1$UART1_ClearFlag$532 ==.
      0005E7 AEr00r00         [ 2] 1732 	ldw	x, #(___str_0+0)
      0005EA CDr00r00         [ 4] 1733 	call	_assert_failed
                           0005ED  1734 	Sstm8s_uart1$UART1_ClearFlag$533 ==.
      0005ED 84               [ 1] 1735 	pop	a
                           0005EE  1736 	Sstm8s_uart1$UART1_ClearFlag$534 ==.
      0005EE                       1737 00107$:
                           0005EE  1738 	Sstm8s_uart1$UART1_ClearFlag$535 ==.
                                   1739 ;	./STM8S_StdPeriph_Lib/Libraries/STM8S_StdPeriph_Driver/src/stm8s_uart1.c: 651: if (UART1_FLAG == UART1_FLAG_RXNE)
      0005EE 4D               [ 1] 1740 	tnz	a
      0005EF 27 05            [ 1] 1741 	jreq	00102$
                           0005F1  1742 	Sstm8s_uart1$UART1_ClearFlag$536 ==.
                           0005F1  1743 	Sstm8s_uart1$UART1_ClearFlag$537 ==.
                                   1744 ;	./STM8S_StdPeriph_Lib/Libraries/STM8S_StdPeriph_Driver/src/stm8s_uart1.c: 653: UART1->SR = (uint8_t)~(UART1_SR_RXNE);
      0005F1 35 DF 52 30      [ 1] 1745 	mov	0x5230+0, #0xdf
                           0005F5  1746 	Sstm8s_uart1$UART1_ClearFlag$538 ==.
      0005F5 81               [ 4] 1747 	ret
      0005F6                       1748 00102$:
                           0005F6  1749 	Sstm8s_uart1$UART1_ClearFlag$539 ==.
                           0005F6  1750 	Sstm8s_uart1$UART1_ClearFlag$540 ==.
                                   1751 ;	./STM8S_StdPeriph_Lib/Libraries/STM8S_StdPeriph_Driver/src/stm8s_uart1.c: 658: UART1->CR4 &= (uint8_t)~(UART1_CR4_LBDF);
      0005F6 72 19 52 37      [ 1] 1752 	bres	0x5237, #4
                           0005FA  1753 	Sstm8s_uart1$UART1_ClearFlag$541 ==.
                           0005FA  1754 	Sstm8s_uart1$UART1_ClearFlag$542 ==.
                                   1755 ;	./STM8S_StdPeriph_Lib/Libraries/STM8S_StdPeriph_Driver/src/stm8s_uart1.c: 660: }
                           0005FA  1756 	Sstm8s_uart1$UART1_ClearFlag$543 ==.
                           0005FA  1757 	XG$UART1_ClearFlag$0$0 ==.
      0005FA 81               [ 4] 1758 	ret
                           0005FB  1759 	Sstm8s_uart1$UART1_ClearFlag$544 ==.
                           0005FB  1760 	Sstm8s_uart1$UART1_GetITStatus$545 ==.
                                   1761 ;	./STM8S_StdPeriph_Lib/Libraries/STM8S_StdPeriph_Driver/src/stm8s_uart1.c: 675: ITStatus UART1_GetITStatus(UART1_IT_TypeDef UART1_IT)
                                   1762 ;	-----------------------------------------
                                   1763 ;	 function UART1_GetITStatus
                                   1764 ;	-----------------------------------------
      0005FB                       1765 _UART1_GetITStatus:
                           0005FB  1766 	Sstm8s_uart1$UART1_GetITStatus$546 ==.
      0005FB 52 04            [ 2] 1767 	sub	sp, #4
                           0005FD  1768 	Sstm8s_uart1$UART1_GetITStatus$547 ==.
                           0005FD  1769 	Sstm8s_uart1$UART1_GetITStatus$548 ==.
                                   1770 ;	./STM8S_StdPeriph_Lib/Libraries/STM8S_StdPeriph_Driver/src/stm8s_uart1.c: 684: assert_param(IS_UART1_GET_IT_OK(UART1_IT));
      0005FD 90 93            [ 1] 1771 	ldw	y, x
      0005FF A3 03 46         [ 2] 1772 	cpw	x, #0x0346
      000602 26 05            [ 1] 1773 	jrne	00217$
      000604 A6 01            [ 1] 1774 	ld	a, #0x01
      000606 6B 01            [ 1] 1775 	ld	(0x01, sp), a
      000608 C5                    1776 	.byte 0xc5
      000609                       1777 00217$:
      000609 0F 01            [ 1] 1778 	clr	(0x01, sp)
      00060B                       1779 00218$:
                           00060B  1780 	Sstm8s_uart1$UART1_GetITStatus$549 ==.
      00060B A3 01 00         [ 2] 1781 	cpw	x, #0x0100
      00060E 26 05            [ 1] 1782 	jrne	00220$
      000610 A6 01            [ 1] 1783 	ld	a, #0x01
      000612 6B 02            [ 1] 1784 	ld	(0x02, sp), a
      000614 C5                    1785 	.byte 0xc5
      000615                       1786 00220$:
      000615 0F 02            [ 1] 1787 	clr	(0x02, sp)
      000617                       1788 00221$:
                           000617  1789 	Sstm8s_uart1$UART1_GetITStatus$550 ==.
      000617 A3 02 77         [ 2] 1790 	cpw	x, #0x0277
      00061A 27 2C            [ 1] 1791 	jreq	00122$
                           00061C  1792 	Sstm8s_uart1$UART1_GetITStatus$551 ==.
      00061C A3 02 66         [ 2] 1793 	cpw	x, #0x0266
      00061F 27 27            [ 1] 1794 	jreq	00122$
                           000621  1795 	Sstm8s_uart1$UART1_GetITStatus$552 ==.
      000621 A3 02 55         [ 2] 1796 	cpw	x, #0x0255
      000624 27 22            [ 1] 1797 	jreq	00122$
                           000626  1798 	Sstm8s_uart1$UART1_GetITStatus$553 ==.
      000626 A3 02 44         [ 2] 1799 	cpw	x, #0x0244
      000629 27 1D            [ 1] 1800 	jreq	00122$
                           00062B  1801 	Sstm8s_uart1$UART1_GetITStatus$554 ==.
      00062B A3 02 35         [ 2] 1802 	cpw	x, #0x0235
      00062E 27 18            [ 1] 1803 	jreq	00122$
                           000630  1804 	Sstm8s_uart1$UART1_GetITStatus$555 ==.
      000630 0D 01            [ 1] 1805 	tnz	(0x01, sp)
      000632 26 14            [ 1] 1806 	jrne	00122$
      000634 0D 02            [ 1] 1807 	tnz	(0x02, sp)
      000636 26 10            [ 1] 1808 	jrne	00122$
      000638 90 89            [ 2] 1809 	pushw	y
                           00063A  1810 	Sstm8s_uart1$UART1_GetITStatus$556 ==.
      00063A 4B AC            [ 1] 1811 	push	#0xac
                           00063C  1812 	Sstm8s_uart1$UART1_GetITStatus$557 ==.
      00063C 4B 02            [ 1] 1813 	push	#0x02
                           00063E  1814 	Sstm8s_uart1$UART1_GetITStatus$558 ==.
      00063E 5F               [ 1] 1815 	clrw	x
      00063F 89               [ 2] 1816 	pushw	x
                           000640  1817 	Sstm8s_uart1$UART1_GetITStatus$559 ==.
      000640 AEr00r00         [ 2] 1818 	ldw	x, #(___str_0+0)
      000643 CDr00r00         [ 4] 1819 	call	_assert_failed
                           000646  1820 	Sstm8s_uart1$UART1_GetITStatus$560 ==.
      000646 90 85            [ 2] 1821 	popw	y
                           000648  1822 	Sstm8s_uart1$UART1_GetITStatus$561 ==.
      000648                       1823 00122$:
                           000648  1824 	Sstm8s_uart1$UART1_GetITStatus$562 ==.
                                   1825 ;	./STM8S_StdPeriph_Lib/Libraries/STM8S_StdPeriph_Driver/src/stm8s_uart1.c: 687: itpos = (uint8_t)((uint8_t)1 << (uint8_t)((uint8_t)UART1_IT & (uint8_t)0x0F));
      000648 93               [ 1] 1826 	ldw	x, y
      000649 9F               [ 1] 1827 	ld	a, xl
      00064A A4 0F            [ 1] 1828 	and	a, #0x0f
      00064C 88               [ 1] 1829 	push	a
                           00064D  1830 	Sstm8s_uart1$UART1_GetITStatus$563 ==.
      00064D A6 01            [ 1] 1831 	ld	a, #0x01
      00064F 6B 04            [ 1] 1832 	ld	(0x04, sp), a
      000651 84               [ 1] 1833 	pop	a
                           000652  1834 	Sstm8s_uart1$UART1_GetITStatus$564 ==.
      000652 4D               [ 1] 1835 	tnz	a
      000653 27 05            [ 1] 1836 	jreq	00240$
      000655                       1837 00239$:
      000655 08 03            [ 1] 1838 	sll	(0x03, sp)
      000657 4A               [ 1] 1839 	dec	a
      000658 26 FB            [ 1] 1840 	jrne	00239$
      00065A                       1841 00240$:
                           00065A  1842 	Sstm8s_uart1$UART1_GetITStatus$565 ==.
                                   1843 ;	./STM8S_StdPeriph_Lib/Libraries/STM8S_StdPeriph_Driver/src/stm8s_uart1.c: 689: itmask1 = (uint8_t)((uint8_t)UART1_IT >> (uint8_t)4);
      00065A 9F               [ 1] 1844 	ld	a, xl
      00065B 4E               [ 1] 1845 	swap	a
      00065C A4 0F            [ 1] 1846 	and	a, #0x0f
                           00065E  1847 	Sstm8s_uart1$UART1_GetITStatus$566 ==.
                                   1848 ;	./STM8S_StdPeriph_Lib/Libraries/STM8S_StdPeriph_Driver/src/stm8s_uart1.c: 691: itmask2 = (uint8_t)((uint8_t)1 << itmask1);
      00065E 88               [ 1] 1849 	push	a
                           00065F  1850 	Sstm8s_uart1$UART1_GetITStatus$567 ==.
      00065F A6 01            [ 1] 1851 	ld	a, #0x01
      000661 6B 05            [ 1] 1852 	ld	(0x05, sp), a
      000663 84               [ 1] 1853 	pop	a
                           000664  1854 	Sstm8s_uart1$UART1_GetITStatus$568 ==.
      000664 4D               [ 1] 1855 	tnz	a
      000665 27 05            [ 1] 1856 	jreq	00242$
      000667                       1857 00241$:
      000667 08 04            [ 1] 1858 	sll	(0x04, sp)
      000669 4A               [ 1] 1859 	dec	a
      00066A 26 FB            [ 1] 1860 	jrne	00241$
      00066C                       1861 00242$:
                           00066C  1862 	Sstm8s_uart1$UART1_GetITStatus$569 ==.
                                   1863 ;	./STM8S_StdPeriph_Lib/Libraries/STM8S_StdPeriph_Driver/src/stm8s_uart1.c: 695: if (UART1_IT == UART1_IT_PE)
      00066C 7B 02            [ 1] 1864 	ld	a, (0x02, sp)
      00066E 27 18            [ 1] 1865 	jreq	00117$
                           000670  1866 	Sstm8s_uart1$UART1_GetITStatus$570 ==.
                           000670  1867 	Sstm8s_uart1$UART1_GetITStatus$571 ==.
                                   1868 ;	./STM8S_StdPeriph_Lib/Libraries/STM8S_StdPeriph_Driver/src/stm8s_uart1.c: 698: enablestatus = (uint8_t)((uint8_t)UART1->CR1 & itmask2);
      000670 C6 52 34         [ 1] 1869 	ld	a, 0x5234
      000673 14 04            [ 1] 1870 	and	a, (0x04, sp)
      000675 97               [ 1] 1871 	ld	xl, a
                           000676  1872 	Sstm8s_uart1$UART1_GetITStatus$572 ==.
                                   1873 ;	./STM8S_StdPeriph_Lib/Libraries/STM8S_StdPeriph_Driver/src/stm8s_uart1.c: 701: if (((UART1->SR & itpos) != (uint8_t)0x00) && enablestatus)
      000676 C6 52 30         [ 1] 1874 	ld	a, 0x5230
      000679 14 03            [ 1] 1875 	and	a, (0x03, sp)
      00067B 27 08            [ 1] 1876 	jreq	00102$
      00067D 9F               [ 1] 1877 	ld	a, xl
      00067E 4D               [ 1] 1878 	tnz	a
      00067F 27 04            [ 1] 1879 	jreq	00102$
                           000681  1880 	Sstm8s_uart1$UART1_GetITStatus$573 ==.
                           000681  1881 	Sstm8s_uart1$UART1_GetITStatus$574 ==.
                                   1882 ;	./STM8S_StdPeriph_Lib/Libraries/STM8S_StdPeriph_Driver/src/stm8s_uart1.c: 704: pendingbitstatus = SET;
      000681 A6 01            [ 1] 1883 	ld	a, #0x01
                           000683  1884 	Sstm8s_uart1$UART1_GetITStatus$575 ==.
      000683 20 34            [ 2] 1885 	jra	00118$
      000685                       1886 00102$:
                           000685  1887 	Sstm8s_uart1$UART1_GetITStatus$576 ==.
                           000685  1888 	Sstm8s_uart1$UART1_GetITStatus$577 ==.
                                   1889 ;	./STM8S_StdPeriph_Lib/Libraries/STM8S_StdPeriph_Driver/src/stm8s_uart1.c: 709: pendingbitstatus = RESET;
      000685 4F               [ 1] 1890 	clr	a
                           000686  1891 	Sstm8s_uart1$UART1_GetITStatus$578 ==.
      000686 20 31            [ 2] 1892 	jra	00118$
      000688                       1893 00117$:
                           000688  1894 	Sstm8s_uart1$UART1_GetITStatus$579 ==.
                                   1895 ;	./STM8S_StdPeriph_Lib/Libraries/STM8S_StdPeriph_Driver/src/stm8s_uart1.c: 713: else if (UART1_IT == UART1_IT_LBDF)
      000688 7B 01            [ 1] 1896 	ld	a, (0x01, sp)
      00068A 27 18            [ 1] 1897 	jreq	00114$
                           00068C  1898 	Sstm8s_uart1$UART1_GetITStatus$580 ==.
                           00068C  1899 	Sstm8s_uart1$UART1_GetITStatus$581 ==.
                                   1900 ;	./STM8S_StdPeriph_Lib/Libraries/STM8S_StdPeriph_Driver/src/stm8s_uart1.c: 716: enablestatus = (uint8_t)((uint8_t)UART1->CR4 & itmask2);
      00068C C6 52 37         [ 1] 1901 	ld	a, 0x5237
      00068F 14 04            [ 1] 1902 	and	a, (0x04, sp)
      000691 97               [ 1] 1903 	ld	xl, a
                           000692  1904 	Sstm8s_uart1$UART1_GetITStatus$582 ==.
                                   1905 ;	./STM8S_StdPeriph_Lib/Libraries/STM8S_StdPeriph_Driver/src/stm8s_uart1.c: 718: if (((UART1->CR4 & itpos) != (uint8_t)0x00) && enablestatus)
      000692 C6 52 37         [ 1] 1906 	ld	a, 0x5237
      000695 14 03            [ 1] 1907 	and	a, (0x03, sp)
      000697 27 08            [ 1] 1908 	jreq	00106$
      000699 9F               [ 1] 1909 	ld	a, xl
      00069A 4D               [ 1] 1910 	tnz	a
      00069B 27 04            [ 1] 1911 	jreq	00106$
                           00069D  1912 	Sstm8s_uart1$UART1_GetITStatus$583 ==.
                           00069D  1913 	Sstm8s_uart1$UART1_GetITStatus$584 ==.
                                   1914 ;	./STM8S_StdPeriph_Lib/Libraries/STM8S_StdPeriph_Driver/src/stm8s_uart1.c: 721: pendingbitstatus = SET;
      00069D A6 01            [ 1] 1915 	ld	a, #0x01
                           00069F  1916 	Sstm8s_uart1$UART1_GetITStatus$585 ==.
      00069F 20 18            [ 2] 1917 	jra	00118$
      0006A1                       1918 00106$:
                           0006A1  1919 	Sstm8s_uart1$UART1_GetITStatus$586 ==.
                           0006A1  1920 	Sstm8s_uart1$UART1_GetITStatus$587 ==.
                                   1921 ;	./STM8S_StdPeriph_Lib/Libraries/STM8S_StdPeriph_Driver/src/stm8s_uart1.c: 726: pendingbitstatus = RESET;
      0006A1 4F               [ 1] 1922 	clr	a
                           0006A2  1923 	Sstm8s_uart1$UART1_GetITStatus$588 ==.
      0006A2 20 15            [ 2] 1924 	jra	00118$
      0006A4                       1925 00114$:
                           0006A4  1926 	Sstm8s_uart1$UART1_GetITStatus$589 ==.
                           0006A4  1927 	Sstm8s_uart1$UART1_GetITStatus$590 ==.
                                   1928 ;	./STM8S_StdPeriph_Lib/Libraries/STM8S_StdPeriph_Driver/src/stm8s_uart1.c: 732: enablestatus = (uint8_t)((uint8_t)UART1->CR2 & itmask2);
      0006A4 C6 52 35         [ 1] 1929 	ld	a, 0x5235
      0006A7 14 04            [ 1] 1930 	and	a, (0x04, sp)
      0006A9 97               [ 1] 1931 	ld	xl, a
                           0006AA  1932 	Sstm8s_uart1$UART1_GetITStatus$591 ==.
                                   1933 ;	./STM8S_StdPeriph_Lib/Libraries/STM8S_StdPeriph_Driver/src/stm8s_uart1.c: 734: if (((UART1->SR & itpos) != (uint8_t)0x00) && enablestatus)
      0006AA C6 52 30         [ 1] 1934 	ld	a, 0x5230
      0006AD 14 03            [ 1] 1935 	and	a, (0x03, sp)
      0006AF 27 07            [ 1] 1936 	jreq	00110$
      0006B1 9F               [ 1] 1937 	ld	a, xl
      0006B2 4D               [ 1] 1938 	tnz	a
      0006B3 27 03            [ 1] 1939 	jreq	00110$
                           0006B5  1940 	Sstm8s_uart1$UART1_GetITStatus$592 ==.
                           0006B5  1941 	Sstm8s_uart1$UART1_GetITStatus$593 ==.
                                   1942 ;	./STM8S_StdPeriph_Lib/Libraries/STM8S_StdPeriph_Driver/src/stm8s_uart1.c: 737: pendingbitstatus = SET;
      0006B5 A6 01            [ 1] 1943 	ld	a, #0x01
                           0006B7  1944 	Sstm8s_uart1$UART1_GetITStatus$594 ==.
                           0006B7  1945 	Sstm8s_uart1$UART1_GetITStatus$595 ==.
                           0006B7  1946 	Sstm8s_uart1$UART1_GetITStatus$596 ==.
                                   1947 ;	./STM8S_StdPeriph_Lib/Libraries/STM8S_StdPeriph_Driver/src/stm8s_uart1.c: 742: pendingbitstatus = RESET;
                           0006B7  1948 	Sstm8s_uart1$UART1_GetITStatus$597 ==.
      0006B7 21                    1949 	.byte 0x21
      0006B8                       1950 00110$:
      0006B8 4F               [ 1] 1951 	clr	a
      0006B9                       1952 00118$:
                           0006B9  1953 	Sstm8s_uart1$UART1_GetITStatus$598 ==.
                                   1954 ;	./STM8S_StdPeriph_Lib/Libraries/STM8S_StdPeriph_Driver/src/stm8s_uart1.c: 747: return  pendingbitstatus;
                           0006B9  1955 	Sstm8s_uart1$UART1_GetITStatus$599 ==.
                                   1956 ;	./STM8S_StdPeriph_Lib/Libraries/STM8S_StdPeriph_Driver/src/stm8s_uart1.c: 748: }
      0006B9 5B 04            [ 2] 1957 	addw	sp, #4
                           0006BB  1958 	Sstm8s_uart1$UART1_GetITStatus$600 ==.
                           0006BB  1959 	Sstm8s_uart1$UART1_GetITStatus$601 ==.
                           0006BB  1960 	XG$UART1_GetITStatus$0$0 ==.
      0006BB 81               [ 4] 1961 	ret
                           0006BC  1962 	Sstm8s_uart1$UART1_GetITStatus$602 ==.
                           0006BC  1963 	Sstm8s_uart1$UART1_ClearITPendingBit$603 ==.
                                   1964 ;	./STM8S_StdPeriph_Lib/Libraries/STM8S_StdPeriph_Driver/src/stm8s_uart1.c: 775: void UART1_ClearITPendingBit(UART1_IT_TypeDef UART1_IT)
                                   1965 ;	-----------------------------------------
                                   1966 ;	 function UART1_ClearITPendingBit
                                   1967 ;	-----------------------------------------
      0006BC                       1968 _UART1_ClearITPendingBit:
                           0006BC  1969 	Sstm8s_uart1$UART1_ClearITPendingBit$604 ==.
                           0006BC  1970 	Sstm8s_uart1$UART1_ClearITPendingBit$605 ==.
                                   1971 ;	./STM8S_StdPeriph_Lib/Libraries/STM8S_StdPeriph_Driver/src/stm8s_uart1.c: 777: assert_param(IS_UART1_CLEAR_IT_OK(UART1_IT));
      0006BC A3 02 55         [ 2] 1972 	cpw	x, #0x0255
      0006BF 26 03            [ 1] 1973 	jrne	00127$
      0006C1 A6 01            [ 1] 1974 	ld	a, #0x01
      0006C3 21                    1975 	.byte 0x21
      0006C4                       1976 00127$:
      0006C4 4F               [ 1] 1977 	clr	a
      0006C5                       1978 00128$:
                           0006C5  1979 	Sstm8s_uart1$UART1_ClearITPendingBit$606 ==.
      0006C5 4D               [ 1] 1980 	tnz	a
      0006C6 26 13            [ 1] 1981 	jrne	00107$
      0006C8 A3 03 46         [ 2] 1982 	cpw	x, #0x0346
      0006CB 27 0E            [ 1] 1983 	jreq	00107$
                           0006CD  1984 	Sstm8s_uart1$UART1_ClearITPendingBit$607 ==.
      0006CD 88               [ 1] 1985 	push	a
                           0006CE  1986 	Sstm8s_uart1$UART1_ClearITPendingBit$608 ==.
      0006CE 4B 09            [ 1] 1987 	push	#0x09
                           0006D0  1988 	Sstm8s_uart1$UART1_ClearITPendingBit$609 ==.
      0006D0 4B 03            [ 1] 1989 	push	#0x03
                           0006D2  1990 	Sstm8s_uart1$UART1_ClearITPendingBit$610 ==.
      0006D2 5F               [ 1] 1991 	clrw	x
      0006D3 89               [ 2] 1992 	pushw	x
                           0006D4  1993 	Sstm8s_uart1$UART1_ClearITPendingBit$611 ==.
      0006D4 AEr00r00         [ 2] 1994 	ldw	x, #(___str_0+0)
      0006D7 CDr00r00         [ 4] 1995 	call	_assert_failed
                           0006DA  1996 	Sstm8s_uart1$UART1_ClearITPendingBit$612 ==.
      0006DA 84               [ 1] 1997 	pop	a
                           0006DB  1998 	Sstm8s_uart1$UART1_ClearITPendingBit$613 ==.
      0006DB                       1999 00107$:
                           0006DB  2000 	Sstm8s_uart1$UART1_ClearITPendingBit$614 ==.
                                   2001 ;	./STM8S_StdPeriph_Lib/Libraries/STM8S_StdPeriph_Driver/src/stm8s_uart1.c: 780: if (UART1_IT == UART1_IT_RXNE)
      0006DB 4D               [ 1] 2002 	tnz	a
      0006DC 27 05            [ 1] 2003 	jreq	00102$
                           0006DE  2004 	Sstm8s_uart1$UART1_ClearITPendingBit$615 ==.
                           0006DE  2005 	Sstm8s_uart1$UART1_ClearITPendingBit$616 ==.
                                   2006 ;	./STM8S_StdPeriph_Lib/Libraries/STM8S_StdPeriph_Driver/src/stm8s_uart1.c: 782: UART1->SR = (uint8_t)~(UART1_SR_RXNE);
      0006DE 35 DF 52 30      [ 1] 2007 	mov	0x5230+0, #0xdf
                           0006E2  2008 	Sstm8s_uart1$UART1_ClearITPendingBit$617 ==.
      0006E2 81               [ 4] 2009 	ret
      0006E3                       2010 00102$:
                           0006E3  2011 	Sstm8s_uart1$UART1_ClearITPendingBit$618 ==.
                           0006E3  2012 	Sstm8s_uart1$UART1_ClearITPendingBit$619 ==.
                                   2013 ;	./STM8S_StdPeriph_Lib/Libraries/STM8S_StdPeriph_Driver/src/stm8s_uart1.c: 787: UART1->CR4 &= (uint8_t)~(UART1_CR4_LBDF);
      0006E3 72 19 52 37      [ 1] 2014 	bres	0x5237, #4
                           0006E7  2015 	Sstm8s_uart1$UART1_ClearITPendingBit$620 ==.
                           0006E7  2016 	Sstm8s_uart1$UART1_ClearITPendingBit$621 ==.
                                   2017 ;	./STM8S_StdPeriph_Lib/Libraries/STM8S_StdPeriph_Driver/src/stm8s_uart1.c: 789: }
                           0006E7  2018 	Sstm8s_uart1$UART1_ClearITPendingBit$622 ==.
                           0006E7  2019 	XG$UART1_ClearITPendingBit$0$0 ==.
      0006E7 81               [ 4] 2020 	ret
                           0006E8  2021 	Sstm8s_uart1$UART1_ClearITPendingBit$623 ==.
                                   2022 	.area CODE
                                   2023 	.area CONST
                           000000  2024 Fstm8s_uart1$__str_0$0_0$0 == .
                                   2025 	.area CONST
      000000                       2026 ___str_0:
      000000 2E 2F 53 54 4D 38 53  2027 	.ascii "./STM8S_StdPeriph_Lib/Libraries/STM8S_StdPeriph_Driver/src/s"
             5F 53 74 64 50 65 72
             69 70 68 5F 4C 69 62
             2F 4C 69 62 72 61 72
             69 65 73 2F 53 54 4D
             38 53 5F 53 74 64 50
             65 72 69 70 68 5F 44
             72 69 76 65 72 2F 73
             72 63 2F 73
      00003C 74 6D 38 73 5F 75 61  2028 	.ascii "tm8s_uart1.c"
             72 74 31 2E 63
      000048 00                    2029 	.db 0x00
                                   2030 	.area CODE
                                   2031 	.area INITIALIZER
                                   2032 	.area CABS (ABS)
                                   2033 
                                   2034 	.area .debug_line (NOLOAD)
      000000 00 00 09 BD           2035 	.dw	0,Ldebug_line_end-Ldebug_line_start
      000004                       2036 Ldebug_line_start:
      000004 00 02                 2037 	.dw	2
      000006 00 00 00 AA           2038 	.dw	0,Ldebug_line_stmt-6-Ldebug_line_start
      00000A 01                    2039 	.db	1
      00000B 01                    2040 	.db	1
      00000C FB                    2041 	.db	-5
      00000D 0F                    2042 	.db	15
      00000E 0A                    2043 	.db	10
      00000F 00                    2044 	.db	0
      000010 01                    2045 	.db	1
      000011 01                    2046 	.db	1
      000012 01                    2047 	.db	1
      000013 01                    2048 	.db	1
      000014 00                    2049 	.db	0
      000015 00                    2050 	.db	0
      000016 00                    2051 	.db	0
      000017 01                    2052 	.db	1
      000018 44 3A 5C 5C 53 6F 66  2053 	.ascii "D:\\Software\\SDCC\\bin\\..\\include\\stm8"
             74 77 61 72 65 5C 5C
             53 44 43 43 5C 08 69
             6E 5C 5C 2E 2E 5C 5C
             69 6E 63 6C 75 64 65
             5C 5C 73 74 6D 38
      000041 00                    2054 	.db	0
      000042 44 3A 5C 5C 53 6F 66  2055 	.ascii "D:\\Software\\SDCC\\bin\\..\\include"
             74 77 61 72 65 5C 5C
             53 44 43 43 5C 08 69
             6E 5C 5C 2E 2E 5C 5C
             69 6E 63 6C 75 64 65
      000065 00                    2056 	.db	0
      000066 00                    2057 	.db	0
      000067 2E 2F 53 54 4D 38 53  2058 	.ascii "./STM8S_StdPeriph_Lib/Libraries/STM8S_StdPeriph_Driver/src/stm8s_uart1.c"
             5F 53 74 64 50 65 72
             69 70 68 5F 4C 69 62
             2F 4C 69 62 72 61 72
             69 65 73 2F 53 54 4D
             38 53 5F 53 74 64 50
             65 72 69 70 68 5F 44
             72 69 76 65 72 2F 73
             72 63 2F 73 74 6D 38
             73 5F 75 61 72 74 31
             2E 63
      0000AF 00                    2059 	.db	0
      0000B0 00                    2060 	.uleb128	0
      0000B1 00                    2061 	.uleb128	0
      0000B2 00                    2062 	.uleb128	0
      0000B3 00                    2063 	.db	0
      0000B4                       2064 Ldebug_line_stmt:
      0000B4 00                    2065 	.db	0
      0000B5 05                    2066 	.uleb128	5
      0000B6 02                    2067 	.db	2
      0000B7 00 00r00r00           2068 	.dw	0,(Sstm8s_uart1$UART1_DeInit$0)
      0000BB 03                    2069 	.db	3
      0000BC 34                    2070 	.sleb128	52
      0000BD 01                    2071 	.db	1
      0000BE 00                    2072 	.db	0
      0000BF 05                    2073 	.uleb128	5
      0000C0 02                    2074 	.db	2
      0000C1 00 00r00r00           2075 	.dw	0,(Sstm8s_uart1$UART1_DeInit$2)
      0000C5 03                    2076 	.db	3
      0000C6 04                    2077 	.sleb128	4
      0000C7 01                    2078 	.db	1
      0000C8 00                    2079 	.db	0
      0000C9 05                    2080 	.uleb128	5
      0000CA 02                    2081 	.db	2
      0000CB 00 00r00r03           2082 	.dw	0,(Sstm8s_uart1$UART1_DeInit$3)
      0000CF 03                    2083 	.db	3
      0000D0 01                    2084 	.sleb128	1
      0000D1 01                    2085 	.db	1
      0000D2 00                    2086 	.db	0
      0000D3 05                    2087 	.uleb128	5
      0000D4 02                    2088 	.db	2
      0000D5 00 00r00r06           2089 	.dw	0,(Sstm8s_uart1$UART1_DeInit$4)
      0000D9 03                    2090 	.db	3
      0000DA 02                    2091 	.sleb128	2
      0000DB 01                    2092 	.db	1
      0000DC 00                    2093 	.db	0
      0000DD 05                    2094 	.uleb128	5
      0000DE 02                    2095 	.db	2
      0000DF 00 00r00r0A           2096 	.dw	0,(Sstm8s_uart1$UART1_DeInit$5)
      0000E3 03                    2097 	.db	3
      0000E4 01                    2098 	.sleb128	1
      0000E5 01                    2099 	.db	1
      0000E6 00                    2100 	.db	0
      0000E7 05                    2101 	.uleb128	5
      0000E8 02                    2102 	.db	2
      0000E9 00 00r00r0E           2103 	.dw	0,(Sstm8s_uart1$UART1_DeInit$6)
      0000ED 03                    2104 	.db	3
      0000EE 02                    2105 	.sleb128	2
      0000EF 01                    2106 	.db	1
      0000F0 00                    2107 	.db	0
      0000F1 05                    2108 	.uleb128	5
      0000F2 02                    2109 	.db	2
      0000F3 00 00r00r12           2110 	.dw	0,(Sstm8s_uart1$UART1_DeInit$7)
      0000F7 03                    2111 	.db	3
      0000F8 01                    2112 	.sleb128	1
      0000F9 01                    2113 	.db	1
      0000FA 00                    2114 	.db	0
      0000FB 05                    2115 	.uleb128	5
      0000FC 02                    2116 	.db	2
      0000FD 00 00r00r16           2117 	.dw	0,(Sstm8s_uart1$UART1_DeInit$8)
      000101 03                    2118 	.db	3
      000102 01                    2119 	.sleb128	1
      000103 01                    2120 	.db	1
      000104 00                    2121 	.db	0
      000105 05                    2122 	.uleb128	5
      000106 02                    2123 	.db	2
      000107 00 00r00r1A           2124 	.dw	0,(Sstm8s_uart1$UART1_DeInit$9)
      00010B 03                    2125 	.db	3
      00010C 01                    2126 	.sleb128	1
      00010D 01                    2127 	.db	1
      00010E 00                    2128 	.db	0
      00010F 05                    2129 	.uleb128	5
      000110 02                    2130 	.db	2
      000111 00 00r00r1E           2131 	.dw	0,(Sstm8s_uart1$UART1_DeInit$10)
      000115 03                    2132 	.db	3
      000116 01                    2133 	.sleb128	1
      000117 01                    2134 	.db	1
      000118 00                    2135 	.db	0
      000119 05                    2136 	.uleb128	5
      00011A 02                    2137 	.db	2
      00011B 00 00r00r22           2138 	.dw	0,(Sstm8s_uart1$UART1_DeInit$11)
      00011F 03                    2139 	.db	3
      000120 02                    2140 	.sleb128	2
      000121 01                    2141 	.db	1
      000122 00                    2142 	.db	0
      000123 05                    2143 	.uleb128	5
      000124 02                    2144 	.db	2
      000125 00 00r00r26           2145 	.dw	0,(Sstm8s_uart1$UART1_DeInit$12)
      000129 03                    2146 	.db	3
      00012A 01                    2147 	.sleb128	1
      00012B 01                    2148 	.db	1
      00012C 00                    2149 	.db	0
      00012D 05                    2150 	.uleb128	5
      00012E 02                    2151 	.db	2
      00012F 00 00r00r2A           2152 	.dw	0,(Sstm8s_uart1$UART1_DeInit$13)
      000133 03                    2153 	.db	3
      000134 01                    2154 	.sleb128	1
      000135 01                    2155 	.db	1
      000136 09                    2156 	.db	9
      000137 00 01                 2157 	.dw	1+Sstm8s_uart1$UART1_DeInit$14-Sstm8s_uart1$UART1_DeInit$13
      000139 00                    2158 	.db	0
      00013A 01                    2159 	.uleb128	1
      00013B 01                    2160 	.db	1
      00013C 00                    2161 	.db	0
      00013D 05                    2162 	.uleb128	5
      00013E 02                    2163 	.db	2
      00013F 00 00r00r2B           2164 	.dw	0,(Sstm8s_uart1$UART1_Init$16)
      000143 03                    2165 	.db	3
      000144 D9 00                 2166 	.sleb128	89
      000146 01                    2167 	.db	1
      000147 00                    2168 	.db	0
      000148 05                    2169 	.uleb128	5
      000149 02                    2170 	.db	2
      00014A 00 00r00r2D           2171 	.dw	0,(Sstm8s_uart1$UART1_Init$19)
      00014E 03                    2172 	.db	3
      00014F 07                    2173 	.sleb128	7
      000150 01                    2174 	.db	1
      000151 00                    2175 	.db	0
      000152 05                    2176 	.uleb128	5
      000153 02                    2177 	.db	2
      000154 00 00r00r47           2178 	.dw	0,(Sstm8s_uart1$UART1_Init$24)
      000158 03                    2179 	.db	3
      000159 01                    2180 	.sleb128	1
      00015A 01                    2181 	.db	1
      00015B 00                    2182 	.db	0
      00015C 05                    2183 	.uleb128	5
      00015D 02                    2184 	.db	2
      00015E 00 00r00r5D           2185 	.dw	0,(Sstm8s_uart1$UART1_Init$30)
      000162 03                    2186 	.db	3
      000163 01                    2187 	.sleb128	1
      000164 01                    2188 	.db	1
      000165 00                    2189 	.db	0
      000166 05                    2190 	.uleb128	5
      000167 02                    2191 	.db	2
      000168 00 00r00r7F           2192 	.dw	0,(Sstm8s_uart1$UART1_Init$38)
      00016C 03                    2193 	.db	3
      00016D 01                    2194 	.sleb128	1
      00016E 01                    2195 	.db	1
      00016F 00                    2196 	.db	0
      000170 05                    2197 	.uleb128	5
      000171 02                    2198 	.db	2
      000172 00 00r00r9B           2199 	.dw	0,(Sstm8s_uart1$UART1_Init$45)
      000176 03                    2200 	.db	3
      000177 01                    2201 	.sleb128	1
      000178 01                    2202 	.db	1
      000179 00                    2203 	.db	0
      00017A 05                    2204 	.uleb128	5
      00017B 02                    2205 	.db	2
      00017C 00 00r00rE0           2206 	.dw	0,(Sstm8s_uart1$UART1_Init$58)
      000180 03                    2207 	.db	3
      000181 01                    2208 	.sleb128	1
      000182 01                    2209 	.db	1
      000183 00                    2210 	.db	0
      000184 05                    2211 	.uleb128	5
      000185 02                    2212 	.db	2
      000186 00 00r01r08           2213 	.dw	0,(Sstm8s_uart1$UART1_Init$67)
      00018A 03                    2214 	.db	3
      00018B 03                    2215 	.sleb128	3
      00018C 01                    2216 	.db	1
      00018D 00                    2217 	.db	0
      00018E 05                    2218 	.uleb128	5
      00018F 02                    2219 	.db	2
      000190 00 00r01r0C           2220 	.dw	0,(Sstm8s_uart1$UART1_Init$68)
      000194 03                    2221 	.db	3
      000195 03                    2222 	.sleb128	3
      000196 01                    2223 	.db	1
      000197 00                    2224 	.db	0
      000198 05                    2225 	.uleb128	5
      000199 02                    2226 	.db	2
      00019A 00 00r01r14           2227 	.dw	0,(Sstm8s_uart1$UART1_Init$69)
      00019E 03                    2228 	.db	3
      00019F 03                    2229 	.sleb128	3
      0001A0 01                    2230 	.db	1
      0001A1 00                    2231 	.db	0
      0001A2 05                    2232 	.uleb128	5
      0001A3 02                    2233 	.db	2
      0001A4 00 00r01r1C           2234 	.dw	0,(Sstm8s_uart1$UART1_Init$70)
      0001A8 03                    2235 	.db	3
      0001A9 02                    2236 	.sleb128	2
      0001AA 01                    2237 	.db	1
      0001AB 00                    2238 	.db	0
      0001AC 05                    2239 	.uleb128	5
      0001AD 02                    2240 	.db	2
      0001AE 00 00r01r24           2241 	.dw	0,(Sstm8s_uart1$UART1_Init$71)
      0001B2 03                    2242 	.db	3
      0001B3 03                    2243 	.sleb128	3
      0001B4 01                    2244 	.db	1
      0001B5 00                    2245 	.db	0
      0001B6 05                    2246 	.uleb128	5
      0001B7 02                    2247 	.db	2
      0001B8 00 00r01r2C           2248 	.dw	0,(Sstm8s_uart1$UART1_Init$72)
      0001BC 03                    2249 	.db	3
      0001BD 02                    2250 	.sleb128	2
      0001BE 01                    2251 	.db	1
      0001BF 00                    2252 	.db	0
      0001C0 05                    2253 	.uleb128	5
      0001C1 02                    2254 	.db	2
      0001C2 00 00r01r34           2255 	.dw	0,(Sstm8s_uart1$UART1_Init$73)
      0001C6 03                    2256 	.db	3
      0001C7 03                    2257 	.sleb128	3
      0001C8 01                    2258 	.db	1
      0001C9 00                    2259 	.db	0
      0001CA 05                    2260 	.uleb128	5
      0001CB 02                    2261 	.db	2
      0001CC 00 00r01r3B           2262 	.dw	0,(Sstm8s_uart1$UART1_Init$74)
      0001D0 03                    2263 	.db	3
      0001D1 02                    2264 	.sleb128	2
      0001D2 01                    2265 	.db	1
      0001D3 00                    2266 	.db	0
      0001D4 05                    2267 	.uleb128	5
      0001D5 02                    2268 	.db	2
      0001D6 00 00r01r43           2269 	.dw	0,(Sstm8s_uart1$UART1_Init$75)
      0001DA 03                    2270 	.db	3
      0001DB 02                    2271 	.sleb128	2
      0001DC 01                    2272 	.db	1
      0001DD 00                    2273 	.db	0
      0001DE 05                    2274 	.uleb128	5
      0001DF 02                    2275 	.db	2
      0001E0 00 00r01r4B           2276 	.dw	0,(Sstm8s_uart1$UART1_Init$76)
      0001E4 03                    2277 	.db	3
      0001E5 03                    2278 	.sleb128	3
      0001E6 01                    2279 	.db	1
      0001E7 00                    2280 	.db	0
      0001E8 05                    2281 	.uleb128	5
      0001E9 02                    2282 	.db	2
      0001EA 00 00r01r74           2283 	.dw	0,(Sstm8s_uart1$UART1_Init$82)
      0001EE 03                    2284 	.db	3
      0001EF 01                    2285 	.sleb128	1
      0001F0 01                    2286 	.db	1
      0001F1 00                    2287 	.db	0
      0001F2 05                    2288 	.uleb128	5
      0001F3 02                    2289 	.db	2
      0001F4 00 00r01r9F           2290 	.dw	0,(Sstm8s_uart1$UART1_Init$94)
      0001F8 03                    2291 	.db	3
      0001F9 02                    2292 	.sleb128	2
      0001FA 01                    2293 	.db	1
      0001FB 00                    2294 	.db	0
      0001FC 05                    2295 	.uleb128	5
      0001FD 02                    2296 	.db	2
      0001FE 00 00r01rE9           2297 	.dw	0,(Sstm8s_uart1$UART1_Init$112)
      000202 03                    2298 	.db	3
      000203 02                    2299 	.sleb128	2
      000204 01                    2300 	.db	1
      000205 00                    2301 	.db	0
      000206 05                    2302 	.uleb128	5
      000207 02                    2303 	.db	2
      000208 00 00r01rFD           2304 	.dw	0,(Sstm8s_uart1$UART1_Init$113)
      00020C 03                    2305 	.db	3
      00020D 02                    2306 	.sleb128	2
      00020E 01                    2307 	.db	1
      00020F 00                    2308 	.db	0
      000210 05                    2309 	.uleb128	5
      000211 02                    2310 	.db	2
      000212 00 00r02r09           2311 	.dw	0,(Sstm8s_uart1$UART1_Init$114)
      000216 03                    2312 	.db	3
      000217 03                    2313 	.sleb128	3
      000218 01                    2314 	.db	1
      000219 00                    2315 	.db	0
      00021A 05                    2316 	.uleb128	5
      00021B 02                    2317 	.db	2
      00021C 00 00r02r11           2318 	.dw	0,(Sstm8s_uart1$UART1_Init$115)
      000220 03                    2319 	.db	3
      000221 02                    2320 	.sleb128	2
      000222 01                    2321 	.db	1
      000223 00                    2322 	.db	0
      000224 05                    2323 	.uleb128	5
      000225 02                    2324 	.db	2
      000226 00 00r02r19           2325 	.dw	0,(Sstm8s_uart1$UART1_Init$116)
      00022A 03                    2326 	.db	3
      00022B 02                    2327 	.sleb128	2
      00022C 01                    2328 	.db	1
      00022D 00                    2329 	.db	0
      00022E 05                    2330 	.uleb128	5
      00022F 02                    2331 	.db	2
      000230 00 00r02r27           2332 	.dw	0,(Sstm8s_uart1$UART1_Init$117)
      000234 03                    2333 	.db	3
      000235 7C                    2334 	.sleb128	-4
      000236 01                    2335 	.db	1
      000237 00                    2336 	.db	0
      000238 05                    2337 	.uleb128	5
      000239 02                    2338 	.db	2
      00023A 00 00r02r2A           2339 	.dw	0,(Sstm8s_uart1$UART1_Init$118)
      00023E 03                    2340 	.db	3
      00023F 07                    2341 	.sleb128	7
      000240 01                    2342 	.db	1
      000241 00                    2343 	.db	0
      000242 05                    2344 	.uleb128	5
      000243 02                    2345 	.db	2
      000244 00 00r02r32           2346 	.dw	0,(Sstm8s_uart1$UART1_Init$122)
      000248 03                    2347 	.db	3
      000249 03                    2348 	.sleb128	3
      00024A 01                    2349 	.db	1
      00024B 00                    2350 	.db	0
      00024C 05                    2351 	.uleb128	5
      00024D 02                    2352 	.db	2
      00024E 00 00r02r39           2353 	.dw	0,(Sstm8s_uart1$UART1_Init$125)
      000252 03                    2354 	.db	3
      000253 05                    2355 	.sleb128	5
      000254 01                    2356 	.db	1
      000255 00                    2357 	.db	0
      000256 05                    2358 	.uleb128	5
      000257 02                    2359 	.db	2
      000258 00 00r02r3E           2360 	.dw	0,(Sstm8s_uart1$UART1_Init$127)
      00025C 03                    2361 	.db	3
      00025D 71                    2362 	.sleb128	-15
      00025E 01                    2363 	.db	1
      00025F 00                    2364 	.db	0
      000260 05                    2365 	.uleb128	5
      000261 02                    2366 	.db	2
      000262 00 00r02r41           2367 	.dw	0,(Sstm8s_uart1$UART1_Init$128)
      000266 03                    2368 	.db	3
      000267 11                    2369 	.sleb128	17
      000268 01                    2370 	.db	1
      000269 00                    2371 	.db	0
      00026A 05                    2372 	.uleb128	5
      00026B 02                    2373 	.db	2
      00026C 00 00r02r49           2374 	.dw	0,(Sstm8s_uart1$UART1_Init$132)
      000270 03                    2375 	.db	3
      000271 03                    2376 	.sleb128	3
      000272 01                    2377 	.db	1
      000273 00                    2378 	.db	0
      000274 05                    2379 	.uleb128	5
      000275 02                    2380 	.db	2
      000276 00 00r02r50           2381 	.dw	0,(Sstm8s_uart1$UART1_Init$135)
      00027A 03                    2382 	.db	3
      00027B 05                    2383 	.sleb128	5
      00027C 01                    2384 	.db	1
      00027D 00                    2385 	.db	0
      00027E 05                    2386 	.uleb128	5
      00027F 02                    2387 	.db	2
      000280 00 00r02r55           2388 	.dw	0,(Sstm8s_uart1$UART1_Init$137)
      000284 03                    2389 	.db	3
      000285 4C                    2390 	.sleb128	-52
      000286 01                    2391 	.db	1
      000287 00                    2392 	.db	0
      000288 05                    2393 	.uleb128	5
      000289 02                    2394 	.db	2
      00028A 00 00r02r58           2395 	.dw	0,(Sstm8s_uart1$UART1_Init$138)
      00028E 03                    2396 	.db	3
      00028F 38                    2397 	.sleb128	56
      000290 01                    2398 	.db	1
      000291 00                    2399 	.db	0
      000292 05                    2400 	.uleb128	5
      000293 02                    2401 	.db	2
      000294 00 00r02r5C           2402 	.dw	0,(Sstm8s_uart1$UART1_Init$140)
      000298 03                    2403 	.db	3
      000299 03                    2404 	.sleb128	3
      00029A 01                    2405 	.db	1
      00029B 00                    2406 	.db	0
      00029C 05                    2407 	.uleb128	5
      00029D 02                    2408 	.db	2
      00029E 00 00r02r63           2409 	.dw	0,(Sstm8s_uart1$UART1_Init$143)
      0002A2 03                    2410 	.db	3
      0002A3 04                    2411 	.sleb128	4
      0002A4 01                    2412 	.db	1
      0002A5 00                    2413 	.db	0
      0002A6 05                    2414 	.uleb128	5
      0002A7 02                    2415 	.db	2
      0002A8 00 00r02r70           2416 	.dw	0,(Sstm8s_uart1$UART1_Init$147)
      0002AC 03                    2417 	.db	3
      0002AD 02                    2418 	.sleb128	2
      0002AE 01                    2419 	.db	1
      0002AF 00                    2420 	.db	0
      0002B0 05                    2421 	.uleb128	5
      0002B1 02                    2422 	.db	2
      0002B2 00 00r02r75           2423 	.dw	0,(Sstm8s_uart1$UART1_Cmd$150)
      0002B6 03                    2424 	.db	3
      0002B7 08                    2425 	.sleb128	8
      0002B8 01                    2426 	.db	1
      0002B9 00                    2427 	.db	0
      0002BA 05                    2428 	.uleb128	5
      0002BB 02                    2429 	.db	2
      0002BC 00 00r02r78           2430 	.dw	0,(Sstm8s_uart1$UART1_Cmd$153)
      0002C0 03                    2431 	.db	3
      0002C1 05                    2432 	.sleb128	5
      0002C2 01                    2433 	.db	1
      0002C3 00                    2434 	.db	0
      0002C4 05                    2435 	.uleb128	5
      0002C5 02                    2436 	.db	2
      0002C6 00 00r02r7B           2437 	.dw	0,(Sstm8s_uart1$UART1_Cmd$154)
      0002CA 03                    2438 	.db	3
      0002CB 7D                    2439 	.sleb128	-3
      0002CC 01                    2440 	.db	1
      0002CD 00                    2441 	.db	0
      0002CE 05                    2442 	.uleb128	5
      0002CF 02                    2443 	.db	2
      0002D0 00 00r02r7F           2444 	.dw	0,(Sstm8s_uart1$UART1_Cmd$156)
      0002D4 03                    2445 	.db	3
      0002D5 03                    2446 	.sleb128	3
      0002D6 01                    2447 	.db	1
      0002D7 00                    2448 	.db	0
      0002D8 05                    2449 	.uleb128	5
      0002D9 02                    2450 	.db	2
      0002DA 00 00r02r86           2451 	.dw	0,(Sstm8s_uart1$UART1_Cmd$159)
      0002DE 03                    2452 	.db	3
      0002DF 05                    2453 	.sleb128	5
      0002E0 01                    2454 	.db	1
      0002E1 00                    2455 	.db	0
      0002E2 05                    2456 	.uleb128	5
      0002E3 02                    2457 	.db	2
      0002E4 00 00r02r8B           2458 	.dw	0,(Sstm8s_uart1$UART1_Cmd$161)
      0002E8 03                    2459 	.db	3
      0002E9 02                    2460 	.sleb128	2
      0002EA 01                    2461 	.db	1
      0002EB 09                    2462 	.db	9
      0002EC 00 02                 2463 	.dw	1+Sstm8s_uart1$UART1_Cmd$163-Sstm8s_uart1$UART1_Cmd$161
      0002EE 00                    2464 	.db	0
      0002EF 01                    2465 	.uleb128	1
      0002F0 01                    2466 	.db	1
      0002F1 00                    2467 	.db	0
      0002F2 05                    2468 	.uleb128	5
      0002F3 02                    2469 	.db	2
      0002F4 00 00r02r8D           2470 	.dw	0,(Sstm8s_uart1$UART1_ITConfig$165)
      0002F8 03                    2471 	.db	3
      0002F9 D2 01                 2472 	.sleb128	210
      0002FB 01                    2473 	.db	1
      0002FC 00                    2474 	.db	0
      0002FD 05                    2475 	.uleb128	5
      0002FE 02                    2476 	.db	2
      0002FF 00 00r02r93           2477 	.dw	0,(Sstm8s_uart1$UART1_ITConfig$168)
      000303 03                    2478 	.db	3
      000304 05                    2479 	.sleb128	5
      000305 01                    2480 	.db	1
      000306 00                    2481 	.db	0
      000307 05                    2482 	.uleb128	5
      000308 02                    2483 	.db	2
      000309 00 00r02rC3           2484 	.dw	0,(Sstm8s_uart1$UART1_ITConfig$182)
      00030D 03                    2485 	.db	3
      00030E 01                    2486 	.sleb128	1
      00030F 01                    2487 	.db	1
      000310 00                    2488 	.db	0
      000311 05                    2489 	.uleb128	5
      000312 02                    2490 	.db	2
      000313 00 00r02rDB           2491 	.dw	0,(Sstm8s_uart1$UART1_ITConfig$190)
      000317 03                    2492 	.db	3
      000318 03                    2493 	.sleb128	3
      000319 01                    2494 	.db	1
      00031A 00                    2495 	.db	0
      00031B 05                    2496 	.uleb128	5
      00031C 02                    2497 	.db	2
      00031D 00 00r02rDB           2498 	.dw	0,(Sstm8s_uart1$UART1_ITConfig$191)
      000321 03                    2499 	.db	3
      000322 02                    2500 	.sleb128	2
      000323 01                    2501 	.db	1
      000324 00                    2502 	.db	0
      000325 05                    2503 	.uleb128	5
      000326 02                    2504 	.db	2
      000327 00 00r02rEC           2505 	.dw	0,(Sstm8s_uart1$UART1_ITConfig$192)
      00032B 03                    2506 	.db	3
      00032C 05                    2507 	.sleb128	5
      00032D 01                    2508 	.db	1
      00032E 00                    2509 	.db	0
      00032F 05                    2510 	.uleb128	5
      000330 02                    2511 	.db	2
      000331 00 00r02rF7           2512 	.dw	0,(Sstm8s_uart1$UART1_ITConfig$194)
      000335 03                    2513 	.db	3
      000336 04                    2514 	.sleb128	4
      000337 01                    2515 	.db	1
      000338 00                    2516 	.db	0
      000339 05                    2517 	.uleb128	5
      00033A 02                    2518 	.db	2
      00033B 00 00r03r02           2519 	.dw	0,(Sstm8s_uart1$UART1_ITConfig$196)
      00033F 03                    2520 	.db	3
      000340 79                    2521 	.sleb128	-7
      000341 01                    2522 	.db	1
      000342 00                    2523 	.db	0
      000343 05                    2524 	.uleb128	5
      000344 02                    2525 	.db	2
      000345 00 00r03r06           2526 	.dw	0,(Sstm8s_uart1$UART1_ITConfig$198)
      000349 03                    2527 	.db	3
      00034A 03                    2528 	.sleb128	3
      00034B 01                    2529 	.db	1
      00034C 00                    2530 	.db	0
      00034D 05                    2531 	.uleb128	5
      00034E 02                    2532 	.db	2
      00034F 00 00r03r0A           2533 	.dw	0,(Sstm8s_uart1$UART1_ITConfig$200)
      000353 03                    2534 	.db	3
      000354 02                    2535 	.sleb128	2
      000355 01                    2536 	.db	1
      000356 00                    2537 	.db	0
      000357 05                    2538 	.uleb128	5
      000358 02                    2539 	.db	2
      000359 00 00r03r16           2540 	.dw	0,(Sstm8s_uart1$UART1_ITConfig$204)
      00035D 03                    2541 	.db	3
      00035E 02                    2542 	.sleb128	2
      00035F 01                    2543 	.db	1
      000360 00                    2544 	.db	0
      000361 05                    2545 	.uleb128	5
      000362 02                    2546 	.db	2
      000363 00 00r03r1A           2547 	.dw	0,(Sstm8s_uart1$UART1_ITConfig$206)
      000367 03                    2548 	.db	3
      000368 02                    2549 	.sleb128	2
      000369 01                    2550 	.db	1
      00036A 00                    2551 	.db	0
      00036B 05                    2552 	.uleb128	5
      00036C 02                    2553 	.db	2
      00036D 00 00r03r26           2554 	.dw	0,(Sstm8s_uart1$UART1_ITConfig$211)
      000371 03                    2555 	.db	3
      000372 04                    2556 	.sleb128	4
      000373 01                    2557 	.db	1
      000374 00                    2558 	.db	0
      000375 05                    2559 	.uleb128	5
      000376 02                    2560 	.db	2
      000377 00 00r03r32           2561 	.dw	0,(Sstm8s_uart1$UART1_ITConfig$215)
      00037B 03                    2562 	.db	3
      00037C 08                    2563 	.sleb128	8
      00037D 01                    2564 	.db	1
      00037E 00                    2565 	.db	0
      00037F 05                    2566 	.uleb128	5
      000380 02                    2567 	.db	2
      000381 00 00r03r36           2568 	.dw	0,(Sstm8s_uart1$UART1_ITConfig$217)
      000385 03                    2569 	.db	3
      000386 7E                    2570 	.sleb128	-2
      000387 01                    2571 	.db	1
      000388 00                    2572 	.db	0
      000389 05                    2573 	.uleb128	5
      00038A 02                    2574 	.db	2
      00038B 00 00r03r3A           2575 	.dw	0,(Sstm8s_uart1$UART1_ITConfig$219)
      00038F 03                    2576 	.db	3
      000390 02                    2577 	.sleb128	2
      000391 01                    2578 	.db	1
      000392 00                    2579 	.db	0
      000393 05                    2580 	.uleb128	5
      000394 02                    2581 	.db	2
      000395 00 00r03r44           2582 	.dw	0,(Sstm8s_uart1$UART1_ITConfig$221)
      000399 03                    2583 	.db	3
      00039A 02                    2584 	.sleb128	2
      00039B 01                    2585 	.db	1
      00039C 00                    2586 	.db	0
      00039D 05                    2587 	.uleb128	5
      00039E 02                    2588 	.db	2
      00039F 00 00r03r48           2589 	.dw	0,(Sstm8s_uart1$UART1_ITConfig$223)
      0003A3 03                    2590 	.db	3
      0003A4 02                    2591 	.sleb128	2
      0003A5 01                    2592 	.db	1
      0003A6 00                    2593 	.db	0
      0003A7 05                    2594 	.uleb128	5
      0003A8 02                    2595 	.db	2
      0003A9 00 00r03r52           2596 	.dw	0,(Sstm8s_uart1$UART1_ITConfig$226)
      0003AD 03                    2597 	.db	3
      0003AE 04                    2598 	.sleb128	4
      0003AF 01                    2599 	.db	1
      0003B0 00                    2600 	.db	0
      0003B1 05                    2601 	.uleb128	5
      0003B2 02                    2602 	.db	2
      0003B3 00 00r03r5A           2603 	.dw	0,(Sstm8s_uart1$UART1_ITConfig$228)
      0003B7 03                    2604 	.db	3
      0003B8 04                    2605 	.sleb128	4
      0003B9 01                    2606 	.db	1
      0003BA 09                    2607 	.db	9
      0003BB 00 03                 2608 	.dw	1+Sstm8s_uart1$UART1_ITConfig$230-Sstm8s_uart1$UART1_ITConfig$228
      0003BD 00                    2609 	.db	0
      0003BE 01                    2610 	.uleb128	1
      0003BF 01                    2611 	.db	1
      0003C0 00                    2612 	.db	0
      0003C1 05                    2613 	.uleb128	5
      0003C2 02                    2614 	.db	2
      0003C3 00 00r03r5D           2615 	.dw	0,(Sstm8s_uart1$UART1_HalfDuplexCmd$232)
      0003C7 03                    2616 	.db	3
      0003C8 88 02                 2617 	.sleb128	264
      0003CA 01                    2618 	.db	1
      0003CB 00                    2619 	.db	0
      0003CC 05                    2620 	.uleb128	5
      0003CD 02                    2621 	.db	2
      0003CE 00 00r03r5E           2622 	.dw	0,(Sstm8s_uart1$UART1_HalfDuplexCmd$235)
      0003D2 03                    2623 	.db	3
      0003D3 02                    2624 	.sleb128	2
      0003D4 01                    2625 	.db	1
      0003D5 00                    2626 	.db	0
      0003D6 05                    2627 	.uleb128	5
      0003D7 02                    2628 	.db	2
      0003D8 00 00r03r72           2629 	.dw	0,(Sstm8s_uart1$UART1_HalfDuplexCmd$240)
      0003DC 03                    2630 	.db	3
      0003DD 04                    2631 	.sleb128	4
      0003DE 01                    2632 	.db	1
      0003DF 00                    2633 	.db	0
      0003E0 05                    2634 	.uleb128	5
      0003E1 02                    2635 	.db	2
      0003E2 00 00r03r75           2636 	.dw	0,(Sstm8s_uart1$UART1_HalfDuplexCmd$241)
      0003E6 03                    2637 	.db	3
      0003E7 7E                    2638 	.sleb128	-2
      0003E8 01                    2639 	.db	1
      0003E9 00                    2640 	.db	0
      0003EA 05                    2641 	.uleb128	5
      0003EB 02                    2642 	.db	2
      0003EC 00 00r03r79           2643 	.dw	0,(Sstm8s_uart1$UART1_HalfDuplexCmd$243)
      0003F0 03                    2644 	.db	3
      0003F1 02                    2645 	.sleb128	2
      0003F2 01                    2646 	.db	1
      0003F3 00                    2647 	.db	0
      0003F4 05                    2648 	.uleb128	5
      0003F5 02                    2649 	.db	2
      0003F6 00 00r03r80           2650 	.dw	0,(Sstm8s_uart1$UART1_HalfDuplexCmd$246)
      0003FA 03                    2651 	.db	3
      0003FB 04                    2652 	.sleb128	4
      0003FC 01                    2653 	.db	1
      0003FD 00                    2654 	.db	0
      0003FE 05                    2655 	.uleb128	5
      0003FF 02                    2656 	.db	2
      000400 00 00r03r85           2657 	.dw	0,(Sstm8s_uart1$UART1_HalfDuplexCmd$248)
      000404 03                    2658 	.db	3
      000405 02                    2659 	.sleb128	2
      000406 01                    2660 	.db	1
      000407 09                    2661 	.db	9
      000408 00 02                 2662 	.dw	1+Sstm8s_uart1$UART1_HalfDuplexCmd$250-Sstm8s_uart1$UART1_HalfDuplexCmd$248
      00040A 00                    2663 	.db	0
      00040B 01                    2664 	.uleb128	1
      00040C 01                    2665 	.db	1
      00040D 00                    2666 	.db	0
      00040E 05                    2667 	.uleb128	5
      00040F 02                    2668 	.db	2
      000410 00 00r03r87           2669 	.dw	0,(Sstm8s_uart1$UART1_IrDAConfig$252)
      000414 03                    2670 	.db	3
      000415 9C 02                 2671 	.sleb128	284
      000417 01                    2672 	.db	1
      000418 00                    2673 	.db	0
      000419 05                    2674 	.uleb128	5
      00041A 02                    2675 	.db	2
      00041B 00 00r03r88           2676 	.dw	0,(Sstm8s_uart1$UART1_IrDAConfig$255)
      00041F 03                    2677 	.db	3
      000420 02                    2678 	.sleb128	2
      000421 01                    2679 	.db	1
      000422 00                    2680 	.db	0
      000423 05                    2681 	.uleb128	5
      000424 02                    2682 	.db	2
      000425 00 00r03r9C           2683 	.dw	0,(Sstm8s_uart1$UART1_IrDAConfig$260)
      000429 03                    2684 	.db	3
      00042A 04                    2685 	.sleb128	4
      00042B 01                    2686 	.db	1
      00042C 00                    2687 	.db	0
      00042D 05                    2688 	.uleb128	5
      00042E 02                    2689 	.db	2
      00042F 00 00r03r9F           2690 	.dw	0,(Sstm8s_uart1$UART1_IrDAConfig$261)
      000433 03                    2691 	.db	3
      000434 7E                    2692 	.sleb128	-2
      000435 01                    2693 	.db	1
      000436 00                    2694 	.db	0
      000437 05                    2695 	.uleb128	5
      000438 02                    2696 	.db	2
      000439 00 00r03rA3           2697 	.dw	0,(Sstm8s_uart1$UART1_IrDAConfig$263)
      00043D 03                    2698 	.db	3
      00043E 02                    2699 	.sleb128	2
      00043F 01                    2700 	.db	1
      000440 00                    2701 	.db	0
      000441 05                    2702 	.uleb128	5
      000442 02                    2703 	.db	2
      000443 00 00r03rAA           2704 	.dw	0,(Sstm8s_uart1$UART1_IrDAConfig$266)
      000447 03                    2705 	.db	3
      000448 04                    2706 	.sleb128	4
      000449 01                    2707 	.db	1
      00044A 00                    2708 	.db	0
      00044B 05                    2709 	.uleb128	5
      00044C 02                    2710 	.db	2
      00044D 00 00r03rAF           2711 	.dw	0,(Sstm8s_uart1$UART1_IrDAConfig$268)
      000451 03                    2712 	.db	3
      000452 02                    2713 	.sleb128	2
      000453 01                    2714 	.db	1
      000454 09                    2715 	.db	9
      000455 00 02                 2716 	.dw	1+Sstm8s_uart1$UART1_IrDAConfig$270-Sstm8s_uart1$UART1_IrDAConfig$268
      000457 00                    2717 	.db	0
      000458 01                    2718 	.uleb128	1
      000459 01                    2719 	.db	1
      00045A 00                    2720 	.db	0
      00045B 05                    2721 	.uleb128	5
      00045C 02                    2722 	.db	2
      00045D 00 00r03rB1           2723 	.dw	0,(Sstm8s_uart1$UART1_IrDACmd$272)
      000461 03                    2724 	.db	3
      000462 B0 02                 2725 	.sleb128	304
      000464 01                    2726 	.db	1
      000465 00                    2727 	.db	0
      000466 05                    2728 	.uleb128	5
      000467 02                    2729 	.db	2
      000468 00 00r03rB2           2730 	.dw	0,(Sstm8s_uart1$UART1_IrDACmd$275)
      00046C 03                    2731 	.db	3
      00046D 03                    2732 	.sleb128	3
      00046E 01                    2733 	.db	1
      00046F 00                    2734 	.db	0
      000470 05                    2735 	.uleb128	5
      000471 02                    2736 	.db	2
      000472 00 00r03rC6           2737 	.dw	0,(Sstm8s_uart1$UART1_IrDACmd$280)
      000476 03                    2738 	.db	3
      000477 05                    2739 	.sleb128	5
      000478 01                    2740 	.db	1
      000479 00                    2741 	.db	0
      00047A 05                    2742 	.uleb128	5
      00047B 02                    2743 	.db	2
      00047C 00 00r03rC9           2744 	.dw	0,(Sstm8s_uart1$UART1_IrDACmd$281)
      000480 03                    2745 	.db	3
      000481 7D                    2746 	.sleb128	-3
      000482 01                    2747 	.db	1
      000483 00                    2748 	.db	0
      000484 05                    2749 	.uleb128	5
      000485 02                    2750 	.db	2
      000486 00 00r03rCD           2751 	.dw	0,(Sstm8s_uart1$UART1_IrDACmd$283)
      00048A 03                    2752 	.db	3
      00048B 03                    2753 	.sleb128	3
      00048C 01                    2754 	.db	1
      00048D 00                    2755 	.db	0
      00048E 05                    2756 	.uleb128	5
      00048F 02                    2757 	.db	2
      000490 00 00r03rD4           2758 	.dw	0,(Sstm8s_uart1$UART1_IrDACmd$286)
      000494 03                    2759 	.db	3
      000495 05                    2760 	.sleb128	5
      000496 01                    2761 	.db	1
      000497 00                    2762 	.db	0
      000498 05                    2763 	.uleb128	5
      000499 02                    2764 	.db	2
      00049A 00 00r03rD9           2765 	.dw	0,(Sstm8s_uart1$UART1_IrDACmd$288)
      00049E 03                    2766 	.db	3
      00049F 02                    2767 	.sleb128	2
      0004A0 01                    2768 	.db	1
      0004A1 09                    2769 	.db	9
      0004A2 00 02                 2770 	.dw	1+Sstm8s_uart1$UART1_IrDACmd$290-Sstm8s_uart1$UART1_IrDACmd$288
      0004A4 00                    2771 	.db	0
      0004A5 01                    2772 	.uleb128	1
      0004A6 01                    2773 	.db	1
      0004A7 00                    2774 	.db	0
      0004A8 05                    2775 	.uleb128	5
      0004A9 02                    2776 	.db	2
      0004AA 00 00r03rDB           2777 	.dw	0,(Sstm8s_uart1$UART1_LINBreakDetectionConfig$292)
      0004AE 03                    2778 	.db	3
      0004AF C8 02                 2779 	.sleb128	328
      0004B1 01                    2780 	.db	1
      0004B2 00                    2781 	.db	0
      0004B3 05                    2782 	.uleb128	5
      0004B4 02                    2783 	.db	2
      0004B5 00 00r03rDC           2784 	.dw	0,(Sstm8s_uart1$UART1_LINBreakDetectionConfig$295)
      0004B9 03                    2785 	.db	3
      0004BA 02                    2786 	.sleb128	2
      0004BB 01                    2787 	.db	1
      0004BC 00                    2788 	.db	0
      0004BD 05                    2789 	.uleb128	5
      0004BE 02                    2790 	.db	2
      0004BF 00 00r03rF0           2791 	.dw	0,(Sstm8s_uart1$UART1_LINBreakDetectionConfig$300)
      0004C3 03                    2792 	.db	3
      0004C4 04                    2793 	.sleb128	4
      0004C5 01                    2794 	.db	1
      0004C6 00                    2795 	.db	0
      0004C7 05                    2796 	.uleb128	5
      0004C8 02                    2797 	.db	2
      0004C9 00 00r03rF3           2798 	.dw	0,(Sstm8s_uart1$UART1_LINBreakDetectionConfig$301)
      0004CD 03                    2799 	.db	3
      0004CE 7E                    2800 	.sleb128	-2
      0004CF 01                    2801 	.db	1
      0004D0 00                    2802 	.db	0
      0004D1 05                    2803 	.uleb128	5
      0004D2 02                    2804 	.db	2
      0004D3 00 00r03rF7           2805 	.dw	0,(Sstm8s_uart1$UART1_LINBreakDetectionConfig$303)
      0004D7 03                    2806 	.db	3
      0004D8 02                    2807 	.sleb128	2
      0004D9 01                    2808 	.db	1
      0004DA 00                    2809 	.db	0
      0004DB 05                    2810 	.uleb128	5
      0004DC 02                    2811 	.db	2
      0004DD 00 00r03rFE           2812 	.dw	0,(Sstm8s_uart1$UART1_LINBreakDetectionConfig$306)
      0004E1 03                    2813 	.db	3
      0004E2 04                    2814 	.sleb128	4
      0004E3 01                    2815 	.db	1
      0004E4 00                    2816 	.db	0
      0004E5 05                    2817 	.uleb128	5
      0004E6 02                    2818 	.db	2
      0004E7 00 00r04r03           2819 	.dw	0,(Sstm8s_uart1$UART1_LINBreakDetectionConfig$308)
      0004EB 03                    2820 	.db	3
      0004EC 02                    2821 	.sleb128	2
      0004ED 01                    2822 	.db	1
      0004EE 09                    2823 	.db	9
      0004EF 00 02                 2824 	.dw	1+Sstm8s_uart1$UART1_LINBreakDetectionConfig$310-Sstm8s_uart1$UART1_LINBreakDetectionConfig$308
      0004F1 00                    2825 	.db	0
      0004F2 01                    2826 	.uleb128	1
      0004F3 01                    2827 	.db	1
      0004F4 00                    2828 	.db	0
      0004F5 05                    2829 	.uleb128	5
      0004F6 02                    2830 	.db	2
      0004F7 00 00r04r05           2831 	.dw	0,(Sstm8s_uart1$UART1_LINCmd$312)
      0004FB 03                    2832 	.db	3
      0004FC DC 02                 2833 	.sleb128	348
      0004FE 01                    2834 	.db	1
      0004FF 00                    2835 	.db	0
      000500 05                    2836 	.uleb128	5
      000501 02                    2837 	.db	2
      000502 00 00r04r06           2838 	.dw	0,(Sstm8s_uart1$UART1_LINCmd$315)
      000506 03                    2839 	.db	3
      000507 02                    2840 	.sleb128	2
      000508 01                    2841 	.db	1
      000509 00                    2842 	.db	0
      00050A 05                    2843 	.uleb128	5
      00050B 02                    2844 	.db	2
      00050C 00 00r04r1A           2845 	.dw	0,(Sstm8s_uart1$UART1_LINCmd$320)
      000510 03                    2846 	.db	3
      000511 05                    2847 	.sleb128	5
      000512 01                    2848 	.db	1
      000513 00                    2849 	.db	0
      000514 05                    2850 	.uleb128	5
      000515 02                    2851 	.db	2
      000516 00 00r04r1D           2852 	.dw	0,(Sstm8s_uart1$UART1_LINCmd$321)
      00051A 03                    2853 	.db	3
      00051B 7D                    2854 	.sleb128	-3
      00051C 01                    2855 	.db	1
      00051D 00                    2856 	.db	0
      00051E 05                    2857 	.uleb128	5
      00051F 02                    2858 	.db	2
      000520 00 00r04r21           2859 	.dw	0,(Sstm8s_uart1$UART1_LINCmd$323)
      000524 03                    2860 	.db	3
      000525 03                    2861 	.sleb128	3
      000526 01                    2862 	.db	1
      000527 00                    2863 	.db	0
      000528 05                    2864 	.uleb128	5
      000529 02                    2865 	.db	2
      00052A 00 00r04r28           2866 	.dw	0,(Sstm8s_uart1$UART1_LINCmd$326)
      00052E 03                    2867 	.db	3
      00052F 05                    2868 	.sleb128	5
      000530 01                    2869 	.db	1
      000531 00                    2870 	.db	0
      000532 05                    2871 	.uleb128	5
      000533 02                    2872 	.db	2
      000534 00 00r04r2D           2873 	.dw	0,(Sstm8s_uart1$UART1_LINCmd$328)
      000538 03                    2874 	.db	3
      000539 02                    2875 	.sleb128	2
      00053A 01                    2876 	.db	1
      00053B 09                    2877 	.db	9
      00053C 00 02                 2878 	.dw	1+Sstm8s_uart1$UART1_LINCmd$330-Sstm8s_uart1$UART1_LINCmd$328
      00053E 00                    2879 	.db	0
      00053F 01                    2880 	.uleb128	1
      000540 01                    2881 	.db	1
      000541 00                    2882 	.db	0
      000542 05                    2883 	.uleb128	5
      000543 02                    2884 	.db	2
      000544 00 00r04r2F           2885 	.dw	0,(Sstm8s_uart1$UART1_SmartCardCmd$332)
      000548 03                    2886 	.db	3
      000549 F2 02                 2887 	.sleb128	370
      00054B 01                    2888 	.db	1
      00054C 00                    2889 	.db	0
      00054D 05                    2890 	.uleb128	5
      00054E 02                    2891 	.db	2
      00054F 00 00r04r30           2892 	.dw	0,(Sstm8s_uart1$UART1_SmartCardCmd$335)
      000553 03                    2893 	.db	3
      000554 02                    2894 	.sleb128	2
      000555 01                    2895 	.db	1
      000556 00                    2896 	.db	0
      000557 05                    2897 	.uleb128	5
      000558 02                    2898 	.db	2
      000559 00 00r04r44           2899 	.dw	0,(Sstm8s_uart1$UART1_SmartCardCmd$340)
      00055D 03                    2900 	.db	3
      00055E 05                    2901 	.sleb128	5
      00055F 01                    2902 	.db	1
      000560 00                    2903 	.db	0
      000561 05                    2904 	.uleb128	5
      000562 02                    2905 	.db	2
      000563 00 00r04r47           2906 	.dw	0,(Sstm8s_uart1$UART1_SmartCardCmd$341)
      000567 03                    2907 	.db	3
      000568 7D                    2908 	.sleb128	-3
      000569 01                    2909 	.db	1
      00056A 00                    2910 	.db	0
      00056B 05                    2911 	.uleb128	5
      00056C 02                    2912 	.db	2
      00056D 00 00r04r4B           2913 	.dw	0,(Sstm8s_uart1$UART1_SmartCardCmd$343)
      000571 03                    2914 	.db	3
      000572 03                    2915 	.sleb128	3
      000573 01                    2916 	.db	1
      000574 00                    2917 	.db	0
      000575 05                    2918 	.uleb128	5
      000576 02                    2919 	.db	2
      000577 00 00r04r52           2920 	.dw	0,(Sstm8s_uart1$UART1_SmartCardCmd$346)
      00057B 03                    2921 	.db	3
      00057C 05                    2922 	.sleb128	5
      00057D 01                    2923 	.db	1
      00057E 00                    2924 	.db	0
      00057F 05                    2925 	.uleb128	5
      000580 02                    2926 	.db	2
      000581 00 00r04r57           2927 	.dw	0,(Sstm8s_uart1$UART1_SmartCardCmd$348)
      000585 03                    2928 	.db	3
      000586 02                    2929 	.sleb128	2
      000587 01                    2930 	.db	1
      000588 09                    2931 	.db	9
      000589 00 02                 2932 	.dw	1+Sstm8s_uart1$UART1_SmartCardCmd$350-Sstm8s_uart1$UART1_SmartCardCmd$348
      00058B 00                    2933 	.db	0
      00058C 01                    2934 	.uleb128	1
      00058D 01                    2935 	.db	1
      00058E 00                    2936 	.db	0
      00058F 05                    2937 	.uleb128	5
      000590 02                    2938 	.db	2
      000591 00 00r04r59           2939 	.dw	0,(Sstm8s_uart1$UART1_SmartCardNACKCmd$352)
      000595 03                    2940 	.db	3
      000596 89 03                 2941 	.sleb128	393
      000598 01                    2942 	.db	1
      000599 00                    2943 	.db	0
      00059A 05                    2944 	.uleb128	5
      00059B 02                    2945 	.db	2
      00059C 00 00r04r5A           2946 	.dw	0,(Sstm8s_uart1$UART1_SmartCardNACKCmd$355)
      0005A0 03                    2947 	.db	3
      0005A1 02                    2948 	.sleb128	2
      0005A2 01                    2949 	.db	1
      0005A3 00                    2950 	.db	0
      0005A4 05                    2951 	.uleb128	5
      0005A5 02                    2952 	.db	2
      0005A6 00 00r04r6E           2953 	.dw	0,(Sstm8s_uart1$UART1_SmartCardNACKCmd$360)
      0005AA 03                    2954 	.db	3
      0005AB 05                    2955 	.sleb128	5
      0005AC 01                    2956 	.db	1
      0005AD 00                    2957 	.db	0
      0005AE 05                    2958 	.uleb128	5
      0005AF 02                    2959 	.db	2
      0005B0 00 00r04r71           2960 	.dw	0,(Sstm8s_uart1$UART1_SmartCardNACKCmd$361)
      0005B4 03                    2961 	.db	3
      0005B5 7D                    2962 	.sleb128	-3
      0005B6 01                    2963 	.db	1
      0005B7 00                    2964 	.db	0
      0005B8 05                    2965 	.uleb128	5
      0005B9 02                    2966 	.db	2
      0005BA 00 00r04r75           2967 	.dw	0,(Sstm8s_uart1$UART1_SmartCardNACKCmd$363)
      0005BE 03                    2968 	.db	3
      0005BF 03                    2969 	.sleb128	3
      0005C0 01                    2970 	.db	1
      0005C1 00                    2971 	.db	0
      0005C2 05                    2972 	.uleb128	5
      0005C3 02                    2973 	.db	2
      0005C4 00 00r04r7C           2974 	.dw	0,(Sstm8s_uart1$UART1_SmartCardNACKCmd$366)
      0005C8 03                    2975 	.db	3
      0005C9 05                    2976 	.sleb128	5
      0005CA 01                    2977 	.db	1
      0005CB 00                    2978 	.db	0
      0005CC 05                    2979 	.uleb128	5
      0005CD 02                    2980 	.db	2
      0005CE 00 00r04r81           2981 	.dw	0,(Sstm8s_uart1$UART1_SmartCardNACKCmd$368)
      0005D2 03                    2982 	.db	3
      0005D3 02                    2983 	.sleb128	2
      0005D4 01                    2984 	.db	1
      0005D5 09                    2985 	.db	9
      0005D6 00 02                 2986 	.dw	1+Sstm8s_uart1$UART1_SmartCardNACKCmd$370-Sstm8s_uart1$UART1_SmartCardNACKCmd$368
      0005D8 00                    2987 	.db	0
      0005D9 01                    2988 	.uleb128	1
      0005DA 01                    2989 	.db	1
      0005DB 00                    2990 	.db	0
      0005DC 05                    2991 	.uleb128	5
      0005DD 02                    2992 	.db	2
      0005DE 00 00r04r83           2993 	.dw	0,(Sstm8s_uart1$UART1_WakeUpConfig$372)
      0005E2 03                    2994 	.db	3
      0005E3 9F 03                 2995 	.sleb128	415
      0005E5 01                    2996 	.db	1
      0005E6 00                    2997 	.db	0
      0005E7 05                    2998 	.uleb128	5
      0005E8 02                    2999 	.db	2
      0005E9 00 00r04r84           3000 	.dw	0,(Sstm8s_uart1$UART1_WakeUpConfig$375)
      0005ED 03                    3001 	.db	3
      0005EE 02                    3002 	.sleb128	2
      0005EF 01                    3003 	.db	1
      0005F0 00                    3004 	.db	0
      0005F1 05                    3005 	.uleb128	5
      0005F2 02                    3006 	.db	2
      0005F3 00 00r04r9A           3007 	.dw	0,(Sstm8s_uart1$UART1_WakeUpConfig$381)
      0005F7 03                    3008 	.db	3
      0005F8 02                    3009 	.sleb128	2
      0005F9 01                    3010 	.db	1
      0005FA 00                    3011 	.db	0
      0005FB 05                    3012 	.uleb128	5
      0005FC 02                    3013 	.db	2
      0005FD 00 00r04r9E           3014 	.dw	0,(Sstm8s_uart1$UART1_WakeUpConfig$382)
      000601 03                    3015 	.db	3
      000602 01                    3016 	.sleb128	1
      000603 01                    3017 	.db	1
      000604 00                    3018 	.db	0
      000605 05                    3019 	.uleb128	5
      000606 02                    3020 	.db	2
      000607 00 00r04rA6           3021 	.dw	0,(Sstm8s_uart1$UART1_WakeUpConfig$383)
      00060B 03                    3022 	.db	3
      00060C 01                    3023 	.sleb128	1
      00060D 01                    3024 	.db	1
      00060E 09                    3025 	.db	9
      00060F 00 02                 3026 	.dw	1+Sstm8s_uart1$UART1_WakeUpConfig$385-Sstm8s_uart1$UART1_WakeUpConfig$383
      000611 00                    3027 	.db	0
      000612 01                    3028 	.uleb128	1
      000613 01                    3029 	.db	1
      000614 00                    3030 	.db	0
      000615 05                    3031 	.uleb128	5
      000616 02                    3032 	.db	2
      000617 00 00r04rA8           3033 	.dw	0,(Sstm8s_uart1$UART1_ReceiverWakeUpCmd$387)
      00061B 03                    3034 	.db	3
      00061C AD 03                 3035 	.sleb128	429
      00061E 01                    3036 	.db	1
      00061F 00                    3037 	.db	0
      000620 05                    3038 	.uleb128	5
      000621 02                    3039 	.db	2
      000622 00 00r04rA9           3040 	.dw	0,(Sstm8s_uart1$UART1_ReceiverWakeUpCmd$390)
      000626 03                    3041 	.db	3
      000627 02                    3042 	.sleb128	2
      000628 01                    3043 	.db	1
      000629 00                    3044 	.db	0
      00062A 05                    3045 	.uleb128	5
      00062B 02                    3046 	.db	2
      00062C 00 00r04rBD           3047 	.dw	0,(Sstm8s_uart1$UART1_ReceiverWakeUpCmd$395)
      000630 03                    3048 	.db	3
      000631 05                    3049 	.sleb128	5
      000632 01                    3050 	.db	1
      000633 00                    3051 	.db	0
      000634 05                    3052 	.uleb128	5
      000635 02                    3053 	.db	2
      000636 00 00r04rC0           3054 	.dw	0,(Sstm8s_uart1$UART1_ReceiverWakeUpCmd$396)
      00063A 03                    3055 	.db	3
      00063B 7D                    3056 	.sleb128	-3
      00063C 01                    3057 	.db	1
      00063D 00                    3058 	.db	0
      00063E 05                    3059 	.uleb128	5
      00063F 02                    3060 	.db	2
      000640 00 00r04rC4           3061 	.dw	0,(Sstm8s_uart1$UART1_ReceiverWakeUpCmd$398)
      000644 03                    3062 	.db	3
      000645 03                    3063 	.sleb128	3
      000646 01                    3064 	.db	1
      000647 00                    3065 	.db	0
      000648 05                    3066 	.uleb128	5
      000649 02                    3067 	.db	2
      00064A 00 00r04rCB           3068 	.dw	0,(Sstm8s_uart1$UART1_ReceiverWakeUpCmd$401)
      00064E 03                    3069 	.db	3
      00064F 05                    3070 	.sleb128	5
      000650 01                    3071 	.db	1
      000651 00                    3072 	.db	0
      000652 05                    3073 	.uleb128	5
      000653 02                    3074 	.db	2
      000654 00 00r04rD0           3075 	.dw	0,(Sstm8s_uart1$UART1_ReceiverWakeUpCmd$403)
      000658 03                    3076 	.db	3
      000659 02                    3077 	.sleb128	2
      00065A 01                    3078 	.db	1
      00065B 09                    3079 	.db	9
      00065C 00 02                 3080 	.dw	1+Sstm8s_uart1$UART1_ReceiverWakeUpCmd$405-Sstm8s_uart1$UART1_ReceiverWakeUpCmd$403
      00065E 00                    3081 	.db	0
      00065F 01                    3082 	.uleb128	1
      000660 01                    3083 	.db	1
      000661 00                    3084 	.db	0
      000662 05                    3085 	.uleb128	5
      000663 02                    3086 	.db	2
      000664 00 00r04rD2           3087 	.dw	0,(Sstm8s_uart1$UART1_ReceiveData8$407)
      000668 03                    3088 	.db	3
      000669 C2 03                 3089 	.sleb128	450
      00066B 01                    3090 	.db	1
      00066C 00                    3091 	.db	0
      00066D 05                    3092 	.uleb128	5
      00066E 02                    3093 	.db	2
      00066F 00 00r04rD2           3094 	.dw	0,(Sstm8s_uart1$UART1_ReceiveData8$409)
      000673 03                    3095 	.db	3
      000674 02                    3096 	.sleb128	2
      000675 01                    3097 	.db	1
      000676 00                    3098 	.db	0
      000677 05                    3099 	.uleb128	5
      000678 02                    3100 	.db	2
      000679 00 00r04rD5           3101 	.dw	0,(Sstm8s_uart1$UART1_ReceiveData8$410)
      00067D 03                    3102 	.db	3
      00067E 01                    3103 	.sleb128	1
      00067F 01                    3104 	.db	1
      000680 09                    3105 	.db	9
      000681 00 01                 3106 	.dw	1+Sstm8s_uart1$UART1_ReceiveData8$411-Sstm8s_uart1$UART1_ReceiveData8$410
      000683 00                    3107 	.db	0
      000684 01                    3108 	.uleb128	1
      000685 01                    3109 	.db	1
      000686 00                    3110 	.db	0
      000687 05                    3111 	.uleb128	5
      000688 02                    3112 	.db	2
      000689 00 00r04rD6           3113 	.dw	0,(Sstm8s_uart1$UART1_ReceiveData9$413)
      00068D 03                    3114 	.db	3
      00068E CC 03                 3115 	.sleb128	460
      000690 01                    3116 	.db	1
      000691 00                    3117 	.db	0
      000692 05                    3118 	.uleb128	5
      000693 02                    3119 	.db	2
      000694 00 00r04rD7           3120 	.dw	0,(Sstm8s_uart1$UART1_ReceiveData9$416)
      000698 03                    3121 	.db	3
      000699 04                    3122 	.sleb128	4
      00069A 01                    3123 	.db	1
      00069B 00                    3124 	.db	0
      00069C 05                    3125 	.uleb128	5
      00069D 02                    3126 	.db	2
      00069E 00 00r04rE2           3127 	.dw	0,(Sstm8s_uart1$UART1_ReceiveData9$417)
      0006A2 03                    3128 	.db	3
      0006A3 01                    3129 	.sleb128	1
      0006A4 01                    3130 	.db	1
      0006A5 00                    3131 	.db	0
      0006A6 05                    3132 	.uleb128	5
      0006A7 02                    3133 	.db	2
      0006A8 00 00r04rEE           3134 	.dw	0,(Sstm8s_uart1$UART1_ReceiveData9$418)
      0006AC 03                    3135 	.db	3
      0006AD 01                    3136 	.sleb128	1
      0006AE 01                    3137 	.db	1
      0006AF 09                    3138 	.db	9
      0006B0 00 03                 3139 	.dw	1+Sstm8s_uart1$UART1_ReceiveData9$420-Sstm8s_uart1$UART1_ReceiveData9$418
      0006B2 00                    3140 	.db	0
      0006B3 01                    3141 	.uleb128	1
      0006B4 01                    3142 	.db	1
      0006B5 00                    3143 	.db	0
      0006B6 05                    3144 	.uleb128	5
      0006B7 02                    3145 	.db	2
      0006B8 00 00r04rF1           3146 	.dw	0,(Sstm8s_uart1$UART1_SendData8$422)
      0006BC 03                    3147 	.db	3
      0006BD D9 03                 3148 	.sleb128	473
      0006BF 01                    3149 	.db	1
      0006C0 00                    3150 	.db	0
      0006C1 05                    3151 	.uleb128	5
      0006C2 02                    3152 	.db	2
      0006C3 00 00r04rF1           3153 	.dw	0,(Sstm8s_uart1$UART1_SendData8$424)
      0006C7 03                    3154 	.db	3
      0006C8 03                    3155 	.sleb128	3
      0006C9 01                    3156 	.db	1
      0006CA 00                    3157 	.db	0
      0006CB 05                    3158 	.uleb128	5
      0006CC 02                    3159 	.db	2
      0006CD 00 00r04rF4           3160 	.dw	0,(Sstm8s_uart1$UART1_SendData8$425)
      0006D1 03                    3161 	.db	3
      0006D2 01                    3162 	.sleb128	1
      0006D3 01                    3163 	.db	1
      0006D4 09                    3164 	.db	9
      0006D5 00 01                 3165 	.dw	1+Sstm8s_uart1$UART1_SendData8$426-Sstm8s_uart1$UART1_SendData8$425
      0006D7 00                    3166 	.db	0
      0006D8 01                    3167 	.uleb128	1
      0006D9 01                    3168 	.db	1
      0006DA 00                    3169 	.db	0
      0006DB 05                    3170 	.uleb128	5
      0006DC 02                    3171 	.db	2
      0006DD 00 00r04rF5           3172 	.dw	0,(Sstm8s_uart1$UART1_SendData9$428)
      0006E1 03                    3173 	.db	3
      0006E2 E5 03                 3174 	.sleb128	485
      0006E4 01                    3175 	.db	1
      0006E5 00                    3176 	.db	0
      0006E6 05                    3177 	.uleb128	5
      0006E7 02                    3178 	.db	2
      0006E8 00 00r04rF7           3179 	.dw	0,(Sstm8s_uart1$UART1_SendData9$431)
      0006EC 03                    3180 	.db	3
      0006ED 03                    3181 	.sleb128	3
      0006EE 01                    3182 	.db	1
      0006EF 00                    3183 	.db	0
      0006F0 05                    3184 	.uleb128	5
      0006F1 02                    3185 	.db	2
      0006F2 00 00r04rFB           3186 	.dw	0,(Sstm8s_uart1$UART1_SendData9$432)
      0006F6 03                    3187 	.db	3
      0006F7 02                    3188 	.sleb128	2
      0006F8 01                    3189 	.db	1
      0006F9 00                    3190 	.db	0
      0006FA 05                    3191 	.uleb128	5
      0006FB 02                    3192 	.db	2
      0006FC 00 00r05r0B           3193 	.dw	0,(Sstm8s_uart1$UART1_SendData9$433)
      000700 03                    3194 	.db	3
      000701 02                    3195 	.sleb128	2
      000702 01                    3196 	.db	1
      000703 00                    3197 	.db	0
      000704 05                    3198 	.uleb128	5
      000705 02                    3199 	.db	2
      000706 00 00r05r10           3200 	.dw	0,(Sstm8s_uart1$UART1_SendData9$434)
      00070A 03                    3201 	.db	3
      00070B 01                    3202 	.sleb128	1
      00070C 01                    3203 	.db	1
      00070D 09                    3204 	.db	9
      00070E 00 02                 3205 	.dw	1+Sstm8s_uart1$UART1_SendData9$436-Sstm8s_uart1$UART1_SendData9$434
      000710 00                    3206 	.db	0
      000711 01                    3207 	.uleb128	1
      000712 01                    3208 	.db	1
      000713 00                    3209 	.db	0
      000714 05                    3210 	.uleb128	5
      000715 02                    3211 	.db	2
      000716 00 00r05r12           3212 	.dw	0,(Sstm8s_uart1$UART1_SendBreak$438)
      00071A 03                    3213 	.db	3
      00071B F4 03                 3214 	.sleb128	500
      00071D 01                    3215 	.db	1
      00071E 00                    3216 	.db	0
      00071F 05                    3217 	.uleb128	5
      000720 02                    3218 	.db	2
      000721 00 00r05r12           3219 	.dw	0,(Sstm8s_uart1$UART1_SendBreak$440)
      000725 03                    3220 	.db	3
      000726 02                    3221 	.sleb128	2
      000727 01                    3222 	.db	1
      000728 00                    3223 	.db	0
      000729 05                    3224 	.uleb128	5
      00072A 02                    3225 	.db	2
      00072B 00 00r05r16           3226 	.dw	0,(Sstm8s_uart1$UART1_SendBreak$441)
      00072F 03                    3227 	.db	3
      000730 01                    3228 	.sleb128	1
      000731 01                    3229 	.db	1
      000732 09                    3230 	.db	9
      000733 00 01                 3231 	.dw	1+Sstm8s_uart1$UART1_SendBreak$442-Sstm8s_uart1$UART1_SendBreak$441
      000735 00                    3232 	.db	0
      000736 01                    3233 	.uleb128	1
      000737 01                    3234 	.db	1
      000738 00                    3235 	.db	0
      000739 05                    3236 	.uleb128	5
      00073A 02                    3237 	.db	2
      00073B 00 00r05r17           3238 	.dw	0,(Sstm8s_uart1$UART1_SetAddress$444)
      00073F 03                    3239 	.db	3
      000740 FE 03                 3240 	.sleb128	510
      000742 01                    3241 	.db	1
      000743 00                    3242 	.db	0
      000744 05                    3243 	.uleb128	5
      000745 02                    3244 	.db	2
      000746 00 00r05r18           3245 	.dw	0,(Sstm8s_uart1$UART1_SetAddress$447)
      00074A 03                    3246 	.db	3
      00074B 03                    3247 	.sleb128	3
      00074C 01                    3248 	.db	1
      00074D 00                    3249 	.db	0
      00074E 05                    3250 	.uleb128	5
      00074F 02                    3251 	.db	2
      000750 00 00r05r2A           3252 	.dw	0,(Sstm8s_uart1$UART1_SetAddress$452)
      000754 03                    3253 	.db	3
      000755 03                    3254 	.sleb128	3
      000756 01                    3255 	.db	1
      000757 00                    3256 	.db	0
      000758 05                    3257 	.uleb128	5
      000759 02                    3258 	.db	2
      00075A 00 00r05r32           3259 	.dw	0,(Sstm8s_uart1$UART1_SetAddress$453)
      00075E 03                    3260 	.db	3
      00075F 02                    3261 	.sleb128	2
      000760 01                    3262 	.db	1
      000761 00                    3263 	.db	0
      000762 05                    3264 	.uleb128	5
      000763 02                    3265 	.db	2
      000764 00 00r05r3A           3266 	.dw	0,(Sstm8s_uart1$UART1_SetAddress$454)
      000768 03                    3267 	.db	3
      000769 01                    3268 	.sleb128	1
      00076A 01                    3269 	.db	1
      00076B 09                    3270 	.db	9
      00076C 00 02                 3271 	.dw	1+Sstm8s_uart1$UART1_SetAddress$456-Sstm8s_uart1$UART1_SetAddress$454
      00076E 00                    3272 	.db	0
      00076F 01                    3273 	.uleb128	1
      000770 01                    3274 	.db	1
      000771 00                    3275 	.db	0
      000772 05                    3276 	.uleb128	5
      000773 02                    3277 	.db	2
      000774 00 00r05r3C           3278 	.dw	0,(Sstm8s_uart1$UART1_SetGuardTime$458)
      000778 03                    3279 	.db	3
      000779 8F 04                 3280 	.sleb128	527
      00077B 01                    3281 	.db	1
      00077C 00                    3282 	.db	0
      00077D 05                    3283 	.uleb128	5
      00077E 02                    3284 	.db	2
      00077F 00 00r05r3C           3285 	.dw	0,(Sstm8s_uart1$UART1_SetGuardTime$460)
      000783 03                    3286 	.db	3
      000784 03                    3287 	.sleb128	3
      000785 01                    3288 	.db	1
      000786 00                    3289 	.db	0
      000787 05                    3290 	.uleb128	5
      000788 02                    3291 	.db	2
      000789 00 00r05r3F           3292 	.dw	0,(Sstm8s_uart1$UART1_SetGuardTime$461)
      00078D 03                    3293 	.db	3
      00078E 01                    3294 	.sleb128	1
      00078F 01                    3295 	.db	1
      000790 09                    3296 	.db	9
      000791 00 01                 3297 	.dw	1+Sstm8s_uart1$UART1_SetGuardTime$462-Sstm8s_uart1$UART1_SetGuardTime$461
      000793 00                    3298 	.db	0
      000794 01                    3299 	.uleb128	1
      000795 01                    3300 	.db	1
      000796 00                    3301 	.db	0
      000797 05                    3302 	.uleb128	5
      000798 02                    3303 	.db	2
      000799 00 00r05r40           3304 	.dw	0,(Sstm8s_uart1$UART1_SetPrescaler$464)
      00079D 03                    3305 	.db	3
      00079E AB 04                 3306 	.sleb128	555
      0007A0 01                    3307 	.db	1
      0007A1 00                    3308 	.db	0
      0007A2 05                    3309 	.uleb128	5
      0007A3 02                    3310 	.db	2
      0007A4 00 00r05r40           3311 	.dw	0,(Sstm8s_uart1$UART1_SetPrescaler$466)
      0007A8 03                    3312 	.db	3
      0007A9 03                    3313 	.sleb128	3
      0007AA 01                    3314 	.db	1
      0007AB 00                    3315 	.db	0
      0007AC 05                    3316 	.uleb128	5
      0007AD 02                    3317 	.db	2
      0007AE 00 00r05r43           3318 	.dw	0,(Sstm8s_uart1$UART1_SetPrescaler$467)
      0007B2 03                    3319 	.db	3
      0007B3 01                    3320 	.sleb128	1
      0007B4 01                    3321 	.db	1
      0007B5 09                    3322 	.db	9
      0007B6 00 01                 3323 	.dw	1+Sstm8s_uart1$UART1_SetPrescaler$468-Sstm8s_uart1$UART1_SetPrescaler$467
      0007B8 00                    3324 	.db	0
      0007B9 01                    3325 	.uleb128	1
      0007BA 01                    3326 	.db	1
      0007BB 00                    3327 	.db	0
      0007BC 05                    3328 	.uleb128	5
      0007BD 02                    3329 	.db	2
      0007BE 00 00r05r44           3330 	.dw	0,(Sstm8s_uart1$UART1_GetFlagStatus$470)
      0007C2 03                    3331 	.db	3
      0007C3 B7 04                 3332 	.sleb128	567
      0007C5 01                    3333 	.db	1
      0007C6 00                    3334 	.db	0
      0007C7 05                    3335 	.uleb128	5
      0007C8 02                    3336 	.db	2
      0007C9 00 00r05r45           3337 	.dw	0,(Sstm8s_uart1$UART1_GetFlagStatus$473)
      0007CD 03                    3338 	.db	3
      0007CE 05                    3339 	.sleb128	5
      0007CF 01                    3340 	.db	1
      0007D0 00                    3341 	.db	0
      0007D1 05                    3342 	.uleb128	5
      0007D2 02                    3343 	.db	2
      0007D3 00 00r05r9B           3344 	.dw	0,(Sstm8s_uart1$UART1_GetFlagStatus$492)
      0007D7 03                    3345 	.db	3
      0007D8 06                    3346 	.sleb128	6
      0007D9 01                    3347 	.db	1
      0007DA 00                    3348 	.db	0
      0007DB 05                    3349 	.uleb128	5
      0007DC 02                    3350 	.db	2
      0007DD 00 00r05r9F           3351 	.dw	0,(Sstm8s_uart1$UART1_GetFlagStatus$493)
      0007E1 03                    3352 	.db	3
      0007E2 7E                    3353 	.sleb128	-2
      0007E3 01                    3354 	.db	1
      0007E4 00                    3355 	.db	0
      0007E5 05                    3356 	.uleb128	5
      0007E6 02                    3357 	.db	2
      0007E7 00 00r05rA2           3358 	.dw	0,(Sstm8s_uart1$UART1_GetFlagStatus$495)
      0007EB 03                    3359 	.db	3
      0007EC 02                    3360 	.sleb128	2
      0007ED 01                    3361 	.db	1
      0007EE 00                    3362 	.db	0
      0007EF 05                    3363 	.uleb128	5
      0007F0 02                    3364 	.db	2
      0007F1 00 00r05rA9           3365 	.dw	0,(Sstm8s_uart1$UART1_GetFlagStatus$497)
      0007F5 03                    3366 	.db	3
      0007F6 03                    3367 	.sleb128	3
      0007F7 01                    3368 	.db	1
      0007F8 00                    3369 	.db	0
      0007F9 05                    3370 	.uleb128	5
      0007FA 02                    3371 	.db	2
      0007FB 00 00r05rAD           3372 	.dw	0,(Sstm8s_uart1$UART1_GetFlagStatus$500)
      0007FF 03                    3373 	.db	3
      000800 05                    3374 	.sleb128	5
      000801 01                    3375 	.db	1
      000802 00                    3376 	.db	0
      000803 05                    3377 	.uleb128	5
      000804 02                    3378 	.db	2
      000805 00 00r05rB0           3379 	.dw	0,(Sstm8s_uart1$UART1_GetFlagStatus$502)
      000809 03                    3380 	.db	3
      00080A 03                    3381 	.sleb128	3
      00080B 01                    3382 	.db	1
      00080C 00                    3383 	.db	0
      00080D 05                    3384 	.uleb128	5
      00080E 02                    3385 	.db	2
      00080F 00 00r05rB4           3386 	.dw	0,(Sstm8s_uart1$UART1_GetFlagStatus$504)
      000813 03                    3387 	.db	3
      000814 02                    3388 	.sleb128	2
      000815 01                    3389 	.db	1
      000816 00                    3390 	.db	0
      000817 05                    3391 	.uleb128	5
      000818 02                    3392 	.db	2
      000819 00 00r05rBB           3393 	.dw	0,(Sstm8s_uart1$UART1_GetFlagStatus$506)
      00081D 03                    3394 	.db	3
      00081E 03                    3395 	.sleb128	3
      00081F 01                    3396 	.db	1
      000820 00                    3397 	.db	0
      000821 05                    3398 	.uleb128	5
      000822 02                    3399 	.db	2
      000823 00 00r05rBF           3400 	.dw	0,(Sstm8s_uart1$UART1_GetFlagStatus$509)
      000827 03                    3401 	.db	3
      000828 05                    3402 	.sleb128	5
      000829 01                    3403 	.db	1
      00082A 00                    3404 	.db	0
      00082B 05                    3405 	.uleb128	5
      00082C 02                    3406 	.db	2
      00082D 00 00r05rC2           3407 	.dw	0,(Sstm8s_uart1$UART1_GetFlagStatus$512)
      000831 03                    3408 	.db	3
      000832 05                    3409 	.sleb128	5
      000833 01                    3410 	.db	1
      000834 00                    3411 	.db	0
      000835 05                    3412 	.uleb128	5
      000836 02                    3413 	.db	2
      000837 00 00r05rC9           3414 	.dw	0,(Sstm8s_uart1$UART1_GetFlagStatus$514)
      00083B 03                    3415 	.db	3
      00083C 03                    3416 	.sleb128	3
      00083D 01                    3417 	.db	1
      00083E 00                    3418 	.db	0
      00083F 05                    3419 	.uleb128	5
      000840 02                    3420 	.db	2
      000841 00 00r05rCB           3421 	.dw	0,(Sstm8s_uart1$UART1_GetFlagStatus$517)
      000845 03                    3422 	.db	3
      000846 05                    3423 	.sleb128	5
      000847 01                    3424 	.db	1
      000848 00                    3425 	.db	0
      000849 05                    3426 	.uleb128	5
      00084A 02                    3427 	.db	2
      00084B 00 00r05rCD           3428 	.dw	0,(Sstm8s_uart1$UART1_GetFlagStatus$519)
      00084F 03                    3429 	.db	3
      000850 04                    3430 	.sleb128	4
      000851 01                    3431 	.db	1
      000852 00                    3432 	.db	0
      000853 05                    3433 	.uleb128	5
      000854 02                    3434 	.db	2
      000855 00 00r05rCD           3435 	.dw	0,(Sstm8s_uart1$UART1_GetFlagStatus$520)
      000859 03                    3436 	.db	3
      00085A 01                    3437 	.sleb128	1
      00085B 01                    3438 	.db	1
      00085C 09                    3439 	.db	9
      00085D 00 02                 3440 	.dw	1+Sstm8s_uart1$UART1_GetFlagStatus$522-Sstm8s_uart1$UART1_GetFlagStatus$520
      00085F 00                    3441 	.db	0
      000860 01                    3442 	.uleb128	1
      000861 01                    3443 	.db	1
      000862 00                    3444 	.db	0
      000863 05                    3445 	.uleb128	5
      000864 02                    3446 	.db	2
      000865 00 00r05rCF           3447 	.dw	0,(Sstm8s_uart1$UART1_ClearFlag$524)
      000869 03                    3448 	.db	3
      00086A 85 05                 3449 	.sleb128	645
      00086C 01                    3450 	.db	1
      00086D 00                    3451 	.db	0
      00086E 05                    3452 	.uleb128	5
      00086F 02                    3453 	.db	2
      000870 00 00r05rCF           3454 	.dw	0,(Sstm8s_uart1$UART1_ClearFlag$526)
      000874 03                    3455 	.db	3
      000875 02                    3456 	.sleb128	2
      000876 01                    3457 	.db	1
      000877 00                    3458 	.db	0
      000878 05                    3459 	.uleb128	5
      000879 02                    3460 	.db	2
      00087A 00 00r05rEE           3461 	.dw	0,(Sstm8s_uart1$UART1_ClearFlag$535)
      00087E 03                    3462 	.db	3
      00087F 03                    3463 	.sleb128	3
      000880 01                    3464 	.db	1
      000881 00                    3465 	.db	0
      000882 05                    3466 	.uleb128	5
      000883 02                    3467 	.db	2
      000884 00 00r05rF1           3468 	.dw	0,(Sstm8s_uart1$UART1_ClearFlag$537)
      000888 03                    3469 	.db	3
      000889 02                    3470 	.sleb128	2
      00088A 01                    3471 	.db	1
      00088B 00                    3472 	.db	0
      00088C 05                    3473 	.uleb128	5
      00088D 02                    3474 	.db	2
      00088E 00 00r05rF6           3475 	.dw	0,(Sstm8s_uart1$UART1_ClearFlag$540)
      000892 03                    3476 	.db	3
      000893 05                    3477 	.sleb128	5
      000894 01                    3478 	.db	1
      000895 00                    3479 	.db	0
      000896 05                    3480 	.uleb128	5
      000897 02                    3481 	.db	2
      000898 00 00r05rFA           3482 	.dw	0,(Sstm8s_uart1$UART1_ClearFlag$542)
      00089C 03                    3483 	.db	3
      00089D 02                    3484 	.sleb128	2
      00089E 01                    3485 	.db	1
      00089F 09                    3486 	.db	9
      0008A0 00 01                 3487 	.dw	1+Sstm8s_uart1$UART1_ClearFlag$543-Sstm8s_uart1$UART1_ClearFlag$542
      0008A2 00                    3488 	.db	0
      0008A3 01                    3489 	.uleb128	1
      0008A4 01                    3490 	.db	1
      0008A5 00                    3491 	.db	0
      0008A6 05                    3492 	.uleb128	5
      0008A7 02                    3493 	.db	2
      0008A8 00 00r05rFB           3494 	.dw	0,(Sstm8s_uart1$UART1_GetITStatus$545)
      0008AC 03                    3495 	.db	3
      0008AD A2 05                 3496 	.sleb128	674
      0008AF 01                    3497 	.db	1
      0008B0 00                    3498 	.db	0
      0008B1 05                    3499 	.uleb128	5
      0008B2 02                    3500 	.db	2
      0008B3 00 00r05rFD           3501 	.dw	0,(Sstm8s_uart1$UART1_GetITStatus$548)
      0008B7 03                    3502 	.db	3
      0008B8 09                    3503 	.sleb128	9
      0008B9 01                    3504 	.db	1
      0008BA 00                    3505 	.db	0
      0008BB 05                    3506 	.uleb128	5
      0008BC 02                    3507 	.db	2
      0008BD 00 00r06r48           3508 	.dw	0,(Sstm8s_uart1$UART1_GetITStatus$562)
      0008C1 03                    3509 	.db	3
      0008C2 03                    3510 	.sleb128	3
      0008C3 01                    3511 	.db	1
      0008C4 00                    3512 	.db	0
      0008C5 05                    3513 	.uleb128	5
      0008C6 02                    3514 	.db	2
      0008C7 00 00r06r5A           3515 	.dw	0,(Sstm8s_uart1$UART1_GetITStatus$565)
      0008CB 03                    3516 	.db	3
      0008CC 02                    3517 	.sleb128	2
      0008CD 01                    3518 	.db	1
      0008CE 00                    3519 	.db	0
      0008CF 05                    3520 	.uleb128	5
      0008D0 02                    3521 	.db	2
      0008D1 00 00r06r5E           3522 	.dw	0,(Sstm8s_uart1$UART1_GetITStatus$566)
      0008D5 03                    3523 	.db	3
      0008D6 02                    3524 	.sleb128	2
      0008D7 01                    3525 	.db	1
      0008D8 00                    3526 	.db	0
      0008D9 05                    3527 	.uleb128	5
      0008DA 02                    3528 	.db	2
      0008DB 00 00r06r6C           3529 	.dw	0,(Sstm8s_uart1$UART1_GetITStatus$569)
      0008DF 03                    3530 	.db	3
      0008E0 04                    3531 	.sleb128	4
      0008E1 01                    3532 	.db	1
      0008E2 00                    3533 	.db	0
      0008E3 05                    3534 	.uleb128	5
      0008E4 02                    3535 	.db	2
      0008E5 00 00r06r70           3536 	.dw	0,(Sstm8s_uart1$UART1_GetITStatus$571)
      0008E9 03                    3537 	.db	3
      0008EA 03                    3538 	.sleb128	3
      0008EB 01                    3539 	.db	1
      0008EC 00                    3540 	.db	0
      0008ED 05                    3541 	.uleb128	5
      0008EE 02                    3542 	.db	2
      0008EF 00 00r06r76           3543 	.dw	0,(Sstm8s_uart1$UART1_GetITStatus$572)
      0008F3 03                    3544 	.db	3
      0008F4 03                    3545 	.sleb128	3
      0008F5 01                    3546 	.db	1
      0008F6 00                    3547 	.db	0
      0008F7 05                    3548 	.uleb128	5
      0008F8 02                    3549 	.db	2
      0008F9 00 00r06r81           3550 	.dw	0,(Sstm8s_uart1$UART1_GetITStatus$574)
      0008FD 03                    3551 	.db	3
      0008FE 03                    3552 	.sleb128	3
      0008FF 01                    3553 	.db	1
      000900 00                    3554 	.db	0
      000901 05                    3555 	.uleb128	5
      000902 02                    3556 	.db	2
      000903 00 00r06r85           3557 	.dw	0,(Sstm8s_uart1$UART1_GetITStatus$577)
      000907 03                    3558 	.db	3
      000908 05                    3559 	.sleb128	5
      000909 01                    3560 	.db	1
      00090A 00                    3561 	.db	0
      00090B 05                    3562 	.uleb128	5
      00090C 02                    3563 	.db	2
      00090D 00 00r06r88           3564 	.dw	0,(Sstm8s_uart1$UART1_GetITStatus$579)
      000911 03                    3565 	.db	3
      000912 04                    3566 	.sleb128	4
      000913 01                    3567 	.db	1
      000914 00                    3568 	.db	0
      000915 05                    3569 	.uleb128	5
      000916 02                    3570 	.db	2
      000917 00 00r06r8C           3571 	.dw	0,(Sstm8s_uart1$UART1_GetITStatus$581)
      00091B 03                    3572 	.db	3
      00091C 03                    3573 	.sleb128	3
      00091D 01                    3574 	.db	1
      00091E 00                    3575 	.db	0
      00091F 05                    3576 	.uleb128	5
      000920 02                    3577 	.db	2
      000921 00 00r06r92           3578 	.dw	0,(Sstm8s_uart1$UART1_GetITStatus$582)
      000925 03                    3579 	.db	3
      000926 02                    3580 	.sleb128	2
      000927 01                    3581 	.db	1
      000928 00                    3582 	.db	0
      000929 05                    3583 	.uleb128	5
      00092A 02                    3584 	.db	2
      00092B 00 00r06r9D           3585 	.dw	0,(Sstm8s_uart1$UART1_GetITStatus$584)
      00092F 03                    3586 	.db	3
      000930 03                    3587 	.sleb128	3
      000931 01                    3588 	.db	1
      000932 00                    3589 	.db	0
      000933 05                    3590 	.uleb128	5
      000934 02                    3591 	.db	2
      000935 00 00r06rA1           3592 	.dw	0,(Sstm8s_uart1$UART1_GetITStatus$587)
      000939 03                    3593 	.db	3
      00093A 05                    3594 	.sleb128	5
      00093B 01                    3595 	.db	1
      00093C 00                    3596 	.db	0
      00093D 05                    3597 	.uleb128	5
      00093E 02                    3598 	.db	2
      00093F 00 00r06rA4           3599 	.dw	0,(Sstm8s_uart1$UART1_GetITStatus$590)
      000943 03                    3600 	.db	3
      000944 06                    3601 	.sleb128	6
      000945 01                    3602 	.db	1
      000946 00                    3603 	.db	0
      000947 05                    3604 	.uleb128	5
      000948 02                    3605 	.db	2
      000949 00 00r06rAA           3606 	.dw	0,(Sstm8s_uart1$UART1_GetITStatus$591)
      00094D 03                    3607 	.db	3
      00094E 02                    3608 	.sleb128	2
      00094F 01                    3609 	.db	1
      000950 00                    3610 	.db	0
      000951 05                    3611 	.uleb128	5
      000952 02                    3612 	.db	2
      000953 00 00r06rB5           3613 	.dw	0,(Sstm8s_uart1$UART1_GetITStatus$593)
      000957 03                    3614 	.db	3
      000958 03                    3615 	.sleb128	3
      000959 01                    3616 	.db	1
      00095A 00                    3617 	.db	0
      00095B 05                    3618 	.uleb128	5
      00095C 02                    3619 	.db	2
      00095D 00 00r06rB7           3620 	.dw	0,(Sstm8s_uart1$UART1_GetITStatus$596)
      000961 03                    3621 	.db	3
      000962 05                    3622 	.sleb128	5
      000963 01                    3623 	.db	1
      000964 00                    3624 	.db	0
      000965 05                    3625 	.uleb128	5
      000966 02                    3626 	.db	2
      000967 00 00r06rB9           3627 	.dw	0,(Sstm8s_uart1$UART1_GetITStatus$598)
      00096B 03                    3628 	.db	3
      00096C 05                    3629 	.sleb128	5
      00096D 01                    3630 	.db	1
      00096E 00                    3631 	.db	0
      00096F 05                    3632 	.uleb128	5
      000970 02                    3633 	.db	2
      000971 00 00r06rB9           3634 	.dw	0,(Sstm8s_uart1$UART1_GetITStatus$599)
      000975 03                    3635 	.db	3
      000976 01                    3636 	.sleb128	1
      000977 01                    3637 	.db	1
      000978 09                    3638 	.db	9
      000979 00 03                 3639 	.dw	1+Sstm8s_uart1$UART1_GetITStatus$601-Sstm8s_uart1$UART1_GetITStatus$599
      00097B 00                    3640 	.db	0
      00097C 01                    3641 	.uleb128	1
      00097D 01                    3642 	.db	1
      00097E 00                    3643 	.db	0
      00097F 05                    3644 	.uleb128	5
      000980 02                    3645 	.db	2
      000981 00 00r06rBC           3646 	.dw	0,(Sstm8s_uart1$UART1_ClearITPendingBit$603)
      000985 03                    3647 	.db	3
      000986 86 06                 3648 	.sleb128	774
      000988 01                    3649 	.db	1
      000989 00                    3650 	.db	0
      00098A 05                    3651 	.uleb128	5
      00098B 02                    3652 	.db	2
      00098C 00 00r06rBC           3653 	.dw	0,(Sstm8s_uart1$UART1_ClearITPendingBit$605)
      000990 03                    3654 	.db	3
      000991 02                    3655 	.sleb128	2
      000992 01                    3656 	.db	1
      000993 00                    3657 	.db	0
      000994 05                    3658 	.uleb128	5
      000995 02                    3659 	.db	2
      000996 00 00r06rDB           3660 	.dw	0,(Sstm8s_uart1$UART1_ClearITPendingBit$614)
      00099A 03                    3661 	.db	3
      00099B 03                    3662 	.sleb128	3
      00099C 01                    3663 	.db	1
      00099D 00                    3664 	.db	0
      00099E 05                    3665 	.uleb128	5
      00099F 02                    3666 	.db	2
      0009A0 00 00r06rDE           3667 	.dw	0,(Sstm8s_uart1$UART1_ClearITPendingBit$616)
      0009A4 03                    3668 	.db	3
      0009A5 02                    3669 	.sleb128	2
      0009A6 01                    3670 	.db	1
      0009A7 00                    3671 	.db	0
      0009A8 05                    3672 	.uleb128	5
      0009A9 02                    3673 	.db	2
      0009AA 00 00r06rE3           3674 	.dw	0,(Sstm8s_uart1$UART1_ClearITPendingBit$619)
      0009AE 03                    3675 	.db	3
      0009AF 05                    3676 	.sleb128	5
      0009B0 01                    3677 	.db	1
      0009B1 00                    3678 	.db	0
      0009B2 05                    3679 	.uleb128	5
      0009B3 02                    3680 	.db	2
      0009B4 00 00r06rE7           3681 	.dw	0,(Sstm8s_uart1$UART1_ClearITPendingBit$621)
      0009B8 03                    3682 	.db	3
      0009B9 02                    3683 	.sleb128	2
      0009BA 01                    3684 	.db	1
      0009BB 09                    3685 	.db	9
      0009BC 00 01                 3686 	.dw	1+Sstm8s_uart1$UART1_ClearITPendingBit$622-Sstm8s_uart1$UART1_ClearITPendingBit$621
      0009BE 00                    3687 	.db	0
      0009BF 01                    3688 	.uleb128	1
      0009C0 01                    3689 	.db	1
      0009C1                       3690 Ldebug_line_end:
                                   3691 
                                   3692 	.area .debug_loc (NOLOAD)
      000000                       3693 Ldebug_loc_start:
      000000 00 00r06rDB           3694 	.dw	0,(Sstm8s_uart1$UART1_ClearITPendingBit$613)
      000004 00 00r06rE8           3695 	.dw	0,(Sstm8s_uart1$UART1_ClearITPendingBit$623)
      000008 00 02                 3696 	.dw	2
      00000A 78                    3697 	.db	120
      00000B 01                    3698 	.sleb128	1
      00000C 00 00r06rDA           3699 	.dw	0,(Sstm8s_uart1$UART1_ClearITPendingBit$612)
      000010 00 00r06rDB           3700 	.dw	0,(Sstm8s_uart1$UART1_ClearITPendingBit$613)
      000014 00 02                 3701 	.dw	2
      000016 78                    3702 	.db	120
      000017 02                    3703 	.sleb128	2
      000018 00 00r06rD4           3704 	.dw	0,(Sstm8s_uart1$UART1_ClearITPendingBit$611)
      00001C 00 00r06rDA           3705 	.dw	0,(Sstm8s_uart1$UART1_ClearITPendingBit$612)
      000020 00 02                 3706 	.dw	2
      000022 78                    3707 	.db	120
      000023 06                    3708 	.sleb128	6
      000024 00 00r06rD2           3709 	.dw	0,(Sstm8s_uart1$UART1_ClearITPendingBit$610)
      000028 00 00r06rD4           3710 	.dw	0,(Sstm8s_uart1$UART1_ClearITPendingBit$611)
      00002C 00 02                 3711 	.dw	2
      00002E 78                    3712 	.db	120
      00002F 04                    3713 	.sleb128	4
      000030 00 00r06rD0           3714 	.dw	0,(Sstm8s_uart1$UART1_ClearITPendingBit$609)
      000034 00 00r06rD2           3715 	.dw	0,(Sstm8s_uart1$UART1_ClearITPendingBit$610)
      000038 00 02                 3716 	.dw	2
      00003A 78                    3717 	.db	120
      00003B 03                    3718 	.sleb128	3
      00003C 00 00r06rCE           3719 	.dw	0,(Sstm8s_uart1$UART1_ClearITPendingBit$608)
      000040 00 00r06rD0           3720 	.dw	0,(Sstm8s_uart1$UART1_ClearITPendingBit$609)
      000044 00 02                 3721 	.dw	2
      000046 78                    3722 	.db	120
      000047 02                    3723 	.sleb128	2
      000048 00 00r06rCD           3724 	.dw	0,(Sstm8s_uart1$UART1_ClearITPendingBit$607)
      00004C 00 00r06rCE           3725 	.dw	0,(Sstm8s_uart1$UART1_ClearITPendingBit$608)
      000050 00 02                 3726 	.dw	2
      000052 78                    3727 	.db	120
      000053 01                    3728 	.sleb128	1
      000054 00 00r06rC5           3729 	.dw	0,(Sstm8s_uart1$UART1_ClearITPendingBit$606)
      000058 00 00r06rCD           3730 	.dw	0,(Sstm8s_uart1$UART1_ClearITPendingBit$607)
      00005C 00 02                 3731 	.dw	2
      00005E 78                    3732 	.db	120
      00005F 01                    3733 	.sleb128	1
      000060 00 00r06rBC           3734 	.dw	0,(Sstm8s_uart1$UART1_ClearITPendingBit$604)
      000064 00 00r06rC5           3735 	.dw	0,(Sstm8s_uart1$UART1_ClearITPendingBit$606)
      000068 00 02                 3736 	.dw	2
      00006A 78                    3737 	.db	120
      00006B 01                    3738 	.sleb128	1
      00006C 00 00 00 00           3739 	.dw	0,0
      000070 00 00 00 00           3740 	.dw	0,0
      000074 00 00r06rBB           3741 	.dw	0,(Sstm8s_uart1$UART1_GetITStatus$600)
      000078 00 00r06rBC           3742 	.dw	0,(Sstm8s_uart1$UART1_GetITStatus$602)
      00007C 00 02                 3743 	.dw	2
      00007E 78                    3744 	.db	120
      00007F 01                    3745 	.sleb128	1
      000080 00 00r06r64           3746 	.dw	0,(Sstm8s_uart1$UART1_GetITStatus$568)
      000084 00 00r06rBB           3747 	.dw	0,(Sstm8s_uart1$UART1_GetITStatus$600)
      000088 00 02                 3748 	.dw	2
      00008A 78                    3749 	.db	120
      00008B 05                    3750 	.sleb128	5
      00008C 00 00r06r5F           3751 	.dw	0,(Sstm8s_uart1$UART1_GetITStatus$567)
      000090 00 00r06r64           3752 	.dw	0,(Sstm8s_uart1$UART1_GetITStatus$568)
      000094 00 02                 3753 	.dw	2
      000096 78                    3754 	.db	120
      000097 06                    3755 	.sleb128	6
      000098 00 00r06r52           3756 	.dw	0,(Sstm8s_uart1$UART1_GetITStatus$564)
      00009C 00 00r06r5F           3757 	.dw	0,(Sstm8s_uart1$UART1_GetITStatus$567)
      0000A0 00 02                 3758 	.dw	2
      0000A2 78                    3759 	.db	120
      0000A3 05                    3760 	.sleb128	5
      0000A4 00 00r06r4D           3761 	.dw	0,(Sstm8s_uart1$UART1_GetITStatus$563)
      0000A8 00 00r06r52           3762 	.dw	0,(Sstm8s_uart1$UART1_GetITStatus$564)
      0000AC 00 02                 3763 	.dw	2
      0000AE 78                    3764 	.db	120
      0000AF 06                    3765 	.sleb128	6
      0000B0 00 00r06r48           3766 	.dw	0,(Sstm8s_uart1$UART1_GetITStatus$561)
      0000B4 00 00r06r4D           3767 	.dw	0,(Sstm8s_uart1$UART1_GetITStatus$563)
      0000B8 00 02                 3768 	.dw	2
      0000BA 78                    3769 	.db	120
      0000BB 05                    3770 	.sleb128	5
      0000BC 00 00r06r46           3771 	.dw	0,(Sstm8s_uart1$UART1_GetITStatus$560)
      0000C0 00 00r06r48           3772 	.dw	0,(Sstm8s_uart1$UART1_GetITStatus$561)
      0000C4 00 02                 3773 	.dw	2
      0000C6 78                    3774 	.db	120
      0000C7 07                    3775 	.sleb128	7
      0000C8 00 00r06r40           3776 	.dw	0,(Sstm8s_uart1$UART1_GetITStatus$559)
      0000CC 00 00r06r46           3777 	.dw	0,(Sstm8s_uart1$UART1_GetITStatus$560)
      0000D0 00 02                 3778 	.dw	2
      0000D2 78                    3779 	.db	120
      0000D3 0B                    3780 	.sleb128	11
      0000D4 00 00r06r3E           3781 	.dw	0,(Sstm8s_uart1$UART1_GetITStatus$558)
      0000D8 00 00r06r40           3782 	.dw	0,(Sstm8s_uart1$UART1_GetITStatus$559)
      0000DC 00 02                 3783 	.dw	2
      0000DE 78                    3784 	.db	120
      0000DF 09                    3785 	.sleb128	9
      0000E0 00 00r06r3C           3786 	.dw	0,(Sstm8s_uart1$UART1_GetITStatus$557)
      0000E4 00 00r06r3E           3787 	.dw	0,(Sstm8s_uart1$UART1_GetITStatus$558)
      0000E8 00 02                 3788 	.dw	2
      0000EA 78                    3789 	.db	120
      0000EB 08                    3790 	.sleb128	8
      0000EC 00 00r06r3A           3791 	.dw	0,(Sstm8s_uart1$UART1_GetITStatus$556)
      0000F0 00 00r06r3C           3792 	.dw	0,(Sstm8s_uart1$UART1_GetITStatus$557)
      0000F4 00 02                 3793 	.dw	2
      0000F6 78                    3794 	.db	120
      0000F7 07                    3795 	.sleb128	7
      0000F8 00 00r06r30           3796 	.dw	0,(Sstm8s_uart1$UART1_GetITStatus$555)
      0000FC 00 00r06r3A           3797 	.dw	0,(Sstm8s_uart1$UART1_GetITStatus$556)
      000100 00 02                 3798 	.dw	2
      000102 78                    3799 	.db	120
      000103 05                    3800 	.sleb128	5
      000104 00 00r06r2B           3801 	.dw	0,(Sstm8s_uart1$UART1_GetITStatus$554)
      000108 00 00r06r30           3802 	.dw	0,(Sstm8s_uart1$UART1_GetITStatus$555)
      00010C 00 02                 3803 	.dw	2
      00010E 78                    3804 	.db	120
      00010F 05                    3805 	.sleb128	5
      000110 00 00r06r26           3806 	.dw	0,(Sstm8s_uart1$UART1_GetITStatus$553)
      000114 00 00r06r2B           3807 	.dw	0,(Sstm8s_uart1$UART1_GetITStatus$554)
      000118 00 02                 3808 	.dw	2
      00011A 78                    3809 	.db	120
      00011B 05                    3810 	.sleb128	5
      00011C 00 00r06r21           3811 	.dw	0,(Sstm8s_uart1$UART1_GetITStatus$552)
      000120 00 00r06r26           3812 	.dw	0,(Sstm8s_uart1$UART1_GetITStatus$553)
      000124 00 02                 3813 	.dw	2
      000126 78                    3814 	.db	120
      000127 05                    3815 	.sleb128	5
      000128 00 00r06r1C           3816 	.dw	0,(Sstm8s_uart1$UART1_GetITStatus$551)
      00012C 00 00r06r21           3817 	.dw	0,(Sstm8s_uart1$UART1_GetITStatus$552)
      000130 00 02                 3818 	.dw	2
      000132 78                    3819 	.db	120
      000133 05                    3820 	.sleb128	5
      000134 00 00r06r17           3821 	.dw	0,(Sstm8s_uart1$UART1_GetITStatus$550)
      000138 00 00r06r1C           3822 	.dw	0,(Sstm8s_uart1$UART1_GetITStatus$551)
      00013C 00 02                 3823 	.dw	2
      00013E 78                    3824 	.db	120
      00013F 05                    3825 	.sleb128	5
      000140 00 00r06r0B           3826 	.dw	0,(Sstm8s_uart1$UART1_GetITStatus$549)
      000144 00 00r06r17           3827 	.dw	0,(Sstm8s_uart1$UART1_GetITStatus$550)
      000148 00 02                 3828 	.dw	2
      00014A 78                    3829 	.db	120
      00014B 05                    3830 	.sleb128	5
      00014C 00 00r05rFD           3831 	.dw	0,(Sstm8s_uart1$UART1_GetITStatus$547)
      000150 00 00r06r0B           3832 	.dw	0,(Sstm8s_uart1$UART1_GetITStatus$549)
      000154 00 02                 3833 	.dw	2
      000156 78                    3834 	.db	120
      000157 05                    3835 	.sleb128	5
      000158 00 00r05rFB           3836 	.dw	0,(Sstm8s_uart1$UART1_GetITStatus$546)
      00015C 00 00r05rFD           3837 	.dw	0,(Sstm8s_uart1$UART1_GetITStatus$547)
      000160 00 02                 3838 	.dw	2
      000162 78                    3839 	.db	120
      000163 01                    3840 	.sleb128	1
      000164 00 00 00 00           3841 	.dw	0,0
      000168 00 00 00 00           3842 	.dw	0,0
      00016C 00 00r05rEE           3843 	.dw	0,(Sstm8s_uart1$UART1_ClearFlag$534)
      000170 00 00r05rFB           3844 	.dw	0,(Sstm8s_uart1$UART1_ClearFlag$544)
      000174 00 02                 3845 	.dw	2
      000176 78                    3846 	.db	120
      000177 01                    3847 	.sleb128	1
      000178 00 00r05rED           3848 	.dw	0,(Sstm8s_uart1$UART1_ClearFlag$533)
      00017C 00 00r05rEE           3849 	.dw	0,(Sstm8s_uart1$UART1_ClearFlag$534)
      000180 00 02                 3850 	.dw	2
      000182 78                    3851 	.db	120
      000183 02                    3852 	.sleb128	2
      000184 00 00r05rE7           3853 	.dw	0,(Sstm8s_uart1$UART1_ClearFlag$532)
      000188 00 00r05rED           3854 	.dw	0,(Sstm8s_uart1$UART1_ClearFlag$533)
      00018C 00 02                 3855 	.dw	2
      00018E 78                    3856 	.db	120
      00018F 06                    3857 	.sleb128	6
      000190 00 00r05rE5           3858 	.dw	0,(Sstm8s_uart1$UART1_ClearFlag$531)
      000194 00 00r05rE7           3859 	.dw	0,(Sstm8s_uart1$UART1_ClearFlag$532)
      000198 00 02                 3860 	.dw	2
      00019A 78                    3861 	.db	120
      00019B 04                    3862 	.sleb128	4
      00019C 00 00r05rE3           3863 	.dw	0,(Sstm8s_uart1$UART1_ClearFlag$530)
      0001A0 00 00r05rE5           3864 	.dw	0,(Sstm8s_uart1$UART1_ClearFlag$531)
      0001A4 00 02                 3865 	.dw	2
      0001A6 78                    3866 	.db	120
      0001A7 03                    3867 	.sleb128	3
      0001A8 00 00r05rE1           3868 	.dw	0,(Sstm8s_uart1$UART1_ClearFlag$529)
      0001AC 00 00r05rE3           3869 	.dw	0,(Sstm8s_uart1$UART1_ClearFlag$530)
      0001B0 00 02                 3870 	.dw	2
      0001B2 78                    3871 	.db	120
      0001B3 02                    3872 	.sleb128	2
      0001B4 00 00r05rE0           3873 	.dw	0,(Sstm8s_uart1$UART1_ClearFlag$528)
      0001B8 00 00r05rE1           3874 	.dw	0,(Sstm8s_uart1$UART1_ClearFlag$529)
      0001BC 00 02                 3875 	.dw	2
      0001BE 78                    3876 	.db	120
      0001BF 01                    3877 	.sleb128	1
      0001C0 00 00r05rD8           3878 	.dw	0,(Sstm8s_uart1$UART1_ClearFlag$527)
      0001C4 00 00r05rE0           3879 	.dw	0,(Sstm8s_uart1$UART1_ClearFlag$528)
      0001C8 00 02                 3880 	.dw	2
      0001CA 78                    3881 	.db	120
      0001CB 01                    3882 	.sleb128	1
      0001CC 00 00r05rCF           3883 	.dw	0,(Sstm8s_uart1$UART1_ClearFlag$525)
      0001D0 00 00r05rD8           3884 	.dw	0,(Sstm8s_uart1$UART1_ClearFlag$527)
      0001D4 00 02                 3885 	.dw	2
      0001D6 78                    3886 	.db	120
      0001D7 01                    3887 	.sleb128	1
      0001D8 00 00 00 00           3888 	.dw	0,0
      0001DC 00 00 00 00           3889 	.dw	0,0
      0001E0 00 00r05rCE           3890 	.dw	0,(Sstm8s_uart1$UART1_GetFlagStatus$521)
      0001E4 00 00r05rCF           3891 	.dw	0,(Sstm8s_uart1$UART1_GetFlagStatus$523)
      0001E8 00 02                 3892 	.dw	2
      0001EA 78                    3893 	.db	120
      0001EB 01                    3894 	.sleb128	1
      0001EC 00 00r05r9B           3895 	.dw	0,(Sstm8s_uart1$UART1_GetFlagStatus$491)
      0001F0 00 00r05rCE           3896 	.dw	0,(Sstm8s_uart1$UART1_GetFlagStatus$521)
      0001F4 00 02                 3897 	.dw	2
      0001F6 78                    3898 	.db	120
      0001F7 03                    3899 	.sleb128	3
      0001F8 00 00r05r9A           3900 	.dw	0,(Sstm8s_uart1$UART1_GetFlagStatus$490)
      0001FC 00 00r05r9B           3901 	.dw	0,(Sstm8s_uart1$UART1_GetFlagStatus$491)
      000200 00 02                 3902 	.dw	2
      000202 78                    3903 	.db	120
      000203 04                    3904 	.sleb128	4
      000204 00 00r05r98           3905 	.dw	0,(Sstm8s_uart1$UART1_GetFlagStatus$489)
      000208 00 00r05r9A           3906 	.dw	0,(Sstm8s_uart1$UART1_GetFlagStatus$490)
      00020C 00 02                 3907 	.dw	2
      00020E 78                    3908 	.db	120
      00020F 06                    3909 	.sleb128	6
      000210 00 00r05r92           3910 	.dw	0,(Sstm8s_uart1$UART1_GetFlagStatus$488)
      000214 00 00r05r98           3911 	.dw	0,(Sstm8s_uart1$UART1_GetFlagStatus$489)
      000218 00 02                 3912 	.dw	2
      00021A 78                    3913 	.db	120
      00021B 0A                    3914 	.sleb128	10
      00021C 00 00r05r90           3915 	.dw	0,(Sstm8s_uart1$UART1_GetFlagStatus$487)
      000220 00 00r05r92           3916 	.dw	0,(Sstm8s_uart1$UART1_GetFlagStatus$488)
      000224 00 02                 3917 	.dw	2
      000226 78                    3918 	.db	120
      000227 08                    3919 	.sleb128	8
      000228 00 00r05r8E           3920 	.dw	0,(Sstm8s_uart1$UART1_GetFlagStatus$486)
      00022C 00 00r05r90           3921 	.dw	0,(Sstm8s_uart1$UART1_GetFlagStatus$487)
      000230 00 02                 3922 	.dw	2
      000232 78                    3923 	.db	120
      000233 07                    3924 	.sleb128	7
      000234 00 00r05r8C           3925 	.dw	0,(Sstm8s_uart1$UART1_GetFlagStatus$485)
      000238 00 00r05r8E           3926 	.dw	0,(Sstm8s_uart1$UART1_GetFlagStatus$486)
      00023C 00 02                 3927 	.dw	2
      00023E 78                    3928 	.db	120
      00023F 06                    3929 	.sleb128	6
      000240 00 00r05r8A           3930 	.dw	0,(Sstm8s_uart1$UART1_GetFlagStatus$484)
      000244 00 00r05r8C           3931 	.dw	0,(Sstm8s_uart1$UART1_GetFlagStatus$485)
      000248 00 02                 3932 	.dw	2
      00024A 78                    3933 	.db	120
      00024B 04                    3934 	.sleb128	4
      00024C 00 00r05r82           3935 	.dw	0,(Sstm8s_uart1$UART1_GetFlagStatus$483)
      000250 00 00r05r8A           3936 	.dw	0,(Sstm8s_uart1$UART1_GetFlagStatus$484)
      000254 00 02                 3937 	.dw	2
      000256 78                    3938 	.db	120
      000257 03                    3939 	.sleb128	3
      000258 00 00r05r7F           3940 	.dw	0,(Sstm8s_uart1$UART1_GetFlagStatus$482)
      00025C 00 00r05r82           3941 	.dw	0,(Sstm8s_uart1$UART1_GetFlagStatus$483)
      000260 00 02                 3942 	.dw	2
      000262 78                    3943 	.db	120
      000263 03                    3944 	.sleb128	3
      000264 00 00r05r7A           3945 	.dw	0,(Sstm8s_uart1$UART1_GetFlagStatus$481)
      000268 00 00r05r7F           3946 	.dw	0,(Sstm8s_uart1$UART1_GetFlagStatus$482)
      00026C 00 02                 3947 	.dw	2
      00026E 78                    3948 	.db	120
      00026F 03                    3949 	.sleb128	3
      000270 00 00r05r75           3950 	.dw	0,(Sstm8s_uart1$UART1_GetFlagStatus$480)
      000274 00 00r05r7A           3951 	.dw	0,(Sstm8s_uart1$UART1_GetFlagStatus$481)
      000278 00 02                 3952 	.dw	2
      00027A 78                    3953 	.db	120
      00027B 03                    3954 	.sleb128	3
      00027C 00 00r05r70           3955 	.dw	0,(Sstm8s_uart1$UART1_GetFlagStatus$479)
      000280 00 00r05r75           3956 	.dw	0,(Sstm8s_uart1$UART1_GetFlagStatus$480)
      000284 00 02                 3957 	.dw	2
      000286 78                    3958 	.db	120
      000287 03                    3959 	.sleb128	3
      000288 00 00r05r6B           3960 	.dw	0,(Sstm8s_uart1$UART1_GetFlagStatus$478)
      00028C 00 00r05r70           3961 	.dw	0,(Sstm8s_uart1$UART1_GetFlagStatus$479)
      000290 00 02                 3962 	.dw	2
      000292 78                    3963 	.db	120
      000293 03                    3964 	.sleb128	3
      000294 00 00r05r66           3965 	.dw	0,(Sstm8s_uart1$UART1_GetFlagStatus$477)
      000298 00 00r05r6B           3966 	.dw	0,(Sstm8s_uart1$UART1_GetFlagStatus$478)
      00029C 00 02                 3967 	.dw	2
      00029E 78                    3968 	.db	120
      00029F 03                    3969 	.sleb128	3
      0002A0 00 00r05r61           3970 	.dw	0,(Sstm8s_uart1$UART1_GetFlagStatus$476)
      0002A4 00 00r05r66           3971 	.dw	0,(Sstm8s_uart1$UART1_GetFlagStatus$477)
      0002A8 00 02                 3972 	.dw	2
      0002AA 78                    3973 	.db	120
      0002AB 03                    3974 	.sleb128	3
      0002AC 00 00r05r5C           3975 	.dw	0,(Sstm8s_uart1$UART1_GetFlagStatus$475)
      0002B0 00 00r05r61           3976 	.dw	0,(Sstm8s_uart1$UART1_GetFlagStatus$476)
      0002B4 00 02                 3977 	.dw	2
      0002B6 78                    3978 	.db	120
      0002B7 03                    3979 	.sleb128	3
      0002B8 00 00r05r53           3980 	.dw	0,(Sstm8s_uart1$UART1_GetFlagStatus$474)
      0002BC 00 00r05r5C           3981 	.dw	0,(Sstm8s_uart1$UART1_GetFlagStatus$475)
      0002C0 00 02                 3982 	.dw	2
      0002C2 78                    3983 	.db	120
      0002C3 03                    3984 	.sleb128	3
      0002C4 00 00r05r45           3985 	.dw	0,(Sstm8s_uart1$UART1_GetFlagStatus$472)
      0002C8 00 00r05r53           3986 	.dw	0,(Sstm8s_uart1$UART1_GetFlagStatus$474)
      0002CC 00 02                 3987 	.dw	2
      0002CE 78                    3988 	.db	120
      0002CF 03                    3989 	.sleb128	3
      0002D0 00 00r05r44           3990 	.dw	0,(Sstm8s_uart1$UART1_GetFlagStatus$471)
      0002D4 00 00r05r45           3991 	.dw	0,(Sstm8s_uart1$UART1_GetFlagStatus$472)
      0002D8 00 02                 3992 	.dw	2
      0002DA 78                    3993 	.db	120
      0002DB 01                    3994 	.sleb128	1
      0002DC 00 00 00 00           3995 	.dw	0,0
      0002E0 00 00 00 00           3996 	.dw	0,0
      0002E4 00 00r05r40           3997 	.dw	0,(Sstm8s_uart1$UART1_SetPrescaler$465)
      0002E8 00 00r05r44           3998 	.dw	0,(Sstm8s_uart1$UART1_SetPrescaler$469)
      0002EC 00 02                 3999 	.dw	2
      0002EE 78                    4000 	.db	120
      0002EF 01                    4001 	.sleb128	1
      0002F0 00 00 00 00           4002 	.dw	0,0
      0002F4 00 00 00 00           4003 	.dw	0,0
      0002F8 00 00r05r3C           4004 	.dw	0,(Sstm8s_uart1$UART1_SetGuardTime$459)
      0002FC 00 00r05r40           4005 	.dw	0,(Sstm8s_uart1$UART1_SetGuardTime$463)
      000300 00 02                 4006 	.dw	2
      000302 78                    4007 	.db	120
      000303 01                    4008 	.sleb128	1
      000304 00 00 00 00           4009 	.dw	0,0
      000308 00 00 00 00           4010 	.dw	0,0
      00030C 00 00r05r3B           4011 	.dw	0,(Sstm8s_uart1$UART1_SetAddress$455)
      000310 00 00r05r3C           4012 	.dw	0,(Sstm8s_uart1$UART1_SetAddress$457)
      000314 00 02                 4013 	.dw	2
      000316 78                    4014 	.db	120
      000317 01                    4015 	.sleb128	1
      000318 00 00r05r2A           4016 	.dw	0,(Sstm8s_uart1$UART1_SetAddress$451)
      00031C 00 00r05r3B           4017 	.dw	0,(Sstm8s_uart1$UART1_SetAddress$455)
      000320 00 02                 4018 	.dw	2
      000322 78                    4019 	.db	120
      000323 02                    4020 	.sleb128	2
      000324 00 00r05r24           4021 	.dw	0,(Sstm8s_uart1$UART1_SetAddress$450)
      000328 00 00r05r2A           4022 	.dw	0,(Sstm8s_uart1$UART1_SetAddress$451)
      00032C 00 02                 4023 	.dw	2
      00032E 78                    4024 	.db	120
      00032F 06                    4025 	.sleb128	6
      000330 00 00r05r22           4026 	.dw	0,(Sstm8s_uart1$UART1_SetAddress$449)
      000334 00 00r05r24           4027 	.dw	0,(Sstm8s_uart1$UART1_SetAddress$450)
      000338 00 02                 4028 	.dw	2
      00033A 78                    4029 	.db	120
      00033B 04                    4030 	.sleb128	4
      00033C 00 00r05r20           4031 	.dw	0,(Sstm8s_uart1$UART1_SetAddress$448)
      000340 00 00r05r22           4032 	.dw	0,(Sstm8s_uart1$UART1_SetAddress$449)
      000344 00 02                 4033 	.dw	2
      000346 78                    4034 	.db	120
      000347 03                    4035 	.sleb128	3
      000348 00 00r05r18           4036 	.dw	0,(Sstm8s_uart1$UART1_SetAddress$446)
      00034C 00 00r05r20           4037 	.dw	0,(Sstm8s_uart1$UART1_SetAddress$448)
      000350 00 02                 4038 	.dw	2
      000352 78                    4039 	.db	120
      000353 02                    4040 	.sleb128	2
      000354 00 00r05r17           4041 	.dw	0,(Sstm8s_uart1$UART1_SetAddress$445)
      000358 00 00r05r18           4042 	.dw	0,(Sstm8s_uart1$UART1_SetAddress$446)
      00035C 00 02                 4043 	.dw	2
      00035E 78                    4044 	.db	120
      00035F 01                    4045 	.sleb128	1
      000360 00 00 00 00           4046 	.dw	0,0
      000364 00 00 00 00           4047 	.dw	0,0
      000368 00 00r05r12           4048 	.dw	0,(Sstm8s_uart1$UART1_SendBreak$439)
      00036C 00 00r05r17           4049 	.dw	0,(Sstm8s_uart1$UART1_SendBreak$443)
      000370 00 02                 4050 	.dw	2
      000372 78                    4051 	.db	120
      000373 01                    4052 	.sleb128	1
      000374 00 00 00 00           4053 	.dw	0,0
      000378 00 00 00 00           4054 	.dw	0,0
      00037C 00 00r05r11           4055 	.dw	0,(Sstm8s_uart1$UART1_SendData9$435)
      000380 00 00r05r12           4056 	.dw	0,(Sstm8s_uart1$UART1_SendData9$437)
      000384 00 02                 4057 	.dw	2
      000386 78                    4058 	.db	120
      000387 01                    4059 	.sleb128	1
      000388 00 00r04rF6           4060 	.dw	0,(Sstm8s_uart1$UART1_SendData9$430)
      00038C 00 00r05r11           4061 	.dw	0,(Sstm8s_uart1$UART1_SendData9$435)
      000390 00 02                 4062 	.dw	2
      000392 78                    4063 	.db	120
      000393 02                    4064 	.sleb128	2
      000394 00 00r04rF5           4065 	.dw	0,(Sstm8s_uart1$UART1_SendData9$429)
      000398 00 00r04rF6           4066 	.dw	0,(Sstm8s_uart1$UART1_SendData9$430)
      00039C 00 02                 4067 	.dw	2
      00039E 78                    4068 	.db	120
      00039F 01                    4069 	.sleb128	1
      0003A0 00 00 00 00           4070 	.dw	0,0
      0003A4 00 00 00 00           4071 	.dw	0,0
      0003A8 00 00r04rF1           4072 	.dw	0,(Sstm8s_uart1$UART1_SendData8$423)
      0003AC 00 00r04rF5           4073 	.dw	0,(Sstm8s_uart1$UART1_SendData8$427)
      0003B0 00 02                 4074 	.dw	2
      0003B2 78                    4075 	.db	120
      0003B3 01                    4076 	.sleb128	1
      0003B4 00 00 00 00           4077 	.dw	0,0
      0003B8 00 00 00 00           4078 	.dw	0,0
      0003BC 00 00r04rF0           4079 	.dw	0,(Sstm8s_uart1$UART1_ReceiveData9$419)
      0003C0 00 00r04rF1           4080 	.dw	0,(Sstm8s_uart1$UART1_ReceiveData9$421)
      0003C4 00 02                 4081 	.dw	2
      0003C6 78                    4082 	.db	120
      0003C7 01                    4083 	.sleb128	1
      0003C8 00 00r04rD7           4084 	.dw	0,(Sstm8s_uart1$UART1_ReceiveData9$415)
      0003CC 00 00r04rF0           4085 	.dw	0,(Sstm8s_uart1$UART1_ReceiveData9$419)
      0003D0 00 02                 4086 	.dw	2
      0003D2 78                    4087 	.db	120
      0003D3 03                    4088 	.sleb128	3
      0003D4 00 00r04rD6           4089 	.dw	0,(Sstm8s_uart1$UART1_ReceiveData9$414)
      0003D8 00 00r04rD7           4090 	.dw	0,(Sstm8s_uart1$UART1_ReceiveData9$415)
      0003DC 00 02                 4091 	.dw	2
      0003DE 78                    4092 	.db	120
      0003DF 01                    4093 	.sleb128	1
      0003E0 00 00 00 00           4094 	.dw	0,0
      0003E4 00 00 00 00           4095 	.dw	0,0
      0003E8 00 00r04rD2           4096 	.dw	0,(Sstm8s_uart1$UART1_ReceiveData8$408)
      0003EC 00 00r04rD6           4097 	.dw	0,(Sstm8s_uart1$UART1_ReceiveData8$412)
      0003F0 00 02                 4098 	.dw	2
      0003F2 78                    4099 	.db	120
      0003F3 01                    4100 	.sleb128	1
      0003F4 00 00 00 00           4101 	.dw	0,0
      0003F8 00 00 00 00           4102 	.dw	0,0
      0003FC 00 00r04rD1           4103 	.dw	0,(Sstm8s_uart1$UART1_ReceiverWakeUpCmd$404)
      000400 00 00r04rD2           4104 	.dw	0,(Sstm8s_uart1$UART1_ReceiverWakeUpCmd$406)
      000404 00 02                 4105 	.dw	2
      000406 78                    4106 	.db	120
      000407 01                    4107 	.sleb128	1
      000408 00 00r04rBD           4108 	.dw	0,(Sstm8s_uart1$UART1_ReceiverWakeUpCmd$394)
      00040C 00 00r04rD1           4109 	.dw	0,(Sstm8s_uart1$UART1_ReceiverWakeUpCmd$404)
      000410 00 02                 4110 	.dw	2
      000412 78                    4111 	.db	120
      000413 02                    4112 	.sleb128	2
      000414 00 00r04rB7           4113 	.dw	0,(Sstm8s_uart1$UART1_ReceiverWakeUpCmd$393)
      000418 00 00r04rBD           4114 	.dw	0,(Sstm8s_uart1$UART1_ReceiverWakeUpCmd$394)
      00041C 00 02                 4115 	.dw	2
      00041E 78                    4116 	.db	120
      00041F 06                    4117 	.sleb128	6
      000420 00 00r04rB5           4118 	.dw	0,(Sstm8s_uart1$UART1_ReceiverWakeUpCmd$392)
      000424 00 00r04rB7           4119 	.dw	0,(Sstm8s_uart1$UART1_ReceiverWakeUpCmd$393)
      000428 00 02                 4120 	.dw	2
      00042A 78                    4121 	.db	120
      00042B 04                    4122 	.sleb128	4
      00042C 00 00r04rB3           4123 	.dw	0,(Sstm8s_uart1$UART1_ReceiverWakeUpCmd$391)
      000430 00 00r04rB5           4124 	.dw	0,(Sstm8s_uart1$UART1_ReceiverWakeUpCmd$392)
      000434 00 02                 4125 	.dw	2
      000436 78                    4126 	.db	120
      000437 03                    4127 	.sleb128	3
      000438 00 00r04rA9           4128 	.dw	0,(Sstm8s_uart1$UART1_ReceiverWakeUpCmd$389)
      00043C 00 00r04rB3           4129 	.dw	0,(Sstm8s_uart1$UART1_ReceiverWakeUpCmd$391)
      000440 00 02                 4130 	.dw	2
      000442 78                    4131 	.db	120
      000443 02                    4132 	.sleb128	2
      000444 00 00r04rA8           4133 	.dw	0,(Sstm8s_uart1$UART1_ReceiverWakeUpCmd$388)
      000448 00 00r04rA9           4134 	.dw	0,(Sstm8s_uart1$UART1_ReceiverWakeUpCmd$389)
      00044C 00 02                 4135 	.dw	2
      00044E 78                    4136 	.db	120
      00044F 01                    4137 	.sleb128	1
      000450 00 00 00 00           4138 	.dw	0,0
      000454 00 00 00 00           4139 	.dw	0,0
      000458 00 00r04rA7           4140 	.dw	0,(Sstm8s_uart1$UART1_WakeUpConfig$384)
      00045C 00 00r04rA8           4141 	.dw	0,(Sstm8s_uart1$UART1_WakeUpConfig$386)
      000460 00 02                 4142 	.dw	2
      000462 78                    4143 	.db	120
      000463 01                    4144 	.sleb128	1
      000464 00 00r04r9A           4145 	.dw	0,(Sstm8s_uart1$UART1_WakeUpConfig$380)
      000468 00 00r04rA7           4146 	.dw	0,(Sstm8s_uart1$UART1_WakeUpConfig$384)
      00046C 00 02                 4147 	.dw	2
      00046E 78                    4148 	.db	120
      00046F 02                    4149 	.sleb128	2
      000470 00 00r04r94           4150 	.dw	0,(Sstm8s_uart1$UART1_WakeUpConfig$379)
      000474 00 00r04r9A           4151 	.dw	0,(Sstm8s_uart1$UART1_WakeUpConfig$380)
      000478 00 02                 4152 	.dw	2
      00047A 78                    4153 	.db	120
      00047B 06                    4154 	.sleb128	6
      00047C 00 00r04r92           4155 	.dw	0,(Sstm8s_uart1$UART1_WakeUpConfig$378)
      000480 00 00r04r94           4156 	.dw	0,(Sstm8s_uart1$UART1_WakeUpConfig$379)
      000484 00 02                 4157 	.dw	2
      000486 78                    4158 	.db	120
      000487 04                    4159 	.sleb128	4
      000488 00 00r04r90           4160 	.dw	0,(Sstm8s_uart1$UART1_WakeUpConfig$377)
      00048C 00 00r04r92           4161 	.dw	0,(Sstm8s_uart1$UART1_WakeUpConfig$378)
      000490 00 02                 4162 	.dw	2
      000492 78                    4163 	.db	120
      000493 03                    4164 	.sleb128	3
      000494 00 00r04r8E           4165 	.dw	0,(Sstm8s_uart1$UART1_WakeUpConfig$376)
      000498 00 00r04r90           4166 	.dw	0,(Sstm8s_uart1$UART1_WakeUpConfig$377)
      00049C 00 02                 4167 	.dw	2
      00049E 78                    4168 	.db	120
      00049F 02                    4169 	.sleb128	2
      0004A0 00 00r04r84           4170 	.dw	0,(Sstm8s_uart1$UART1_WakeUpConfig$374)
      0004A4 00 00r04r8E           4171 	.dw	0,(Sstm8s_uart1$UART1_WakeUpConfig$376)
      0004A8 00 02                 4172 	.dw	2
      0004AA 78                    4173 	.db	120
      0004AB 02                    4174 	.sleb128	2
      0004AC 00 00r04r83           4175 	.dw	0,(Sstm8s_uart1$UART1_WakeUpConfig$373)
      0004B0 00 00r04r84           4176 	.dw	0,(Sstm8s_uart1$UART1_WakeUpConfig$374)
      0004B4 00 02                 4177 	.dw	2
      0004B6 78                    4178 	.db	120
      0004B7 01                    4179 	.sleb128	1
      0004B8 00 00 00 00           4180 	.dw	0,0
      0004BC 00 00 00 00           4181 	.dw	0,0
      0004C0 00 00r04r82           4182 	.dw	0,(Sstm8s_uart1$UART1_SmartCardNACKCmd$369)
      0004C4 00 00r04r83           4183 	.dw	0,(Sstm8s_uart1$UART1_SmartCardNACKCmd$371)
      0004C8 00 02                 4184 	.dw	2
      0004CA 78                    4185 	.db	120
      0004CB 01                    4186 	.sleb128	1
      0004CC 00 00r04r6E           4187 	.dw	0,(Sstm8s_uart1$UART1_SmartCardNACKCmd$359)
      0004D0 00 00r04r82           4188 	.dw	0,(Sstm8s_uart1$UART1_SmartCardNACKCmd$369)
      0004D4 00 02                 4189 	.dw	2
      0004D6 78                    4190 	.db	120
      0004D7 02                    4191 	.sleb128	2
      0004D8 00 00r04r68           4192 	.dw	0,(Sstm8s_uart1$UART1_SmartCardNACKCmd$358)
      0004DC 00 00r04r6E           4193 	.dw	0,(Sstm8s_uart1$UART1_SmartCardNACKCmd$359)
      0004E0 00 02                 4194 	.dw	2
      0004E2 78                    4195 	.db	120
      0004E3 06                    4196 	.sleb128	6
      0004E4 00 00r04r66           4197 	.dw	0,(Sstm8s_uart1$UART1_SmartCardNACKCmd$357)
      0004E8 00 00r04r68           4198 	.dw	0,(Sstm8s_uart1$UART1_SmartCardNACKCmd$358)
      0004EC 00 02                 4199 	.dw	2
      0004EE 78                    4200 	.db	120
      0004EF 04                    4201 	.sleb128	4
      0004F0 00 00r04r64           4202 	.dw	0,(Sstm8s_uart1$UART1_SmartCardNACKCmd$356)
      0004F4 00 00r04r66           4203 	.dw	0,(Sstm8s_uart1$UART1_SmartCardNACKCmd$357)
      0004F8 00 02                 4204 	.dw	2
      0004FA 78                    4205 	.db	120
      0004FB 03                    4206 	.sleb128	3
      0004FC 00 00r04r5A           4207 	.dw	0,(Sstm8s_uart1$UART1_SmartCardNACKCmd$354)
      000500 00 00r04r64           4208 	.dw	0,(Sstm8s_uart1$UART1_SmartCardNACKCmd$356)
      000504 00 02                 4209 	.dw	2
      000506 78                    4210 	.db	120
      000507 02                    4211 	.sleb128	2
      000508 00 00r04r59           4212 	.dw	0,(Sstm8s_uart1$UART1_SmartCardNACKCmd$353)
      00050C 00 00r04r5A           4213 	.dw	0,(Sstm8s_uart1$UART1_SmartCardNACKCmd$354)
      000510 00 02                 4214 	.dw	2
      000512 78                    4215 	.db	120
      000513 01                    4216 	.sleb128	1
      000514 00 00 00 00           4217 	.dw	0,0
      000518 00 00 00 00           4218 	.dw	0,0
      00051C 00 00r04r58           4219 	.dw	0,(Sstm8s_uart1$UART1_SmartCardCmd$349)
      000520 00 00r04r59           4220 	.dw	0,(Sstm8s_uart1$UART1_SmartCardCmd$351)
      000524 00 02                 4221 	.dw	2
      000526 78                    4222 	.db	120
      000527 01                    4223 	.sleb128	1
      000528 00 00r04r44           4224 	.dw	0,(Sstm8s_uart1$UART1_SmartCardCmd$339)
      00052C 00 00r04r58           4225 	.dw	0,(Sstm8s_uart1$UART1_SmartCardCmd$349)
      000530 00 02                 4226 	.dw	2
      000532 78                    4227 	.db	120
      000533 02                    4228 	.sleb128	2
      000534 00 00r04r3E           4229 	.dw	0,(Sstm8s_uart1$UART1_SmartCardCmd$338)
      000538 00 00r04r44           4230 	.dw	0,(Sstm8s_uart1$UART1_SmartCardCmd$339)
      00053C 00 02                 4231 	.dw	2
      00053E 78                    4232 	.db	120
      00053F 06                    4233 	.sleb128	6
      000540 00 00r04r3C           4234 	.dw	0,(Sstm8s_uart1$UART1_SmartCardCmd$337)
      000544 00 00r04r3E           4235 	.dw	0,(Sstm8s_uart1$UART1_SmartCardCmd$338)
      000548 00 02                 4236 	.dw	2
      00054A 78                    4237 	.db	120
      00054B 04                    4238 	.sleb128	4
      00054C 00 00r04r3A           4239 	.dw	0,(Sstm8s_uart1$UART1_SmartCardCmd$336)
      000550 00 00r04r3C           4240 	.dw	0,(Sstm8s_uart1$UART1_SmartCardCmd$337)
      000554 00 02                 4241 	.dw	2
      000556 78                    4242 	.db	120
      000557 03                    4243 	.sleb128	3
      000558 00 00r04r30           4244 	.dw	0,(Sstm8s_uart1$UART1_SmartCardCmd$334)
      00055C 00 00r04r3A           4245 	.dw	0,(Sstm8s_uart1$UART1_SmartCardCmd$336)
      000560 00 02                 4246 	.dw	2
      000562 78                    4247 	.db	120
      000563 02                    4248 	.sleb128	2
      000564 00 00r04r2F           4249 	.dw	0,(Sstm8s_uart1$UART1_SmartCardCmd$333)
      000568 00 00r04r30           4250 	.dw	0,(Sstm8s_uart1$UART1_SmartCardCmd$334)
      00056C 00 02                 4251 	.dw	2
      00056E 78                    4252 	.db	120
      00056F 01                    4253 	.sleb128	1
      000570 00 00 00 00           4254 	.dw	0,0
      000574 00 00 00 00           4255 	.dw	0,0
      000578 00 00r04r2E           4256 	.dw	0,(Sstm8s_uart1$UART1_LINCmd$329)
      00057C 00 00r04r2F           4257 	.dw	0,(Sstm8s_uart1$UART1_LINCmd$331)
      000580 00 02                 4258 	.dw	2
      000582 78                    4259 	.db	120
      000583 01                    4260 	.sleb128	1
      000584 00 00r04r1A           4261 	.dw	0,(Sstm8s_uart1$UART1_LINCmd$319)
      000588 00 00r04r2E           4262 	.dw	0,(Sstm8s_uart1$UART1_LINCmd$329)
      00058C 00 02                 4263 	.dw	2
      00058E 78                    4264 	.db	120
      00058F 02                    4265 	.sleb128	2
      000590 00 00r04r14           4266 	.dw	0,(Sstm8s_uart1$UART1_LINCmd$318)
      000594 00 00r04r1A           4267 	.dw	0,(Sstm8s_uart1$UART1_LINCmd$319)
      000598 00 02                 4268 	.dw	2
      00059A 78                    4269 	.db	120
      00059B 06                    4270 	.sleb128	6
      00059C 00 00r04r12           4271 	.dw	0,(Sstm8s_uart1$UART1_LINCmd$317)
      0005A0 00 00r04r14           4272 	.dw	0,(Sstm8s_uart1$UART1_LINCmd$318)
      0005A4 00 02                 4273 	.dw	2
      0005A6 78                    4274 	.db	120
      0005A7 04                    4275 	.sleb128	4
      0005A8 00 00r04r10           4276 	.dw	0,(Sstm8s_uart1$UART1_LINCmd$316)
      0005AC 00 00r04r12           4277 	.dw	0,(Sstm8s_uart1$UART1_LINCmd$317)
      0005B0 00 02                 4278 	.dw	2
      0005B2 78                    4279 	.db	120
      0005B3 03                    4280 	.sleb128	3
      0005B4 00 00r04r06           4281 	.dw	0,(Sstm8s_uart1$UART1_LINCmd$314)
      0005B8 00 00r04r10           4282 	.dw	0,(Sstm8s_uart1$UART1_LINCmd$316)
      0005BC 00 02                 4283 	.dw	2
      0005BE 78                    4284 	.db	120
      0005BF 02                    4285 	.sleb128	2
      0005C0 00 00r04r05           4286 	.dw	0,(Sstm8s_uart1$UART1_LINCmd$313)
      0005C4 00 00r04r06           4287 	.dw	0,(Sstm8s_uart1$UART1_LINCmd$314)
      0005C8 00 02                 4288 	.dw	2
      0005CA 78                    4289 	.db	120
      0005CB 01                    4290 	.sleb128	1
      0005CC 00 00 00 00           4291 	.dw	0,0
      0005D0 00 00 00 00           4292 	.dw	0,0
      0005D4 00 00r04r04           4293 	.dw	0,(Sstm8s_uart1$UART1_LINBreakDetectionConfig$309)
      0005D8 00 00r04r05           4294 	.dw	0,(Sstm8s_uart1$UART1_LINBreakDetectionConfig$311)
      0005DC 00 02                 4295 	.dw	2
      0005DE 78                    4296 	.db	120
      0005DF 01                    4297 	.sleb128	1
      0005E0 00 00r03rF0           4298 	.dw	0,(Sstm8s_uart1$UART1_LINBreakDetectionConfig$299)
      0005E4 00 00r04r04           4299 	.dw	0,(Sstm8s_uart1$UART1_LINBreakDetectionConfig$309)
      0005E8 00 02                 4300 	.dw	2
      0005EA 78                    4301 	.db	120
      0005EB 02                    4302 	.sleb128	2
      0005EC 00 00r03rEA           4303 	.dw	0,(Sstm8s_uart1$UART1_LINBreakDetectionConfig$298)
      0005F0 00 00r03rF0           4304 	.dw	0,(Sstm8s_uart1$UART1_LINBreakDetectionConfig$299)
      0005F4 00 02                 4305 	.dw	2
      0005F6 78                    4306 	.db	120
      0005F7 06                    4307 	.sleb128	6
      0005F8 00 00r03rE8           4308 	.dw	0,(Sstm8s_uart1$UART1_LINBreakDetectionConfig$297)
      0005FC 00 00r03rEA           4309 	.dw	0,(Sstm8s_uart1$UART1_LINBreakDetectionConfig$298)
      000600 00 02                 4310 	.dw	2
      000602 78                    4311 	.db	120
      000603 04                    4312 	.sleb128	4
      000604 00 00r03rE6           4313 	.dw	0,(Sstm8s_uart1$UART1_LINBreakDetectionConfig$296)
      000608 00 00r03rE8           4314 	.dw	0,(Sstm8s_uart1$UART1_LINBreakDetectionConfig$297)
      00060C 00 02                 4315 	.dw	2
      00060E 78                    4316 	.db	120
      00060F 03                    4317 	.sleb128	3
      000610 00 00r03rDC           4318 	.dw	0,(Sstm8s_uart1$UART1_LINBreakDetectionConfig$294)
      000614 00 00r03rE6           4319 	.dw	0,(Sstm8s_uart1$UART1_LINBreakDetectionConfig$296)
      000618 00 02                 4320 	.dw	2
      00061A 78                    4321 	.db	120
      00061B 02                    4322 	.sleb128	2
      00061C 00 00r03rDB           4323 	.dw	0,(Sstm8s_uart1$UART1_LINBreakDetectionConfig$293)
      000620 00 00r03rDC           4324 	.dw	0,(Sstm8s_uart1$UART1_LINBreakDetectionConfig$294)
      000624 00 02                 4325 	.dw	2
      000626 78                    4326 	.db	120
      000627 01                    4327 	.sleb128	1
      000628 00 00 00 00           4328 	.dw	0,0
      00062C 00 00 00 00           4329 	.dw	0,0
      000630 00 00r03rDA           4330 	.dw	0,(Sstm8s_uart1$UART1_IrDACmd$289)
      000634 00 00r03rDB           4331 	.dw	0,(Sstm8s_uart1$UART1_IrDACmd$291)
      000638 00 02                 4332 	.dw	2
      00063A 78                    4333 	.db	120
      00063B 01                    4334 	.sleb128	1
      00063C 00 00r03rC6           4335 	.dw	0,(Sstm8s_uart1$UART1_IrDACmd$279)
      000640 00 00r03rDA           4336 	.dw	0,(Sstm8s_uart1$UART1_IrDACmd$289)
      000644 00 02                 4337 	.dw	2
      000646 78                    4338 	.db	120
      000647 02                    4339 	.sleb128	2
      000648 00 00r03rC0           4340 	.dw	0,(Sstm8s_uart1$UART1_IrDACmd$278)
      00064C 00 00r03rC6           4341 	.dw	0,(Sstm8s_uart1$UART1_IrDACmd$279)
      000650 00 02                 4342 	.dw	2
      000652 78                    4343 	.db	120
      000653 06                    4344 	.sleb128	6
      000654 00 00r03rBE           4345 	.dw	0,(Sstm8s_uart1$UART1_IrDACmd$277)
      000658 00 00r03rC0           4346 	.dw	0,(Sstm8s_uart1$UART1_IrDACmd$278)
      00065C 00 02                 4347 	.dw	2
      00065E 78                    4348 	.db	120
      00065F 04                    4349 	.sleb128	4
      000660 00 00r03rBC           4350 	.dw	0,(Sstm8s_uart1$UART1_IrDACmd$276)
      000664 00 00r03rBE           4351 	.dw	0,(Sstm8s_uart1$UART1_IrDACmd$277)
      000668 00 02                 4352 	.dw	2
      00066A 78                    4353 	.db	120
      00066B 03                    4354 	.sleb128	3
      00066C 00 00r03rB2           4355 	.dw	0,(Sstm8s_uart1$UART1_IrDACmd$274)
      000670 00 00r03rBC           4356 	.dw	0,(Sstm8s_uart1$UART1_IrDACmd$276)
      000674 00 02                 4357 	.dw	2
      000676 78                    4358 	.db	120
      000677 02                    4359 	.sleb128	2
      000678 00 00r03rB1           4360 	.dw	0,(Sstm8s_uart1$UART1_IrDACmd$273)
      00067C 00 00r03rB2           4361 	.dw	0,(Sstm8s_uart1$UART1_IrDACmd$274)
      000680 00 02                 4362 	.dw	2
      000682 78                    4363 	.db	120
      000683 01                    4364 	.sleb128	1
      000684 00 00 00 00           4365 	.dw	0,0
      000688 00 00 00 00           4366 	.dw	0,0
      00068C 00 00r03rB0           4367 	.dw	0,(Sstm8s_uart1$UART1_IrDAConfig$269)
      000690 00 00r03rB1           4368 	.dw	0,(Sstm8s_uart1$UART1_IrDAConfig$271)
      000694 00 02                 4369 	.dw	2
      000696 78                    4370 	.db	120
      000697 01                    4371 	.sleb128	1
      000698 00 00r03r9C           4372 	.dw	0,(Sstm8s_uart1$UART1_IrDAConfig$259)
      00069C 00 00r03rB0           4373 	.dw	0,(Sstm8s_uart1$UART1_IrDAConfig$269)
      0006A0 00 02                 4374 	.dw	2
      0006A2 78                    4375 	.db	120
      0006A3 02                    4376 	.sleb128	2
      0006A4 00 00r03r96           4377 	.dw	0,(Sstm8s_uart1$UART1_IrDAConfig$258)
      0006A8 00 00r03r9C           4378 	.dw	0,(Sstm8s_uart1$UART1_IrDAConfig$259)
      0006AC 00 02                 4379 	.dw	2
      0006AE 78                    4380 	.db	120
      0006AF 06                    4381 	.sleb128	6
      0006B0 00 00r03r94           4382 	.dw	0,(Sstm8s_uart1$UART1_IrDAConfig$257)
      0006B4 00 00r03r96           4383 	.dw	0,(Sstm8s_uart1$UART1_IrDAConfig$258)
      0006B8 00 02                 4384 	.dw	2
      0006BA 78                    4385 	.db	120
      0006BB 04                    4386 	.sleb128	4
      0006BC 00 00r03r92           4387 	.dw	0,(Sstm8s_uart1$UART1_IrDAConfig$256)
      0006C0 00 00r03r94           4388 	.dw	0,(Sstm8s_uart1$UART1_IrDAConfig$257)
      0006C4 00 02                 4389 	.dw	2
      0006C6 78                    4390 	.db	120
      0006C7 03                    4391 	.sleb128	3
      0006C8 00 00r03r88           4392 	.dw	0,(Sstm8s_uart1$UART1_IrDAConfig$254)
      0006CC 00 00r03r92           4393 	.dw	0,(Sstm8s_uart1$UART1_IrDAConfig$256)
      0006D0 00 02                 4394 	.dw	2
      0006D2 78                    4395 	.db	120
      0006D3 02                    4396 	.sleb128	2
      0006D4 00 00r03r87           4397 	.dw	0,(Sstm8s_uart1$UART1_IrDAConfig$253)
      0006D8 00 00r03r88           4398 	.dw	0,(Sstm8s_uart1$UART1_IrDAConfig$254)
      0006DC 00 02                 4399 	.dw	2
      0006DE 78                    4400 	.db	120
      0006DF 01                    4401 	.sleb128	1
      0006E0 00 00 00 00           4402 	.dw	0,0
      0006E4 00 00 00 00           4403 	.dw	0,0
      0006E8 00 00r03r86           4404 	.dw	0,(Sstm8s_uart1$UART1_HalfDuplexCmd$249)
      0006EC 00 00r03r87           4405 	.dw	0,(Sstm8s_uart1$UART1_HalfDuplexCmd$251)
      0006F0 00 02                 4406 	.dw	2
      0006F2 78                    4407 	.db	120
      0006F3 01                    4408 	.sleb128	1
      0006F4 00 00r03r72           4409 	.dw	0,(Sstm8s_uart1$UART1_HalfDuplexCmd$239)
      0006F8 00 00r03r86           4410 	.dw	0,(Sstm8s_uart1$UART1_HalfDuplexCmd$249)
      0006FC 00 02                 4411 	.dw	2
      0006FE 78                    4412 	.db	120
      0006FF 02                    4413 	.sleb128	2
      000700 00 00r03r6C           4414 	.dw	0,(Sstm8s_uart1$UART1_HalfDuplexCmd$238)
      000704 00 00r03r72           4415 	.dw	0,(Sstm8s_uart1$UART1_HalfDuplexCmd$239)
      000708 00 02                 4416 	.dw	2
      00070A 78                    4417 	.db	120
      00070B 06                    4418 	.sleb128	6
      00070C 00 00r03r6A           4419 	.dw	0,(Sstm8s_uart1$UART1_HalfDuplexCmd$237)
      000710 00 00r03r6C           4420 	.dw	0,(Sstm8s_uart1$UART1_HalfDuplexCmd$238)
      000714 00 02                 4421 	.dw	2
      000716 78                    4422 	.db	120
      000717 04                    4423 	.sleb128	4
      000718 00 00r03r68           4424 	.dw	0,(Sstm8s_uart1$UART1_HalfDuplexCmd$236)
      00071C 00 00r03r6A           4425 	.dw	0,(Sstm8s_uart1$UART1_HalfDuplexCmd$237)
      000720 00 02                 4426 	.dw	2
      000722 78                    4427 	.db	120
      000723 03                    4428 	.sleb128	3
      000724 00 00r03r5E           4429 	.dw	0,(Sstm8s_uart1$UART1_HalfDuplexCmd$234)
      000728 00 00r03r68           4430 	.dw	0,(Sstm8s_uart1$UART1_HalfDuplexCmd$236)
      00072C 00 02                 4431 	.dw	2
      00072E 78                    4432 	.db	120
      00072F 02                    4433 	.sleb128	2
      000730 00 00r03r5D           4434 	.dw	0,(Sstm8s_uart1$UART1_HalfDuplexCmd$233)
      000734 00 00r03r5E           4435 	.dw	0,(Sstm8s_uart1$UART1_HalfDuplexCmd$234)
      000738 00 02                 4436 	.dw	2
      00073A 78                    4437 	.db	120
      00073B 01                    4438 	.sleb128	1
      00073C 00 00 00 00           4439 	.dw	0,0
      000740 00 00 00 00           4440 	.dw	0,0
      000744 00 00r03r5C           4441 	.dw	0,(Sstm8s_uart1$UART1_ITConfig$229)
      000748 00 00r03r5D           4442 	.dw	0,(Sstm8s_uart1$UART1_ITConfig$231)
      00074C 00 02                 4443 	.dw	2
      00074E 78                    4444 	.db	120
      00074F 01                    4445 	.sleb128	1
      000750 00 00r03r2D           4446 	.dw	0,(Sstm8s_uart1$UART1_ITConfig$213)
      000754 00 00r03r5C           4447 	.dw	0,(Sstm8s_uart1$UART1_ITConfig$229)
      000758 00 02                 4448 	.dw	2
      00075A 78                    4449 	.db	120
      00075B 06                    4450 	.sleb128	6
      00075C 00 00r03r2A           4451 	.dw	0,(Sstm8s_uart1$UART1_ITConfig$212)
      000760 00 00r03r2D           4452 	.dw	0,(Sstm8s_uart1$UART1_ITConfig$213)
      000764 00 02                 4453 	.dw	2
      000766 78                    4454 	.db	120
      000767 08                    4455 	.sleb128	8
      000768 00 00r03r21           4456 	.dw	0,(Sstm8s_uart1$UART1_ITConfig$208)
      00076C 00 00r03r2A           4457 	.dw	0,(Sstm8s_uart1$UART1_ITConfig$212)
      000770 00 02                 4458 	.dw	2
      000772 78                    4459 	.db	120
      000773 06                    4460 	.sleb128	6
      000774 00 00r03r1E           4461 	.dw	0,(Sstm8s_uart1$UART1_ITConfig$207)
      000778 00 00r03r21           4462 	.dw	0,(Sstm8s_uart1$UART1_ITConfig$208)
      00077C 00 02                 4463 	.dw	2
      00077E 78                    4464 	.db	120
      00077F 08                    4465 	.sleb128	8
      000780 00 00r03r11           4466 	.dw	0,(Sstm8s_uart1$UART1_ITConfig$202)
      000784 00 00r03r1E           4467 	.dw	0,(Sstm8s_uart1$UART1_ITConfig$207)
      000788 00 02                 4468 	.dw	2
      00078A 78                    4469 	.db	120
      00078B 06                    4470 	.sleb128	6
      00078C 00 00r03r0E           4471 	.dw	0,(Sstm8s_uart1$UART1_ITConfig$201)
      000790 00 00r03r11           4472 	.dw	0,(Sstm8s_uart1$UART1_ITConfig$202)
      000794 00 02                 4473 	.dw	2
      000796 78                    4474 	.db	120
      000797 08                    4475 	.sleb128	8
      000798 00 00r03r02           4476 	.dw	0,(Sstm8s_uart1$UART1_ITConfig$195)
      00079C 00 00r03r0E           4477 	.dw	0,(Sstm8s_uart1$UART1_ITConfig$201)
      0007A0 00 02                 4478 	.dw	2
      0007A2 78                    4479 	.db	120
      0007A3 06                    4480 	.sleb128	6
      0007A4 00 00r02rF7           4481 	.dw	0,(Sstm8s_uart1$UART1_ITConfig$193)
      0007A8 00 00r03r02           4482 	.dw	0,(Sstm8s_uart1$UART1_ITConfig$195)
      0007AC 00 02                 4483 	.dw	2
      0007AE 78                    4484 	.db	120
      0007AF 06                    4485 	.sleb128	6
      0007B0 00 00r02rDB           4486 	.dw	0,(Sstm8s_uart1$UART1_ITConfig$189)
      0007B4 00 00r02rF7           4487 	.dw	0,(Sstm8s_uart1$UART1_ITConfig$193)
      0007B8 00 02                 4488 	.dw	2
      0007BA 78                    4489 	.db	120
      0007BB 06                    4490 	.sleb128	6
      0007BC 00 00r02rDA           4491 	.dw	0,(Sstm8s_uart1$UART1_ITConfig$188)
      0007C0 00 00r02rDB           4492 	.dw	0,(Sstm8s_uart1$UART1_ITConfig$189)
      0007C4 00 02                 4493 	.dw	2
      0007C6 78                    4494 	.db	120
      0007C7 08                    4495 	.sleb128	8
      0007C8 00 00r02rD4           4496 	.dw	0,(Sstm8s_uart1$UART1_ITConfig$187)
      0007CC 00 00r02rDA           4497 	.dw	0,(Sstm8s_uart1$UART1_ITConfig$188)
      0007D0 00 02                 4498 	.dw	2
      0007D2 78                    4499 	.db	120
      0007D3 0C                    4500 	.sleb128	12
      0007D4 00 00r02rD2           4501 	.dw	0,(Sstm8s_uart1$UART1_ITConfig$186)
      0007D8 00 00r02rD4           4502 	.dw	0,(Sstm8s_uart1$UART1_ITConfig$187)
      0007DC 00 02                 4503 	.dw	2
      0007DE 78                    4504 	.db	120
      0007DF 0B                    4505 	.sleb128	11
      0007E0 00 00r02rD0           4506 	.dw	0,(Sstm8s_uart1$UART1_ITConfig$185)
      0007E4 00 00r02rD2           4507 	.dw	0,(Sstm8s_uart1$UART1_ITConfig$186)
      0007E8 00 02                 4508 	.dw	2
      0007EA 78                    4509 	.db	120
      0007EB 0A                    4510 	.sleb128	10
      0007EC 00 00r02rCE           4511 	.dw	0,(Sstm8s_uart1$UART1_ITConfig$184)
      0007F0 00 00r02rD0           4512 	.dw	0,(Sstm8s_uart1$UART1_ITConfig$185)
      0007F4 00 02                 4513 	.dw	2
      0007F6 78                    4514 	.db	120
      0007F7 09                    4515 	.sleb128	9
      0007F8 00 00r02rCC           4516 	.dw	0,(Sstm8s_uart1$UART1_ITConfig$183)
      0007FC 00 00r02rCE           4517 	.dw	0,(Sstm8s_uart1$UART1_ITConfig$184)
      000800 00 02                 4518 	.dw	2
      000802 78                    4519 	.db	120
      000803 08                    4520 	.sleb128	8
      000804 00 00r02rC3           4521 	.dw	0,(Sstm8s_uart1$UART1_ITConfig$181)
      000808 00 00r02rCC           4522 	.dw	0,(Sstm8s_uart1$UART1_ITConfig$183)
      00080C 00 02                 4523 	.dw	2
      00080E 78                    4524 	.db	120
      00080F 06                    4525 	.sleb128	6
      000810 00 00r02rC2           4526 	.dw	0,(Sstm8s_uart1$UART1_ITConfig$180)
      000814 00 00r02rC3           4527 	.dw	0,(Sstm8s_uart1$UART1_ITConfig$181)
      000818 00 02                 4528 	.dw	2
      00081A 78                    4529 	.db	120
      00081B 08                    4530 	.sleb128	8
      00081C 00 00r02rBC           4531 	.dw	0,(Sstm8s_uart1$UART1_ITConfig$179)
      000820 00 00r02rC2           4532 	.dw	0,(Sstm8s_uart1$UART1_ITConfig$180)
      000824 00 02                 4533 	.dw	2
      000826 78                    4534 	.db	120
      000827 0C                    4535 	.sleb128	12
      000828 00 00r02rBA           4536 	.dw	0,(Sstm8s_uart1$UART1_ITConfig$178)
      00082C 00 00r02rBC           4537 	.dw	0,(Sstm8s_uart1$UART1_ITConfig$179)
      000830 00 02                 4538 	.dw	2
      000832 78                    4539 	.db	120
      000833 0B                    4540 	.sleb128	11
      000834 00 00r02rB8           4541 	.dw	0,(Sstm8s_uart1$UART1_ITConfig$177)
      000838 00 00r02rBA           4542 	.dw	0,(Sstm8s_uart1$UART1_ITConfig$178)
      00083C 00 02                 4543 	.dw	2
      00083E 78                    4544 	.db	120
      00083F 0A                    4545 	.sleb128	10
      000840 00 00r02rB6           4546 	.dw	0,(Sstm8s_uart1$UART1_ITConfig$176)
      000844 00 00r02rB8           4547 	.dw	0,(Sstm8s_uart1$UART1_ITConfig$177)
      000848 00 02                 4548 	.dw	2
      00084A 78                    4549 	.db	120
      00084B 09                    4550 	.sleb128	9
      00084C 00 00r02rB4           4551 	.dw	0,(Sstm8s_uart1$UART1_ITConfig$175)
      000850 00 00r02rB6           4552 	.dw	0,(Sstm8s_uart1$UART1_ITConfig$176)
      000854 00 02                 4553 	.dw	2
      000856 78                    4554 	.db	120
      000857 08                    4555 	.sleb128	8
      000858 00 00r02rB3           4556 	.dw	0,(Sstm8s_uart1$UART1_ITConfig$174)
      00085C 00 00r02rB4           4557 	.dw	0,(Sstm8s_uart1$UART1_ITConfig$175)
      000860 00 02                 4558 	.dw	2
      000862 78                    4559 	.db	120
      000863 06                    4560 	.sleb128	6
      000864 00 00r02rAE           4561 	.dw	0,(Sstm8s_uart1$UART1_ITConfig$173)
      000868 00 00r02rB3           4562 	.dw	0,(Sstm8s_uart1$UART1_ITConfig$174)
      00086C 00 02                 4563 	.dw	2
      00086E 78                    4564 	.db	120
      00086F 06                    4565 	.sleb128	6
      000870 00 00r02rA9           4566 	.dw	0,(Sstm8s_uart1$UART1_ITConfig$172)
      000874 00 00r02rAE           4567 	.dw	0,(Sstm8s_uart1$UART1_ITConfig$173)
      000878 00 02                 4568 	.dw	2
      00087A 78                    4569 	.db	120
      00087B 06                    4570 	.sleb128	6
      00087C 00 00r02rA4           4571 	.dw	0,(Sstm8s_uart1$UART1_ITConfig$171)
      000880 00 00r02rA9           4572 	.dw	0,(Sstm8s_uart1$UART1_ITConfig$172)
      000884 00 02                 4573 	.dw	2
      000886 78                    4574 	.db	120
      000887 06                    4575 	.sleb128	6
      000888 00 00r02r9F           4576 	.dw	0,(Sstm8s_uart1$UART1_ITConfig$170)
      00088C 00 00r02rA4           4577 	.dw	0,(Sstm8s_uart1$UART1_ITConfig$171)
      000890 00 02                 4578 	.dw	2
      000892 78                    4579 	.db	120
      000893 06                    4580 	.sleb128	6
      000894 00 00r02r9A           4581 	.dw	0,(Sstm8s_uart1$UART1_ITConfig$169)
      000898 00 00r02r9F           4582 	.dw	0,(Sstm8s_uart1$UART1_ITConfig$170)
      00089C 00 02                 4583 	.dw	2
      00089E 78                    4584 	.db	120
      00089F 06                    4585 	.sleb128	6
      0008A0 00 00r02r8F           4586 	.dw	0,(Sstm8s_uart1$UART1_ITConfig$167)
      0008A4 00 00r02r9A           4587 	.dw	0,(Sstm8s_uart1$UART1_ITConfig$169)
      0008A8 00 02                 4588 	.dw	2
      0008AA 78                    4589 	.db	120
      0008AB 06                    4590 	.sleb128	6
      0008AC 00 00r02r8D           4591 	.dw	0,(Sstm8s_uart1$UART1_ITConfig$166)
      0008B0 00 00r02r8F           4592 	.dw	0,(Sstm8s_uart1$UART1_ITConfig$167)
      0008B4 00 02                 4593 	.dw	2
      0008B6 78                    4594 	.db	120
      0008B7 01                    4595 	.sleb128	1
      0008B8 00 00 00 00           4596 	.dw	0,0
      0008BC 00 00 00 00           4597 	.dw	0,0
      0008C0 00 00r02r8C           4598 	.dw	0,(Sstm8s_uart1$UART1_Cmd$162)
      0008C4 00 00r02r8D           4599 	.dw	0,(Sstm8s_uart1$UART1_Cmd$164)
      0008C8 00 02                 4600 	.dw	2
      0008CA 78                    4601 	.db	120
      0008CB 01                    4602 	.sleb128	1
      0008CC 00 00r02r76           4603 	.dw	0,(Sstm8s_uart1$UART1_Cmd$152)
      0008D0 00 00r02r8C           4604 	.dw	0,(Sstm8s_uart1$UART1_Cmd$162)
      0008D4 00 02                 4605 	.dw	2
      0008D6 78                    4606 	.db	120
      0008D7 02                    4607 	.sleb128	2
      0008D8 00 00r02r75           4608 	.dw	0,(Sstm8s_uart1$UART1_Cmd$151)
      0008DC 00 00r02r76           4609 	.dw	0,(Sstm8s_uart1$UART1_Cmd$152)
      0008E0 00 02                 4610 	.dw	2
      0008E2 78                    4611 	.db	120
      0008E3 01                    4612 	.sleb128	1
      0008E4 00 00r02r74           4613 	.dw	0,(Sstm8s_uart1$UART1_Init$148)
      0008E8 00 00r02r75           4614 	.dw	0,(Sstm8s_uart1$UART1_Init$149)
      0008EC 00 02                 4615 	.dw	2
      0008EE 78                    4616 	.db	120
      0008EF 76                    4617 	.sleb128	-10
      0008F0 00 00r02r6B           4618 	.dw	0,(Sstm8s_uart1$UART1_Init$145)
      0008F4 00 00r02r74           4619 	.dw	0,(Sstm8s_uart1$UART1_Init$148)
      0008F8 00 02                 4620 	.dw	2
      0008FA 78                    4621 	.db	120
      0008FB 0E                    4622 	.sleb128	14
      0008FC 00 00r02r64           4623 	.dw	0,(Sstm8s_uart1$UART1_Init$144)
      000900 00 00r02r6B           4624 	.dw	0,(Sstm8s_uart1$UART1_Init$145)
      000904 00 02                 4625 	.dw	2
      000906 78                    4626 	.db	120
      000907 0F                    4627 	.sleb128	15
      000908 00 00r02r47           4628 	.dw	0,(Sstm8s_uart1$UART1_Init$130)
      00090C 00 00r02r64           4629 	.dw	0,(Sstm8s_uart1$UART1_Init$144)
      000910 00 02                 4630 	.dw	2
      000912 78                    4631 	.db	120
      000913 0E                    4632 	.sleb128	14
      000914 00 00r02r42           4633 	.dw	0,(Sstm8s_uart1$UART1_Init$129)
      000918 00 00r02r47           4634 	.dw	0,(Sstm8s_uart1$UART1_Init$130)
      00091C 00 02                 4635 	.dw	2
      00091E 78                    4636 	.db	120
      00091F 0F                    4637 	.sleb128	15
      000920 00 00r02r30           4638 	.dw	0,(Sstm8s_uart1$UART1_Init$120)
      000924 00 00r02r42           4639 	.dw	0,(Sstm8s_uart1$UART1_Init$129)
      000928 00 02                 4640 	.dw	2
      00092A 78                    4641 	.db	120
      00092B 0E                    4642 	.sleb128	14
      00092C 00 00r02r2B           4643 	.dw	0,(Sstm8s_uart1$UART1_Init$119)
      000930 00 00r02r30           4644 	.dw	0,(Sstm8s_uart1$UART1_Init$120)
      000934 00 02                 4645 	.dw	2
      000936 78                    4646 	.db	120
      000937 0F                    4647 	.sleb128	15
      000938 00 00r01rE1           4648 	.dw	0,(Sstm8s_uart1$UART1_Init$111)
      00093C 00 00r02r2B           4649 	.dw	0,(Sstm8s_uart1$UART1_Init$119)
      000940 00 02                 4650 	.dw	2
      000942 78                    4651 	.db	120
      000943 0E                    4652 	.sleb128	14
      000944 00 00r01rDC           4653 	.dw	0,(Sstm8s_uart1$UART1_Init$110)
      000948 00 00r01rE1           4654 	.dw	0,(Sstm8s_uart1$UART1_Init$111)
      00094C 00 02                 4655 	.dw	2
      00094E 78                    4656 	.db	120
      00094F 16                    4657 	.sleb128	22
      000950 00 00r01rDB           4658 	.dw	0,(Sstm8s_uart1$UART1_Init$109)
      000954 00 00r01rDC           4659 	.dw	0,(Sstm8s_uart1$UART1_Init$110)
      000958 00 02                 4660 	.dw	2
      00095A 78                    4661 	.db	120
      00095B 14                    4662 	.sleb128	20
      00095C 00 00r01rD9           4663 	.dw	0,(Sstm8s_uart1$UART1_Init$108)
      000960 00 00r01rDB           4664 	.dw	0,(Sstm8s_uart1$UART1_Init$109)
      000964 00 02                 4665 	.dw	2
      000966 78                    4666 	.db	120
      000967 12                    4667 	.sleb128	18
      000968 00 00r01rD7           4668 	.dw	0,(Sstm8s_uart1$UART1_Init$107)
      00096C 00 00r01rD9           4669 	.dw	0,(Sstm8s_uart1$UART1_Init$108)
      000970 00 02                 4670 	.dw	2
      000972 78                    4671 	.db	120
      000973 11                    4672 	.sleb128	17
      000974 00 00r01rD5           4673 	.dw	0,(Sstm8s_uart1$UART1_Init$106)
      000978 00 00r01rD7           4674 	.dw	0,(Sstm8s_uart1$UART1_Init$107)
      00097C 00 02                 4675 	.dw	2
      00097E 78                    4676 	.db	120
      00097F 10                    4677 	.sleb128	16
      000980 00 00r01rD3           4678 	.dw	0,(Sstm8s_uart1$UART1_Init$105)
      000984 00 00r01rD5           4679 	.dw	0,(Sstm8s_uart1$UART1_Init$106)
      000988 00 02                 4680 	.dw	2
      00098A 78                    4681 	.db	120
      00098B 0F                    4682 	.sleb128	15
      00098C 00 00r01rBC           4683 	.dw	0,(Sstm8s_uart1$UART1_Init$104)
      000990 00 00r01rD3           4684 	.dw	0,(Sstm8s_uart1$UART1_Init$105)
      000994 00 02                 4685 	.dw	2
      000996 78                    4686 	.db	120
      000997 0E                    4687 	.sleb128	14
      000998 00 00r01rB7           4688 	.dw	0,(Sstm8s_uart1$UART1_Init$103)
      00099C 00 00r01rBC           4689 	.dw	0,(Sstm8s_uart1$UART1_Init$104)
      0009A0 00 02                 4690 	.dw	2
      0009A2 78                    4691 	.db	120
      0009A3 0F                    4692 	.sleb128	15
      0009A4 00 00r01rB2           4693 	.dw	0,(Sstm8s_uart1$UART1_Init$102)
      0009A8 00 00r01rB7           4694 	.dw	0,(Sstm8s_uart1$UART1_Init$103)
      0009AC 00 02                 4695 	.dw	2
      0009AE 78                    4696 	.db	120
      0009AF 17                    4697 	.sleb128	23
      0009B0 00 00r01rB0           4698 	.dw	0,(Sstm8s_uart1$UART1_Init$101)
      0009B4 00 00r01rB2           4699 	.dw	0,(Sstm8s_uart1$UART1_Init$102)
      0009B8 00 02                 4700 	.dw	2
      0009BA 78                    4701 	.db	120
      0009BB 16                    4702 	.sleb128	22
      0009BC 00 00r01rAE           4703 	.dw	0,(Sstm8s_uart1$UART1_Init$100)
      0009C0 00 00r01rB0           4704 	.dw	0,(Sstm8s_uart1$UART1_Init$101)
      0009C4 00 02                 4705 	.dw	2
      0009C6 78                    4706 	.db	120
      0009C7 14                    4707 	.sleb128	20
      0009C8 00 00r01rAC           4708 	.dw	0,(Sstm8s_uart1$UART1_Init$99)
      0009CC 00 00r01rAE           4709 	.dw	0,(Sstm8s_uart1$UART1_Init$100)
      0009D0 00 02                 4710 	.dw	2
      0009D2 78                    4711 	.db	120
      0009D3 13                    4712 	.sleb128	19
      0009D4 00 00r01rA9           4713 	.dw	0,(Sstm8s_uart1$UART1_Init$98)
      0009D8 00 00r01rAC           4714 	.dw	0,(Sstm8s_uart1$UART1_Init$99)
      0009DC 00 02                 4715 	.dw	2
      0009DE 78                    4716 	.db	120
      0009DF 11                    4717 	.sleb128	17
      0009E0 00 00r01rA6           4718 	.dw	0,(Sstm8s_uart1$UART1_Init$97)
      0009E4 00 00r01rA9           4719 	.dw	0,(Sstm8s_uart1$UART1_Init$98)
      0009E8 00 02                 4720 	.dw	2
      0009EA 78                    4721 	.db	120
      0009EB 0F                    4722 	.sleb128	15
      0009EC 00 00r00r00           4723 	.dw	0,(Sstm8s_uart1$UART1_Init$96)
      0009F0 00 00r01rA6           4724 	.dw	0,(Sstm8s_uart1$UART1_Init$97)
      0009F4 00 02                 4725 	.dw	2
      0009F6 78                    4726 	.db	120
      0009F7 0E                    4727 	.sleb128	14
      0009F8 00 00r01rA3           4728 	.dw	0,(Sstm8s_uart1$UART1_Init$95)
      0009FC 00 00r00r00           4729 	.dw	0,(Sstm8s_uart1$UART1_Init$96)
      000A00 00 02                 4730 	.dw	2
      000A02 78                    4731 	.db	120
      000A03 0F                    4732 	.sleb128	15
      000A04 00 00r01r97           4733 	.dw	0,(Sstm8s_uart1$UART1_Init$93)
      000A08 00 00r01rA3           4734 	.dw	0,(Sstm8s_uart1$UART1_Init$95)
      000A0C 00 02                 4735 	.dw	2
      000A0E 78                    4736 	.db	120
      000A0F 0E                    4737 	.sleb128	14
      000A10 00 00r01r92           4738 	.dw	0,(Sstm8s_uart1$UART1_Init$92)
      000A14 00 00r01r97           4739 	.dw	0,(Sstm8s_uart1$UART1_Init$93)
      000A18 00 02                 4740 	.dw	2
      000A1A 78                    4741 	.db	120
      000A1B 16                    4742 	.sleb128	22
      000A1C 00 00r01r90           4743 	.dw	0,(Sstm8s_uart1$UART1_Init$91)
      000A20 00 00r01r92           4744 	.dw	0,(Sstm8s_uart1$UART1_Init$92)
      000A24 00 02                 4745 	.dw	2
      000A26 78                    4746 	.db	120
      000A27 14                    4747 	.sleb128	20
      000A28 00 00r01r8D           4748 	.dw	0,(Sstm8s_uart1$UART1_Init$90)
      000A2C 00 00r01r90           4749 	.dw	0,(Sstm8s_uart1$UART1_Init$91)
      000A30 00 02                 4750 	.dw	2
      000A32 78                    4751 	.db	120
      000A33 12                    4752 	.sleb128	18
      000A34 00 00r01r8A           4753 	.dw	0,(Sstm8s_uart1$UART1_Init$89)
      000A38 00 00r01r8D           4754 	.dw	0,(Sstm8s_uart1$UART1_Init$90)
      000A3C 00 02                 4755 	.dw	2
      000A3E 78                    4756 	.db	120
      000A3F 10                    4757 	.sleb128	16
      000A40 00 00r01r85           4758 	.dw	0,(Sstm8s_uart1$UART1_Init$88)
      000A44 00 00r01r8A           4759 	.dw	0,(Sstm8s_uart1$UART1_Init$89)
      000A48 00 02                 4760 	.dw	2
      000A4A 78                    4761 	.db	120
      000A4B 0E                    4762 	.sleb128	14
      000A4C 00 00r01r80           4763 	.dw	0,(Sstm8s_uart1$UART1_Init$87)
      000A50 00 00r01r85           4764 	.dw	0,(Sstm8s_uart1$UART1_Init$88)
      000A54 00 02                 4765 	.dw	2
      000A56 78                    4766 	.db	120
      000A57 16                    4767 	.sleb128	22
      000A58 00 00r01r7E           4768 	.dw	0,(Sstm8s_uart1$UART1_Init$86)
      000A5C 00 00r01r80           4769 	.dw	0,(Sstm8s_uart1$UART1_Init$87)
      000A60 00 02                 4770 	.dw	2
      000A62 78                    4771 	.db	120
      000A63 15                    4772 	.sleb128	21
      000A64 00 00r01r7C           4773 	.dw	0,(Sstm8s_uart1$UART1_Init$85)
      000A68 00 00r01r7E           4774 	.dw	0,(Sstm8s_uart1$UART1_Init$86)
      000A6C 00 02                 4775 	.dw	2
      000A6E 78                    4776 	.db	120
      000A6F 13                    4777 	.sleb128	19
      000A70 00 00r01r7A           4778 	.dw	0,(Sstm8s_uart1$UART1_Init$84)
      000A74 00 00r01r7C           4779 	.dw	0,(Sstm8s_uart1$UART1_Init$85)
      000A78 00 02                 4780 	.dw	2
      000A7A 78                    4781 	.db	120
      000A7B 12                    4782 	.sleb128	18
      000A7C 00 00r01r78           4783 	.dw	0,(Sstm8s_uart1$UART1_Init$83)
      000A80 00 00r01r7A           4784 	.dw	0,(Sstm8s_uart1$UART1_Init$84)
      000A84 00 02                 4785 	.dw	2
      000A86 78                    4786 	.db	120
      000A87 10                    4787 	.sleb128	16
      000A88 00 00r01r70           4788 	.dw	0,(Sstm8s_uart1$UART1_Init$81)
      000A8C 00 00r01r78           4789 	.dw	0,(Sstm8s_uart1$UART1_Init$83)
      000A90 00 02                 4790 	.dw	2
      000A92 78                    4791 	.db	120
      000A93 0E                    4792 	.sleb128	14
      000A94 00 00r01r6B           4793 	.dw	0,(Sstm8s_uart1$UART1_Init$80)
      000A98 00 00r01r70           4794 	.dw	0,(Sstm8s_uart1$UART1_Init$81)
      000A9C 00 02                 4795 	.dw	2
      000A9E 78                    4796 	.db	120
      000A9F 16                    4797 	.sleb128	22
      000AA0 00 00r01r69           4798 	.dw	0,(Sstm8s_uart1$UART1_Init$79)
      000AA4 00 00r01r6B           4799 	.dw	0,(Sstm8s_uart1$UART1_Init$80)
      000AA8 00 02                 4800 	.dw	2
      000AAA 78                    4801 	.db	120
      000AAB 14                    4802 	.sleb128	20
      000AAC 00 00r01r66           4803 	.dw	0,(Sstm8s_uart1$UART1_Init$78)
      000AB0 00 00r01r69           4804 	.dw	0,(Sstm8s_uart1$UART1_Init$79)
      000AB4 00 02                 4805 	.dw	2
      000AB6 78                    4806 	.db	120
      000AB7 12                    4807 	.sleb128	18
      000AB8 00 00r01r63           4808 	.dw	0,(Sstm8s_uart1$UART1_Init$77)
      000ABC 00 00r01r66           4809 	.dw	0,(Sstm8s_uart1$UART1_Init$78)
      000AC0 00 02                 4810 	.dw	2
      000AC2 78                    4811 	.db	120
      000AC3 10                    4812 	.sleb128	16
      000AC4 00 00r01r08           4813 	.dw	0,(Sstm8s_uart1$UART1_Init$66)
      000AC8 00 00r01r63           4814 	.dw	0,(Sstm8s_uart1$UART1_Init$77)
      000ACC 00 02                 4815 	.dw	2
      000ACE 78                    4816 	.db	120
      000ACF 0E                    4817 	.sleb128	14
      000AD0 00 00r01r02           4818 	.dw	0,(Sstm8s_uart1$UART1_Init$65)
      000AD4 00 00r01r08           4819 	.dw	0,(Sstm8s_uart1$UART1_Init$66)
      000AD8 00 02                 4820 	.dw	2
      000ADA 78                    4821 	.db	120
      000ADB 12                    4822 	.sleb128	18
      000ADC 00 00r01r00           4823 	.dw	0,(Sstm8s_uart1$UART1_Init$64)
      000AE0 00 00r01r02           4824 	.dw	0,(Sstm8s_uart1$UART1_Init$65)
      000AE4 00 02                 4825 	.dw	2
      000AE6 78                    4826 	.db	120
      000AE7 11                    4827 	.sleb128	17
      000AE8 00 00r00rFE           4828 	.dw	0,(Sstm8s_uart1$UART1_Init$63)
      000AEC 00 00r01r00           4829 	.dw	0,(Sstm8s_uart1$UART1_Init$64)
      000AF0 00 02                 4830 	.dw	2
      000AF2 78                    4831 	.db	120
      000AF3 0F                    4832 	.sleb128	15
      000AF4 00 00r00rFC           4833 	.dw	0,(Sstm8s_uart1$UART1_Init$62)
      000AF8 00 00r00rFE           4834 	.dw	0,(Sstm8s_uart1$UART1_Init$63)
      000AFC 00 02                 4835 	.dw	2
      000AFE 78                    4836 	.db	120
      000AFF 0E                    4837 	.sleb128	14
      000B00 00 00r00rF5           4838 	.dw	0,(Sstm8s_uart1$UART1_Init$61)
      000B04 00 00r00rFC           4839 	.dw	0,(Sstm8s_uart1$UART1_Init$62)
      000B08 00 02                 4840 	.dw	2
      000B0A 78                    4841 	.db	120
      000B0B 0E                    4842 	.sleb128	14
      000B0C 00 00r00rEE           4843 	.dw	0,(Sstm8s_uart1$UART1_Init$60)
      000B10 00 00r00rF5           4844 	.dw	0,(Sstm8s_uart1$UART1_Init$61)
      000B14 00 02                 4845 	.dw	2
      000B16 78                    4846 	.db	120
      000B17 0E                    4847 	.sleb128	14
      000B18 00 00r00rE7           4848 	.dw	0,(Sstm8s_uart1$UART1_Init$59)
      000B1C 00 00r00rEE           4849 	.dw	0,(Sstm8s_uart1$UART1_Init$60)
      000B20 00 02                 4850 	.dw	2
      000B22 78                    4851 	.db	120
      000B23 0E                    4852 	.sleb128	14
      000B24 00 00r00rE0           4853 	.dw	0,(Sstm8s_uart1$UART1_Init$57)
      000B28 00 00r00rE7           4854 	.dw	0,(Sstm8s_uart1$UART1_Init$59)
      000B2C 00 02                 4855 	.dw	2
      000B2E 78                    4856 	.db	120
      000B2F 0E                    4857 	.sleb128	14
      000B30 00 00r00rDA           4858 	.dw	0,(Sstm8s_uart1$UART1_Init$56)
      000B34 00 00r00rE0           4859 	.dw	0,(Sstm8s_uart1$UART1_Init$57)
      000B38 00 02                 4860 	.dw	2
      000B3A 78                    4861 	.db	120
      000B3B 12                    4862 	.sleb128	18
      000B3C 00 00r00rD8           4863 	.dw	0,(Sstm8s_uart1$UART1_Init$55)
      000B40 00 00r00rDA           4864 	.dw	0,(Sstm8s_uart1$UART1_Init$56)
      000B44 00 02                 4865 	.dw	2
      000B46 78                    4866 	.db	120
      000B47 11                    4867 	.sleb128	17
      000B48 00 00r00rD6           4868 	.dw	0,(Sstm8s_uart1$UART1_Init$54)
      000B4C 00 00r00rD8           4869 	.dw	0,(Sstm8s_uart1$UART1_Init$55)
      000B50 00 02                 4870 	.dw	2
      000B52 78                    4871 	.db	120
      000B53 0F                    4872 	.sleb128	15
      000B54 00 00r00rD4           4873 	.dw	0,(Sstm8s_uart1$UART1_Init$53)
      000B58 00 00r00rD6           4874 	.dw	0,(Sstm8s_uart1$UART1_Init$54)
      000B5C 00 02                 4875 	.dw	2
      000B5E 78                    4876 	.db	120
      000B5F 0E                    4877 	.sleb128	14
      000B60 00 00r00rCE           4878 	.dw	0,(Sstm8s_uart1$UART1_Init$52)
      000B64 00 00r00rD4           4879 	.dw	0,(Sstm8s_uart1$UART1_Init$53)
      000B68 00 02                 4880 	.dw	2
      000B6A 78                    4881 	.db	120
      000B6B 0E                    4882 	.sleb128	14
      000B6C 00 00r00rC8           4883 	.dw	0,(Sstm8s_uart1$UART1_Init$51)
      000B70 00 00r00rCE           4884 	.dw	0,(Sstm8s_uart1$UART1_Init$52)
      000B74 00 02                 4885 	.dw	2
      000B76 78                    4886 	.db	120
      000B77 0E                    4887 	.sleb128	14
      000B78 00 00r00rBC           4888 	.dw	0,(Sstm8s_uart1$UART1_Init$50)
      000B7C 00 00r00rC8           4889 	.dw	0,(Sstm8s_uart1$UART1_Init$51)
      000B80 00 02                 4890 	.dw	2
      000B82 78                    4891 	.db	120
      000B83 0E                    4892 	.sleb128	14
      000B84 00 00r00rB3           4893 	.dw	0,(Sstm8s_uart1$UART1_Init$49)
      000B88 00 00r00rBC           4894 	.dw	0,(Sstm8s_uart1$UART1_Init$50)
      000B8C 00 02                 4895 	.dw	2
      000B8E 78                    4896 	.db	120
      000B8F 0E                    4897 	.sleb128	14
      000B90 00 00r00rAD           4898 	.dw	0,(Sstm8s_uart1$UART1_Init$48)
      000B94 00 00r00rB3           4899 	.dw	0,(Sstm8s_uart1$UART1_Init$49)
      000B98 00 02                 4900 	.dw	2
      000B9A 78                    4901 	.db	120
      000B9B 0E                    4902 	.sleb128	14
      000B9C 00 00r00rA7           4903 	.dw	0,(Sstm8s_uart1$UART1_Init$47)
      000BA0 00 00r00rAD           4904 	.dw	0,(Sstm8s_uart1$UART1_Init$48)
      000BA4 00 02                 4905 	.dw	2
      000BA6 78                    4906 	.db	120
      000BA7 0E                    4907 	.sleb128	14
      000BA8 00 00r00rA1           4908 	.dw	0,(Sstm8s_uart1$UART1_Init$46)
      000BAC 00 00r00rA7           4909 	.dw	0,(Sstm8s_uart1$UART1_Init$47)
      000BB0 00 02                 4910 	.dw	2
      000BB2 78                    4911 	.db	120
      000BB3 0E                    4912 	.sleb128	14
      000BB4 00 00r00r9B           4913 	.dw	0,(Sstm8s_uart1$UART1_Init$44)
      000BB8 00 00r00rA1           4914 	.dw	0,(Sstm8s_uart1$UART1_Init$46)
      000BBC 00 02                 4915 	.dw	2
      000BBE 78                    4916 	.db	120
      000BBF 0E                    4917 	.sleb128	14
      000BC0 00 00r00r95           4918 	.dw	0,(Sstm8s_uart1$UART1_Init$43)
      000BC4 00 00r00r9B           4919 	.dw	0,(Sstm8s_uart1$UART1_Init$44)
      000BC8 00 02                 4920 	.dw	2
      000BCA 78                    4921 	.db	120
      000BCB 12                    4922 	.sleb128	18
      000BCC 00 00r00r93           4923 	.dw	0,(Sstm8s_uart1$UART1_Init$42)
      000BD0 00 00r00r95           4924 	.dw	0,(Sstm8s_uart1$UART1_Init$43)
      000BD4 00 02                 4925 	.dw	2
      000BD6 78                    4926 	.db	120
      000BD7 11                    4927 	.sleb128	17
      000BD8 00 00r00r91           4928 	.dw	0,(Sstm8s_uart1$UART1_Init$41)
      000BDC 00 00r00r93           4929 	.dw	0,(Sstm8s_uart1$UART1_Init$42)
      000BE0 00 02                 4930 	.dw	2
      000BE2 78                    4931 	.db	120
      000BE3 0F                    4932 	.sleb128	15
      000BE4 00 00r00r8F           4933 	.dw	0,(Sstm8s_uart1$UART1_Init$40)
      000BE8 00 00r00r91           4934 	.dw	0,(Sstm8s_uart1$UART1_Init$41)
      000BEC 00 02                 4935 	.dw	2
      000BEE 78                    4936 	.db	120
      000BEF 0E                    4937 	.sleb128	14
      000BF0 00 00r00r89           4938 	.dw	0,(Sstm8s_uart1$UART1_Init$39)
      000BF4 00 00r00r8F           4939 	.dw	0,(Sstm8s_uart1$UART1_Init$40)
      000BF8 00 02                 4940 	.dw	2
      000BFA 78                    4941 	.db	120
      000BFB 0E                    4942 	.sleb128	14
      000BFC 00 00r00r7F           4943 	.dw	0,(Sstm8s_uart1$UART1_Init$37)
      000C00 00 00r00r89           4944 	.dw	0,(Sstm8s_uart1$UART1_Init$39)
      000C04 00 02                 4945 	.dw	2
      000C06 78                    4946 	.db	120
      000C07 0E                    4947 	.sleb128	14
      000C08 00 00r00r79           4948 	.dw	0,(Sstm8s_uart1$UART1_Init$36)
      000C0C 00 00r00r7F           4949 	.dw	0,(Sstm8s_uart1$UART1_Init$37)
      000C10 00 02                 4950 	.dw	2
      000C12 78                    4951 	.db	120
      000C13 12                    4952 	.sleb128	18
      000C14 00 00r00r77           4953 	.dw	0,(Sstm8s_uart1$UART1_Init$35)
      000C18 00 00r00r79           4954 	.dw	0,(Sstm8s_uart1$UART1_Init$36)
      000C1C 00 02                 4955 	.dw	2
      000C1E 78                    4956 	.db	120
      000C1F 11                    4957 	.sleb128	17
      000C20 00 00r00r75           4958 	.dw	0,(Sstm8s_uart1$UART1_Init$34)
      000C24 00 00r00r77           4959 	.dw	0,(Sstm8s_uart1$UART1_Init$35)
      000C28 00 02                 4960 	.dw	2
      000C2A 78                    4961 	.db	120
      000C2B 0F                    4962 	.sleb128	15
      000C2C 00 00r00r73           4963 	.dw	0,(Sstm8s_uart1$UART1_Init$33)
      000C30 00 00r00r75           4964 	.dw	0,(Sstm8s_uart1$UART1_Init$34)
      000C34 00 02                 4965 	.dw	2
      000C36 78                    4966 	.db	120
      000C37 0E                    4967 	.sleb128	14
      000C38 00 00r00r6D           4968 	.dw	0,(Sstm8s_uart1$UART1_Init$32)
      000C3C 00 00r00r73           4969 	.dw	0,(Sstm8s_uart1$UART1_Init$33)
      000C40 00 02                 4970 	.dw	2
      000C42 78                    4971 	.db	120
      000C43 0E                    4972 	.sleb128	14
      000C44 00 00r00r67           4973 	.dw	0,(Sstm8s_uart1$UART1_Init$31)
      000C48 00 00r00r6D           4974 	.dw	0,(Sstm8s_uart1$UART1_Init$32)
      000C4C 00 02                 4975 	.dw	2
      000C4E 78                    4976 	.db	120
      000C4F 0E                    4977 	.sleb128	14
      000C50 00 00r00r5D           4978 	.dw	0,(Sstm8s_uart1$UART1_Init$29)
      000C54 00 00r00r67           4979 	.dw	0,(Sstm8s_uart1$UART1_Init$31)
      000C58 00 02                 4980 	.dw	2
      000C5A 78                    4981 	.db	120
      000C5B 0E                    4982 	.sleb128	14
      000C5C 00 00r00r57           4983 	.dw	0,(Sstm8s_uart1$UART1_Init$28)
      000C60 00 00r00r5D           4984 	.dw	0,(Sstm8s_uart1$UART1_Init$29)
      000C64 00 02                 4985 	.dw	2
      000C66 78                    4986 	.db	120
      000C67 12                    4987 	.sleb128	18
      000C68 00 00r00r55           4988 	.dw	0,(Sstm8s_uart1$UART1_Init$27)
      000C6C 00 00r00r57           4989 	.dw	0,(Sstm8s_uart1$UART1_Init$28)
      000C70 00 02                 4990 	.dw	2
      000C72 78                    4991 	.db	120
      000C73 11                    4992 	.sleb128	17
      000C74 00 00r00r53           4993 	.dw	0,(Sstm8s_uart1$UART1_Init$26)
      000C78 00 00r00r55           4994 	.dw	0,(Sstm8s_uart1$UART1_Init$27)
      000C7C 00 02                 4995 	.dw	2
      000C7E 78                    4996 	.db	120
      000C7F 0F                    4997 	.sleb128	15
      000C80 00 00r00r51           4998 	.dw	0,(Sstm8s_uart1$UART1_Init$25)
      000C84 00 00r00r53           4999 	.dw	0,(Sstm8s_uart1$UART1_Init$26)
      000C88 00 02                 5000 	.dw	2
      000C8A 78                    5001 	.db	120
      000C8B 0E                    5002 	.sleb128	14
      000C8C 00 00r00r47           5003 	.dw	0,(Sstm8s_uart1$UART1_Init$23)
      000C90 00 00r00r51           5004 	.dw	0,(Sstm8s_uart1$UART1_Init$25)
      000C94 00 02                 5005 	.dw	2
      000C96 78                    5006 	.db	120
      000C97 0E                    5007 	.sleb128	14
      000C98 00 00r00r41           5008 	.dw	0,(Sstm8s_uart1$UART1_Init$22)
      000C9C 00 00r00r47           5009 	.dw	0,(Sstm8s_uart1$UART1_Init$23)
      000CA0 00 02                 5010 	.dw	2
      000CA2 78                    5011 	.db	120
      000CA3 12                    5012 	.sleb128	18
      000CA4 00 00r00r3F           5013 	.dw	0,(Sstm8s_uart1$UART1_Init$21)
      000CA8 00 00r00r41           5014 	.dw	0,(Sstm8s_uart1$UART1_Init$22)
      000CAC 00 02                 5015 	.dw	2
      000CAE 78                    5016 	.db	120
      000CAF 11                    5017 	.sleb128	17
      000CB0 00 00r00r3D           5018 	.dw	0,(Sstm8s_uart1$UART1_Init$20)
      000CB4 00 00r00r3F           5019 	.dw	0,(Sstm8s_uart1$UART1_Init$21)
      000CB8 00 02                 5020 	.dw	2
      000CBA 78                    5021 	.db	120
      000CBB 0F                    5022 	.sleb128	15
      000CBC 00 00r00r2D           5023 	.dw	0,(Sstm8s_uart1$UART1_Init$18)
      000CC0 00 00r00r3D           5024 	.dw	0,(Sstm8s_uart1$UART1_Init$20)
      000CC4 00 02                 5025 	.dw	2
      000CC6 78                    5026 	.db	120
      000CC7 0E                    5027 	.sleb128	14
      000CC8 00 00r00r2B           5028 	.dw	0,(Sstm8s_uart1$UART1_Init$17)
      000CCC 00 00r00r2D           5029 	.dw	0,(Sstm8s_uart1$UART1_Init$18)
      000CD0 00 02                 5030 	.dw	2
      000CD2 78                    5031 	.db	120
      000CD3 01                    5032 	.sleb128	1
      000CD4 00 00 00 00           5033 	.dw	0,0
      000CD8 00 00 00 00           5034 	.dw	0,0
      000CDC 00 00r00r00           5035 	.dw	0,(Sstm8s_uart1$UART1_DeInit$1)
      000CE0 00 00r00r2B           5036 	.dw	0,(Sstm8s_uart1$UART1_DeInit$15)
      000CE4 00 02                 5037 	.dw	2
      000CE6 78                    5038 	.db	120
      000CE7 01                    5039 	.sleb128	1
      000CE8 00 00 00 00           5040 	.dw	0,0
      000CEC 00 00 00 00           5041 	.dw	0,0
                                   5042 
                                   5043 	.area .debug_abbrev (NOLOAD)
      000000                       5044 Ldebug_abbrev:
      000000 01                    5045 	.uleb128	1
      000001 11                    5046 	.uleb128	17
      000002 01                    5047 	.db	1
      000003 03                    5048 	.uleb128	3
      000004 08                    5049 	.uleb128	8
      000005 10                    5050 	.uleb128	16
      000006 06                    5051 	.uleb128	6
      000007 13                    5052 	.uleb128	19
      000008 0B                    5053 	.uleb128	11
      000009 25                    5054 	.uleb128	37
      00000A 08                    5055 	.uleb128	8
      00000B 00                    5056 	.uleb128	0
      00000C 00                    5057 	.uleb128	0
      00000D 02                    5058 	.uleb128	2
      00000E 2E                    5059 	.uleb128	46
      00000F 00                    5060 	.db	0
      000010 03                    5061 	.uleb128	3
      000011 08                    5062 	.uleb128	8
      000012 11                    5063 	.uleb128	17
      000013 01                    5064 	.uleb128	1
      000014 12                    5065 	.uleb128	18
      000015 01                    5066 	.uleb128	1
      000016 3F                    5067 	.uleb128	63
      000017 0C                    5068 	.uleb128	12
      000018 40                    5069 	.uleb128	64
      000019 06                    5070 	.uleb128	6
      00001A 00                    5071 	.uleb128	0
      00001B 00                    5072 	.uleb128	0
      00001C 03                    5073 	.uleb128	3
      00001D 2E                    5074 	.uleb128	46
      00001E 01                    5075 	.db	1
      00001F 01                    5076 	.uleb128	1
      000020 13                    5077 	.uleb128	19
      000021 03                    5078 	.uleb128	3
      000022 08                    5079 	.uleb128	8
      000023 11                    5080 	.uleb128	17
      000024 01                    5081 	.uleb128	1
      000025 3F                    5082 	.uleb128	63
      000026 0C                    5083 	.uleb128	12
      000027 00                    5084 	.uleb128	0
      000028 00                    5085 	.uleb128	0
      000029 04                    5086 	.uleb128	4
      00002A 05                    5087 	.uleb128	5
      00002B 00                    5088 	.db	0
      00002C 02                    5089 	.uleb128	2
      00002D 0A                    5090 	.uleb128	10
      00002E 03                    5091 	.uleb128	3
      00002F 08                    5092 	.uleb128	8
      000030 49                    5093 	.uleb128	73
      000031 13                    5094 	.uleb128	19
      000032 00                    5095 	.uleb128	0
      000033 00                    5096 	.uleb128	0
      000034 05                    5097 	.uleb128	5
      000035 0B                    5098 	.uleb128	11
      000036 00                    5099 	.db	0
      000037 11                    5100 	.uleb128	17
      000038 01                    5101 	.uleb128	1
      000039 12                    5102 	.uleb128	18
      00003A 01                    5103 	.uleb128	1
      00003B 00                    5104 	.uleb128	0
      00003C 00                    5105 	.uleb128	0
      00003D 06                    5106 	.uleb128	6
      00003E 34                    5107 	.uleb128	52
      00003F 00                    5108 	.db	0
      000040 02                    5109 	.uleb128	2
      000041 0A                    5110 	.uleb128	10
      000042 03                    5111 	.uleb128	3
      000043 08                    5112 	.uleb128	8
      000044 49                    5113 	.uleb128	73
      000045 13                    5114 	.uleb128	19
      000046 00                    5115 	.uleb128	0
      000047 00                    5116 	.uleb128	0
      000048 07                    5117 	.uleb128	7
      000049 24                    5118 	.uleb128	36
      00004A 00                    5119 	.db	0
      00004B 03                    5120 	.uleb128	3
      00004C 08                    5121 	.uleb128	8
      00004D 0B                    5122 	.uleb128	11
      00004E 0B                    5123 	.uleb128	11
      00004F 3E                    5124 	.uleb128	62
      000050 0B                    5125 	.uleb128	11
      000051 00                    5126 	.uleb128	0
      000052 00                    5127 	.uleb128	0
      000053 08                    5128 	.uleb128	8
      000054 2E                    5129 	.uleb128	46
      000055 01                    5130 	.db	1
      000056 01                    5131 	.uleb128	1
      000057 13                    5132 	.uleb128	19
      000058 03                    5133 	.uleb128	3
      000059 08                    5134 	.uleb128	8
      00005A 11                    5135 	.uleb128	17
      00005B 01                    5136 	.uleb128	1
      00005C 12                    5137 	.uleb128	18
      00005D 01                    5138 	.uleb128	1
      00005E 3F                    5139 	.uleb128	63
      00005F 0C                    5140 	.uleb128	12
      000060 40                    5141 	.uleb128	64
      000061 06                    5142 	.uleb128	6
      000062 00                    5143 	.uleb128	0
      000063 00                    5144 	.uleb128	0
      000064 09                    5145 	.uleb128	9
      000065 0B                    5146 	.uleb128	11
      000066 01                    5147 	.db	1
      000067 01                    5148 	.uleb128	1
      000068 13                    5149 	.uleb128	19
      000069 11                    5150 	.uleb128	17
      00006A 01                    5151 	.uleb128	1
      00006B 00                    5152 	.uleb128	0
      00006C 00                    5153 	.uleb128	0
      00006D 0A                    5154 	.uleb128	10
      00006E 2E                    5155 	.uleb128	46
      00006F 00                    5156 	.db	0
      000070 03                    5157 	.uleb128	3
      000071 08                    5158 	.uleb128	8
      000072 11                    5159 	.uleb128	17
      000073 01                    5160 	.uleb128	1
      000074 12                    5161 	.uleb128	18
      000075 01                    5162 	.uleb128	1
      000076 3F                    5163 	.uleb128	63
      000077 0C                    5164 	.uleb128	12
      000078 40                    5165 	.uleb128	64
      000079 06                    5166 	.uleb128	6
      00007A 49                    5167 	.uleb128	73
      00007B 13                    5168 	.uleb128	19
      00007C 00                    5169 	.uleb128	0
      00007D 00                    5170 	.uleb128	0
      00007E 0B                    5171 	.uleb128	11
      00007F 2E                    5172 	.uleb128	46
      000080 01                    5173 	.db	1
      000081 01                    5174 	.uleb128	1
      000082 13                    5175 	.uleb128	19
      000083 03                    5176 	.uleb128	3
      000084 08                    5177 	.uleb128	8
      000085 11                    5178 	.uleb128	17
      000086 01                    5179 	.uleb128	1
      000087 12                    5180 	.uleb128	18
      000088 01                    5181 	.uleb128	1
      000089 3F                    5182 	.uleb128	63
      00008A 0C                    5183 	.uleb128	12
      00008B 40                    5184 	.uleb128	64
      00008C 06                    5185 	.uleb128	6
      00008D 49                    5186 	.uleb128	73
      00008E 13                    5187 	.uleb128	19
      00008F 00                    5188 	.uleb128	0
      000090 00                    5189 	.uleb128	0
      000091 0C                    5190 	.uleb128	12
      000092 26                    5191 	.uleb128	38
      000093 00                    5192 	.db	0
      000094 49                    5193 	.uleb128	73
      000095 13                    5194 	.uleb128	19
      000096 00                    5195 	.uleb128	0
      000097 00                    5196 	.uleb128	0
      000098 0D                    5197 	.uleb128	13
      000099 01                    5198 	.uleb128	1
      00009A 01                    5199 	.db	1
      00009B 01                    5200 	.uleb128	1
      00009C 13                    5201 	.uleb128	19
      00009D 0B                    5202 	.uleb128	11
      00009E 0B                    5203 	.uleb128	11
      00009F 49                    5204 	.uleb128	73
      0000A0 13                    5205 	.uleb128	19
      0000A1 00                    5206 	.uleb128	0
      0000A2 00                    5207 	.uleb128	0
      0000A3 0E                    5208 	.uleb128	14
      0000A4 21                    5209 	.uleb128	33
      0000A5 00                    5210 	.db	0
      0000A6 2F                    5211 	.uleb128	47
      0000A7 0B                    5212 	.uleb128	11
      0000A8 00                    5213 	.uleb128	0
      0000A9 00                    5214 	.uleb128	0
      0000AA 00                    5215 	.uleb128	0
                                   5216 
                                   5217 	.area .debug_info (NOLOAD)
      000000 00 00 09 3C           5218 	.dw	0,Ldebug_info_end-Ldebug_info_start
      000004                       5219 Ldebug_info_start:
      000004 00 02                 5220 	.dw	2
      000006 00 00r00r00           5221 	.dw	0,(Ldebug_abbrev)
      00000A 04                    5222 	.db	4
      00000B 01                    5223 	.uleb128	1
      00000C 2E 2F 53 54 4D 38 53  5224 	.ascii "./STM8S_StdPeriph_Lib/Libraries/STM8S_StdPeriph_Driver/src/stm8s_uart1.c"
             5F 53 74 64 50 65 72
             69 70 68 5F 4C 69 62
             2F 4C 69 62 72 61 72
             69 65 73 2F 53 54 4D
             38 53 5F 53 74 64 50
             65 72 69 70 68 5F 44
             72 69 76 65 72 2F 73
             72 63 2F 73 74 6D 38
             73 5F 75 61 72 74 31
             2E 63
      000054 00                    5225 	.db	0
      000055 00 00r00r00           5226 	.dw	0,(Ldebug_line_start+-4)
      000059 01                    5227 	.db	1
      00005A 53 44 43 43 20 76 65  5228 	.ascii "SDCC version 4.3.0 #14184"
             72 73 69 6F 6E 20 34
             2E 33 2E 30 20 23 31
             34 31 38 34
      000073 00                    5229 	.db	0
      000074 02                    5230 	.uleb128	2
      000075 55 41 52 54 31 5F 44  5231 	.ascii "UART1_DeInit"
             65 49 6E 69 74
      000081 00                    5232 	.db	0
      000082 00 00r00r00           5233 	.dw	0,(_UART1_DeInit)
      000086 00 00r00r2B           5234 	.dw	0,(XG$UART1_DeInit$0$0+1)
      00008A 01                    5235 	.db	1
      00008B 00 00r0CrDC           5236 	.dw	0,(Ldebug_loc_start+3292)
      00008F 03                    5237 	.uleb128	3
      000090 00 00 01 81           5238 	.dw	0,385
      000094 55 41 52 54 31 5F 49  5239 	.ascii "UART1_Init"
             6E 69 74
      00009E 00                    5240 	.db	0
      00009F 00 00r00r2B           5241 	.dw	0,(_UART1_Init)
      0000A3 01                    5242 	.db	1
      0000A4 04                    5243 	.uleb128	4
      0000A5 02                    5244 	.db	2
      0000A6 91                    5245 	.db	145
      0000A7 02                    5246 	.sleb128	2
      0000A8 42 61 75 64 52 61 74  5247 	.ascii "BaudRate"
             65
      0000B0 00                    5248 	.db	0
      0000B1 00 00 01 81           5249 	.dw	0,385
      0000B5 04                    5250 	.uleb128	4
      0000B6 02                    5251 	.db	2
      0000B7 91                    5252 	.db	145
      0000B8 06                    5253 	.sleb128	6
      0000B9 57 6F 72 64 4C 65 6E  5254 	.ascii "WordLength"
             67 74 68
      0000C3 00                    5255 	.db	0
      0000C4 00 00 01 92           5256 	.dw	0,402
      0000C8 04                    5257 	.uleb128	4
      0000C9 02                    5258 	.db	2
      0000CA 91                    5259 	.db	145
      0000CB 07                    5260 	.sleb128	7
      0000CC 53 74 6F 70 42 69 74  5261 	.ascii "StopBits"
             73
      0000D4 00                    5262 	.db	0
      0000D5 00 00 01 92           5263 	.dw	0,402
      0000D9 04                    5264 	.uleb128	4
      0000DA 02                    5265 	.db	2
      0000DB 91                    5266 	.db	145
      0000DC 08                    5267 	.sleb128	8
      0000DD 50 61 72 69 74 79     5268 	.ascii "Parity"
      0000E3 00                    5269 	.db	0
      0000E4 00 00 01 92           5270 	.dw	0,402
      0000E8 04                    5271 	.uleb128	4
      0000E9 02                    5272 	.db	2
      0000EA 91                    5273 	.db	145
      0000EB 09                    5274 	.sleb128	9
      0000EC 53 79 6E 63 4D 6F 64  5275 	.ascii "SyncMode"
             65
      0000F4 00                    5276 	.db	0
      0000F5 00 00 01 92           5277 	.dw	0,402
      0000F9 04                    5278 	.uleb128	4
      0000FA 02                    5279 	.db	2
      0000FB 91                    5280 	.db	145
      0000FC 0A                    5281 	.sleb128	10
      0000FD 4D 6F 64 65           5282 	.ascii "Mode"
      000101 00                    5283 	.db	0
      000102 00 00 01 92           5284 	.dw	0,402
      000106 05                    5285 	.uleb128	5
      000107 00 00r02r32           5286 	.dw	0,(Sstm8s_uart1$UART1_Init$121)
      00010B 00 00r02r37           5287 	.dw	0,(Sstm8s_uart1$UART1_Init$123)
      00010F 05                    5288 	.uleb128	5
      000110 00 00r02r39           5289 	.dw	0,(Sstm8s_uart1$UART1_Init$124)
      000114 00 00r02r3E           5290 	.dw	0,(Sstm8s_uart1$UART1_Init$126)
      000118 05                    5291 	.uleb128	5
      000119 00 00r02r49           5292 	.dw	0,(Sstm8s_uart1$UART1_Init$131)
      00011D 00 00r02r4E           5293 	.dw	0,(Sstm8s_uart1$UART1_Init$133)
      000121 05                    5294 	.uleb128	5
      000122 00 00r02r50           5295 	.dw	0,(Sstm8s_uart1$UART1_Init$134)
      000126 00 00r02r55           5296 	.dw	0,(Sstm8s_uart1$UART1_Init$136)
      00012A 05                    5297 	.uleb128	5
      00012B 00 00r02r5C           5298 	.dw	0,(Sstm8s_uart1$UART1_Init$139)
      00012F 00 00r02r61           5299 	.dw	0,(Sstm8s_uart1$UART1_Init$141)
      000133 05                    5300 	.uleb128	5
      000134 00 00r02r63           5301 	.dw	0,(Sstm8s_uart1$UART1_Init$142)
      000138 00 00r02r70           5302 	.dw	0,(Sstm8s_uart1$UART1_Init$146)
      00013C 06                    5303 	.uleb128	6
      00013D 02                    5304 	.db	2
      00013E 91                    5305 	.db	145
      00013F 73                    5306 	.sleb128	-13
      000140 42 61 75 64 52 61 74  5307 	.ascii "BaudRate_Mantissa"
             65 5F 4D 61 6E 74 69
             73 73 61
      000151 00                    5308 	.db	0
      000152 00 00 01 81           5309 	.dw	0,385
      000156 06                    5310 	.uleb128	6
      000157 0F                    5311 	.db	15
      000158 91                    5312 	.db	145
      000159 77                    5313 	.sleb128	-9
      00015A 93                    5314 	.db	147
      00015B 01                    5315 	.uleb128	1
      00015C 50                    5316 	.db	80
      00015D 93                    5317 	.db	147
      00015E 01                    5318 	.uleb128	1
      00015F 91                    5319 	.db	145
      000160 79                    5320 	.sleb128	-7
      000161 93                    5321 	.db	147
      000162 01                    5322 	.uleb128	1
      000163 91                    5323 	.db	145
      000164 7A                    5324 	.sleb128	-6
      000165 93                    5325 	.db	147
      000166 01                    5326 	.uleb128	1
      000167 42 61 75 64 52 61 74  5327 	.ascii "BaudRate_Mantissa100"
             65 5F 4D 61 6E 74 69
             73 73 61 31 30 30
      00017B 00                    5328 	.db	0
      00017C 00 00 01 81           5329 	.dw	0,385
      000180 00                    5330 	.uleb128	0
      000181 07                    5331 	.uleb128	7
      000182 75 6E 73 69 67 6E 65  5332 	.ascii "unsigned long"
             64 20 6C 6F 6E 67
      00018F 00                    5333 	.db	0
      000190 04                    5334 	.db	4
      000191 07                    5335 	.db	7
      000192 07                    5336 	.uleb128	7
      000193 75 6E 73 69 67 6E 65  5337 	.ascii "unsigned char"
             64 20 63 68 61 72
      0001A0 00                    5338 	.db	0
      0001A1 01                    5339 	.db	1
      0001A2 08                    5340 	.db	8
      0001A3 08                    5341 	.uleb128	8
      0001A4 00 00 01 E3           5342 	.dw	0,483
      0001A8 55 41 52 54 31 5F 43  5343 	.ascii "UART1_Cmd"
             6D 64
      0001B1 00                    5344 	.db	0
      0001B2 00 00r02r75           5345 	.dw	0,(_UART1_Cmd)
      0001B6 00 00r02r8D           5346 	.dw	0,(XG$UART1_Cmd$0$0+1)
      0001BA 01                    5347 	.db	1
      0001BB 00 00r08rC0           5348 	.dw	0,(Ldebug_loc_start+2240)
      0001BF 04                    5349 	.uleb128	4
      0001C0 02                    5350 	.db	2
      0001C1 91                    5351 	.db	145
      0001C2 7F                    5352 	.sleb128	-1
      0001C3 4E 65 77 53 74 61 74  5353 	.ascii "NewState"
             65
      0001CB 00                    5354 	.db	0
      0001CC 00 00 01 E3           5355 	.dw	0,483
      0001D0 05                    5356 	.uleb128	5
      0001D1 00 00r02r7F           5357 	.dw	0,(Sstm8s_uart1$UART1_Cmd$155)
      0001D5 00 00r02r84           5358 	.dw	0,(Sstm8s_uart1$UART1_Cmd$157)
      0001D9 05                    5359 	.uleb128	5
      0001DA 00 00r02r86           5360 	.dw	0,(Sstm8s_uart1$UART1_Cmd$158)
      0001DE 00 00r02r8B           5361 	.dw	0,(Sstm8s_uart1$UART1_Cmd$160)
      0001E2 00                    5362 	.uleb128	0
      0001E3 07                    5363 	.uleb128	7
      0001E4 5F 42 6F 6F 6C        5364 	.ascii "_Bool"
      0001E9 00                    5365 	.db	0
      0001EA 01                    5366 	.db	1
      0001EB 02                    5367 	.db	2
      0001EC 08                    5368 	.uleb128	8
      0001ED 00 00 02 96           5369 	.dw	0,662
      0001F1 55 41 52 54 31 5F 49  5370 	.ascii "UART1_ITConfig"
             54 43 6F 6E 66 69 67
      0001FF 00                    5371 	.db	0
      000200 00 00r02r8D           5372 	.dw	0,(_UART1_ITConfig)
      000204 00 00r03r5D           5373 	.dw	0,(XG$UART1_ITConfig$0$0+1)
      000208 01                    5374 	.db	1
      000209 00 00r07r44           5375 	.dw	0,(Ldebug_loc_start+1860)
      00020D 04                    5376 	.uleb128	4
      00020E 02                    5377 	.db	2
      00020F 91                    5378 	.db	145
      000210 7E                    5379 	.sleb128	-2
      000211 55 41 52 54 31 5F 49  5380 	.ascii "UART1_IT"
             54
      000219 00                    5381 	.db	0
      00021A 00 00 02 96           5382 	.dw	0,662
      00021E 04                    5383 	.uleb128	4
      00021F 02                    5384 	.db	2
      000220 91                    5385 	.db	145
      000221 7D                    5386 	.sleb128	-3
      000222 4E 65 77 53 74 61 74  5387 	.ascii "NewState"
             65
      00022A 00                    5388 	.db	0
      00022B 00 00 01 E3           5389 	.dw	0,483
      00022F 09                    5390 	.uleb128	9
      000230 00 00 02 54           5391 	.dw	0,596
      000234 00 00r03r06           5392 	.dw	0,(Sstm8s_uart1$UART1_ITConfig$197)
      000238 05                    5393 	.uleb128	5
      000239 00 00r03r0A           5394 	.dw	0,(Sstm8s_uart1$UART1_ITConfig$199)
      00023D 00 00r03r14           5395 	.dw	0,(Sstm8s_uart1$UART1_ITConfig$203)
      000241 05                    5396 	.uleb128	5
      000242 00 00r03r1A           5397 	.dw	0,(Sstm8s_uart1$UART1_ITConfig$205)
      000246 00 00r03r24           5398 	.dw	0,(Sstm8s_uart1$UART1_ITConfig$209)
      00024A 05                    5399 	.uleb128	5
      00024B 00 00r03r26           5400 	.dw	0,(Sstm8s_uart1$UART1_ITConfig$210)
      00024F 00 00r03r30           5401 	.dw	0,(Sstm8s_uart1$UART1_ITConfig$214)
      000253 00                    5402 	.uleb128	0
      000254 09                    5403 	.uleb128	9
      000255 00 00 02 79           5404 	.dw	0,633
      000259 00 00r03r36           5405 	.dw	0,(Sstm8s_uart1$UART1_ITConfig$216)
      00025D 05                    5406 	.uleb128	5
      00025E 00 00r03r3A           5407 	.dw	0,(Sstm8s_uart1$UART1_ITConfig$218)
      000262 00 00r03r42           5408 	.dw	0,(Sstm8s_uart1$UART1_ITConfig$220)
      000266 05                    5409 	.uleb128	5
      000267 00 00r03r48           5410 	.dw	0,(Sstm8s_uart1$UART1_ITConfig$222)
      00026B 00 00r03r50           5411 	.dw	0,(Sstm8s_uart1$UART1_ITConfig$224)
      00026F 05                    5412 	.uleb128	5
      000270 00 00r03r52           5413 	.dw	0,(Sstm8s_uart1$UART1_ITConfig$225)
      000274 00 00r03r5A           5414 	.dw	0,(Sstm8s_uart1$UART1_ITConfig$227)
      000278 00                    5415 	.uleb128	0
      000279 06                    5416 	.uleb128	6
      00027A 01                    5417 	.db	1
      00027B 52                    5418 	.db	82
      00027C 75 61 72 74 72 65 67  5419 	.ascii "uartreg"
      000283 00                    5420 	.db	0
      000284 00 00 01 92           5421 	.dw	0,402
      000288 06                    5422 	.uleb128	6
      000289 01                    5423 	.db	1
      00028A 51                    5424 	.db	81
      00028B 69 74 70 6F 73        5425 	.ascii "itpos"
      000290 00                    5426 	.db	0
      000291 00 00 01 92           5427 	.dw	0,402
      000295 00                    5428 	.uleb128	0
      000296 07                    5429 	.uleb128	7
      000297 75 6E 73 69 67 6E 65  5430 	.ascii "unsigned int"
             64 20 69 6E 74
      0002A3 00                    5431 	.db	0
      0002A4 02                    5432 	.db	2
      0002A5 07                    5433 	.db	7
      0002A6 08                    5434 	.uleb128	8
      0002A7 00 00 02 F0           5435 	.dw	0,752
      0002AB 55 41 52 54 31 5F 48  5436 	.ascii "UART1_HalfDuplexCmd"
             61 6C 66 44 75 70 6C
             65 78 43 6D 64
      0002BE 00                    5437 	.db	0
      0002BF 00 00r03r5D           5438 	.dw	0,(_UART1_HalfDuplexCmd)
      0002C3 00 00r03r87           5439 	.dw	0,(XG$UART1_HalfDuplexCmd$0$0+1)
      0002C7 01                    5440 	.db	1
      0002C8 00 00r06rE8           5441 	.dw	0,(Ldebug_loc_start+1768)
      0002CC 04                    5442 	.uleb128	4
      0002CD 02                    5443 	.db	2
      0002CE 91                    5444 	.db	145
      0002CF 7F                    5445 	.sleb128	-1
      0002D0 4E 65 77 53 74 61 74  5446 	.ascii "NewState"
             65
      0002D8 00                    5447 	.db	0
      0002D9 00 00 01 E3           5448 	.dw	0,483
      0002DD 05                    5449 	.uleb128	5
      0002DE 00 00r03r79           5450 	.dw	0,(Sstm8s_uart1$UART1_HalfDuplexCmd$242)
      0002E2 00 00r03r7E           5451 	.dw	0,(Sstm8s_uart1$UART1_HalfDuplexCmd$244)
      0002E6 05                    5452 	.uleb128	5
      0002E7 00 00r03r80           5453 	.dw	0,(Sstm8s_uart1$UART1_HalfDuplexCmd$245)
      0002EB 00 00r03r85           5454 	.dw	0,(Sstm8s_uart1$UART1_HalfDuplexCmd$247)
      0002EF 00                    5455 	.uleb128	0
      0002F0 08                    5456 	.uleb128	8
      0002F1 00 00 03 3D           5457 	.dw	0,829
      0002F5 55 41 52 54 31 5F 49  5458 	.ascii "UART1_IrDAConfig"
             72 44 41 43 6F 6E 66
             69 67
      000305 00                    5459 	.db	0
      000306 00 00r03r87           5460 	.dw	0,(_UART1_IrDAConfig)
      00030A 00 00r03rB1           5461 	.dw	0,(XG$UART1_IrDAConfig$0$0+1)
      00030E 01                    5462 	.db	1
      00030F 00 00r06r8C           5463 	.dw	0,(Ldebug_loc_start+1676)
      000313 04                    5464 	.uleb128	4
      000314 02                    5465 	.db	2
      000315 91                    5466 	.db	145
      000316 7F                    5467 	.sleb128	-1
      000317 55 41 52 54 31 5F 49  5468 	.ascii "UART1_IrDAMode"
             72 44 41 4D 6F 64 65
      000325 00                    5469 	.db	0
      000326 00 00 01 E3           5470 	.dw	0,483
      00032A 05                    5471 	.uleb128	5
      00032B 00 00r03rA3           5472 	.dw	0,(Sstm8s_uart1$UART1_IrDAConfig$262)
      00032F 00 00r03rA8           5473 	.dw	0,(Sstm8s_uart1$UART1_IrDAConfig$264)
      000333 05                    5474 	.uleb128	5
      000334 00 00r03rAA           5475 	.dw	0,(Sstm8s_uart1$UART1_IrDAConfig$265)
      000338 00 00r03rAF           5476 	.dw	0,(Sstm8s_uart1$UART1_IrDAConfig$267)
      00033C 00                    5477 	.uleb128	0
      00033D 08                    5478 	.uleb128	8
      00033E 00 00 03 81           5479 	.dw	0,897
      000342 55 41 52 54 31 5F 49  5480 	.ascii "UART1_IrDACmd"
             72 44 41 43 6D 64
      00034F 00                    5481 	.db	0
      000350 00 00r03rB1           5482 	.dw	0,(_UART1_IrDACmd)
      000354 00 00r03rDB           5483 	.dw	0,(XG$UART1_IrDACmd$0$0+1)
      000358 01                    5484 	.db	1
      000359 00 00r06r30           5485 	.dw	0,(Ldebug_loc_start+1584)
      00035D 04                    5486 	.uleb128	4
      00035E 02                    5487 	.db	2
      00035F 91                    5488 	.db	145
      000360 7F                    5489 	.sleb128	-1
      000361 4E 65 77 53 74 61 74  5490 	.ascii "NewState"
             65
      000369 00                    5491 	.db	0
      00036A 00 00 01 E3           5492 	.dw	0,483
      00036E 05                    5493 	.uleb128	5
      00036F 00 00r03rCD           5494 	.dw	0,(Sstm8s_uart1$UART1_IrDACmd$282)
      000373 00 00r03rD2           5495 	.dw	0,(Sstm8s_uart1$UART1_IrDACmd$284)
      000377 05                    5496 	.uleb128	5
      000378 00 00r03rD4           5497 	.dw	0,(Sstm8s_uart1$UART1_IrDACmd$285)
      00037C 00 00r03rD9           5498 	.dw	0,(Sstm8s_uart1$UART1_IrDACmd$287)
      000380 00                    5499 	.uleb128	0
      000381 08                    5500 	.uleb128	8
      000382 00 00 03 EA           5501 	.dw	0,1002
      000386 55 41 52 54 31 5F 4C  5502 	.ascii "UART1_LINBreakDetectionConfig"
             49 4E 42 72 65 61 6B
             44 65 74 65 63 74 69
             6F 6E 43 6F 6E 66 69
             67
      0003A3 00                    5503 	.db	0
      0003A4 00 00r03rDB           5504 	.dw	0,(_UART1_LINBreakDetectionConfig)
      0003A8 00 00r04r05           5505 	.dw	0,(XG$UART1_LINBreakDetectionConfig$0$0+1)
      0003AC 01                    5506 	.db	1
      0003AD 00 00r05rD4           5507 	.dw	0,(Ldebug_loc_start+1492)
      0003B1 04                    5508 	.uleb128	4
      0003B2 02                    5509 	.db	2
      0003B3 91                    5510 	.db	145
      0003B4 7F                    5511 	.sleb128	-1
      0003B5 55 41 52 54 31 5F 4C  5512 	.ascii "UART1_LINBreakDetectionLength"
             49 4E 42 72 65 61 6B
             44 65 74 65 63 74 69
             6F 6E 4C 65 6E 67 74
             68
      0003D2 00                    5513 	.db	0
      0003D3 00 00 01 E3           5514 	.dw	0,483
      0003D7 05                    5515 	.uleb128	5
      0003D8 00 00r03rF7           5516 	.dw	0,(Sstm8s_uart1$UART1_LINBreakDetectionConfig$302)
      0003DC 00 00r03rFC           5517 	.dw	0,(Sstm8s_uart1$UART1_LINBreakDetectionConfig$304)
      0003E0 05                    5518 	.uleb128	5
      0003E1 00 00r03rFE           5519 	.dw	0,(Sstm8s_uart1$UART1_LINBreakDetectionConfig$305)
      0003E5 00 00r04r03           5520 	.dw	0,(Sstm8s_uart1$UART1_LINBreakDetectionConfig$307)
      0003E9 00                    5521 	.uleb128	0
      0003EA 08                    5522 	.uleb128	8
      0003EB 00 00 04 2D           5523 	.dw	0,1069
      0003EF 55 41 52 54 31 5F 4C  5524 	.ascii "UART1_LINCmd"
             49 4E 43 6D 64
      0003FB 00                    5525 	.db	0
      0003FC 00 00r04r05           5526 	.dw	0,(_UART1_LINCmd)
      000400 00 00r04r2F           5527 	.dw	0,(XG$UART1_LINCmd$0$0+1)
      000404 01                    5528 	.db	1
      000405 00 00r05r78           5529 	.dw	0,(Ldebug_loc_start+1400)
      000409 04                    5530 	.uleb128	4
      00040A 02                    5531 	.db	2
      00040B 91                    5532 	.db	145
      00040C 7F                    5533 	.sleb128	-1
      00040D 4E 65 77 53 74 61 74  5534 	.ascii "NewState"
             65
      000415 00                    5535 	.db	0
      000416 00 00 01 E3           5536 	.dw	0,483
      00041A 05                    5537 	.uleb128	5
      00041B 00 00r04r21           5538 	.dw	0,(Sstm8s_uart1$UART1_LINCmd$322)
      00041F 00 00r04r26           5539 	.dw	0,(Sstm8s_uart1$UART1_LINCmd$324)
      000423 05                    5540 	.uleb128	5
      000424 00 00r04r28           5541 	.dw	0,(Sstm8s_uart1$UART1_LINCmd$325)
      000428 00 00r04r2D           5542 	.dw	0,(Sstm8s_uart1$UART1_LINCmd$327)
      00042C 00                    5543 	.uleb128	0
      00042D 08                    5544 	.uleb128	8
      00042E 00 00 04 76           5545 	.dw	0,1142
      000432 55 41 52 54 31 5F 53  5546 	.ascii "UART1_SmartCardCmd"
             6D 61 72 74 43 61 72
             64 43 6D 64
      000444 00                    5547 	.db	0
      000445 00 00r04r2F           5548 	.dw	0,(_UART1_SmartCardCmd)
      000449 00 00r04r59           5549 	.dw	0,(XG$UART1_SmartCardCmd$0$0+1)
      00044D 01                    5550 	.db	1
      00044E 00 00r05r1C           5551 	.dw	0,(Ldebug_loc_start+1308)
      000452 04                    5552 	.uleb128	4
      000453 02                    5553 	.db	2
      000454 91                    5554 	.db	145
      000455 7F                    5555 	.sleb128	-1
      000456 4E 65 77 53 74 61 74  5556 	.ascii "NewState"
             65
      00045E 00                    5557 	.db	0
      00045F 00 00 01 E3           5558 	.dw	0,483
      000463 05                    5559 	.uleb128	5
      000464 00 00r04r4B           5560 	.dw	0,(Sstm8s_uart1$UART1_SmartCardCmd$342)
      000468 00 00r04r50           5561 	.dw	0,(Sstm8s_uart1$UART1_SmartCardCmd$344)
      00046C 05                    5562 	.uleb128	5
      00046D 00 00r04r52           5563 	.dw	0,(Sstm8s_uart1$UART1_SmartCardCmd$345)
      000471 00 00r04r57           5564 	.dw	0,(Sstm8s_uart1$UART1_SmartCardCmd$347)
      000475 00                    5565 	.uleb128	0
      000476 08                    5566 	.uleb128	8
      000477 00 00 04 C3           5567 	.dw	0,1219
      00047B 55 41 52 54 31 5F 53  5568 	.ascii "UART1_SmartCardNACKCmd"
             6D 61 72 74 43 61 72
             64 4E 41 43 4B 43 6D
             64
      000491 00                    5569 	.db	0
      000492 00 00r04r59           5570 	.dw	0,(_UART1_SmartCardNACKCmd)
      000496 00 00r04r83           5571 	.dw	0,(XG$UART1_SmartCardNACKCmd$0$0+1)
      00049A 01                    5572 	.db	1
      00049B 00 00r04rC0           5573 	.dw	0,(Ldebug_loc_start+1216)
      00049F 04                    5574 	.uleb128	4
      0004A0 02                    5575 	.db	2
      0004A1 91                    5576 	.db	145
      0004A2 7F                    5577 	.sleb128	-1
      0004A3 4E 65 77 53 74 61 74  5578 	.ascii "NewState"
             65
      0004AB 00                    5579 	.db	0
      0004AC 00 00 01 E3           5580 	.dw	0,483
      0004B0 05                    5581 	.uleb128	5
      0004B1 00 00r04r75           5582 	.dw	0,(Sstm8s_uart1$UART1_SmartCardNACKCmd$362)
      0004B5 00 00r04r7A           5583 	.dw	0,(Sstm8s_uart1$UART1_SmartCardNACKCmd$364)
      0004B9 05                    5584 	.uleb128	5
      0004BA 00 00r04r7C           5585 	.dw	0,(Sstm8s_uart1$UART1_SmartCardNACKCmd$365)
      0004BE 00 00r04r81           5586 	.dw	0,(Sstm8s_uart1$UART1_SmartCardNACKCmd$367)
      0004C2 00                    5587 	.uleb128	0
      0004C3 08                    5588 	.uleb128	8
      0004C4 00 00 04 FE           5589 	.dw	0,1278
      0004C8 55 41 52 54 31 5F 57  5590 	.ascii "UART1_WakeUpConfig"
             61 6B 65 55 70 43 6F
             6E 66 69 67
      0004DA 00                    5591 	.db	0
      0004DB 00 00r04r83           5592 	.dw	0,(_UART1_WakeUpConfig)
      0004DF 00 00r04rA8           5593 	.dw	0,(XG$UART1_WakeUpConfig$0$0+1)
      0004E3 01                    5594 	.db	1
      0004E4 00 00r04r58           5595 	.dw	0,(Ldebug_loc_start+1112)
      0004E8 04                    5596 	.uleb128	4
      0004E9 02                    5597 	.db	2
      0004EA 91                    5598 	.db	145
      0004EB 7F                    5599 	.sleb128	-1
      0004EC 55 41 52 54 31 5F 57  5600 	.ascii "UART1_WakeUp"
             61 6B 65 55 70
      0004F8 00                    5601 	.db	0
      0004F9 00 00 01 92           5602 	.dw	0,402
      0004FD 00                    5603 	.uleb128	0
      0004FE 08                    5604 	.uleb128	8
      0004FF 00 00 05 4C           5605 	.dw	0,1356
      000503 55 41 52 54 31 5F 52  5606 	.ascii "UART1_ReceiverWakeUpCmd"
             65 63 65 69 76 65 72
             57 61 6B 65 55 70 43
             6D 64
      00051A 00                    5607 	.db	0
      00051B 00 00r04rA8           5608 	.dw	0,(_UART1_ReceiverWakeUpCmd)
      00051F 00 00r04rD2           5609 	.dw	0,(XG$UART1_ReceiverWakeUpCmd$0$0+1)
      000523 01                    5610 	.db	1
      000524 00 00r03rFC           5611 	.dw	0,(Ldebug_loc_start+1020)
      000528 04                    5612 	.uleb128	4
      000529 02                    5613 	.db	2
      00052A 91                    5614 	.db	145
      00052B 7F                    5615 	.sleb128	-1
      00052C 4E 65 77 53 74 61 74  5616 	.ascii "NewState"
             65
      000534 00                    5617 	.db	0
      000535 00 00 01 E3           5618 	.dw	0,483
      000539 05                    5619 	.uleb128	5
      00053A 00 00r04rC4           5620 	.dw	0,(Sstm8s_uart1$UART1_ReceiverWakeUpCmd$397)
      00053E 00 00r04rC9           5621 	.dw	0,(Sstm8s_uart1$UART1_ReceiverWakeUpCmd$399)
      000542 05                    5622 	.uleb128	5
      000543 00 00r04rCB           5623 	.dw	0,(Sstm8s_uart1$UART1_ReceiverWakeUpCmd$400)
      000547 00 00r04rD0           5624 	.dw	0,(Sstm8s_uart1$UART1_ReceiverWakeUpCmd$402)
      00054B 00                    5625 	.uleb128	0
      00054C 0A                    5626 	.uleb128	10
      00054D 55 41 52 54 31 5F 52  5627 	.ascii "UART1_ReceiveData8"
             65 63 65 69 76 65 44
             61 74 61 38
      00055F 00                    5628 	.db	0
      000560 00 00r04rD2           5629 	.dw	0,(_UART1_ReceiveData8)
      000564 00 00r04rD6           5630 	.dw	0,(XG$UART1_ReceiveData8$0$0+1)
      000568 01                    5631 	.db	1
      000569 00 00r03rE8           5632 	.dw	0,(Ldebug_loc_start+1000)
      00056D 00 00 01 92           5633 	.dw	0,402
      000571 07                    5634 	.uleb128	7
      000572 75 6E 73 69 67 6E 65  5635 	.ascii "unsigned int"
             64 20 69 6E 74
      00057E 00                    5636 	.db	0
      00057F 02                    5637 	.db	2
      000580 07                    5638 	.db	7
      000581 0B                    5639 	.uleb128	11
      000582 00 00 05 B8           5640 	.dw	0,1464
      000586 55 41 52 54 31 5F 52  5641 	.ascii "UART1_ReceiveData9"
             65 63 65 69 76 65 44
             61 74 61 39
      000598 00                    5642 	.db	0
      000599 00 00r04rD6           5643 	.dw	0,(_UART1_ReceiveData9)
      00059D 00 00r04rF1           5644 	.dw	0,(XG$UART1_ReceiveData9$0$0+1)
      0005A1 01                    5645 	.db	1
      0005A2 00 00r03rBC           5646 	.dw	0,(Ldebug_loc_start+956)
      0005A6 00 00 05 71           5647 	.dw	0,1393
      0005AA 06                    5648 	.uleb128	6
      0005AB 02                    5649 	.db	2
      0005AC 91                    5650 	.db	145
      0005AD 7E                    5651 	.sleb128	-2
      0005AE 74 65 6D 70           5652 	.ascii "temp"
      0005B2 00                    5653 	.db	0
      0005B3 00 00 05 71           5654 	.dw	0,1393
      0005B7 00                    5655 	.uleb128	0
      0005B8 08                    5656 	.uleb128	8
      0005B9 00 00 05 E7           5657 	.dw	0,1511
      0005BD 55 41 52 54 31 5F 53  5658 	.ascii "UART1_SendData8"
             65 6E 64 44 61 74 61
             38
      0005CC 00                    5659 	.db	0
      0005CD 00 00r04rF1           5660 	.dw	0,(_UART1_SendData8)
      0005D1 00 00r04rF5           5661 	.dw	0,(XG$UART1_SendData8$0$0+1)
      0005D5 01                    5662 	.db	1
      0005D6 00 00r03rA8           5663 	.dw	0,(Ldebug_loc_start+936)
      0005DA 04                    5664 	.uleb128	4
      0005DB 01                    5665 	.db	1
      0005DC 50                    5666 	.db	80
      0005DD 44 61 74 61           5667 	.ascii "Data"
      0005E1 00                    5668 	.db	0
      0005E2 00 00 01 92           5669 	.dw	0,402
      0005E6 00                    5670 	.uleb128	0
      0005E7 08                    5671 	.uleb128	8
      0005E8 00 00 06 1B           5672 	.dw	0,1563
      0005EC 55 41 52 54 31 5F 53  5673 	.ascii "UART1_SendData9"
             65 6E 64 44 61 74 61
             39
      0005FB 00                    5674 	.db	0
      0005FC 00 00r04rF5           5675 	.dw	0,(_UART1_SendData9)
      000600 00 00r05r12           5676 	.dw	0,(XG$UART1_SendData9$0$0+1)
      000604 01                    5677 	.db	1
      000605 00 00r03r7C           5678 	.dw	0,(Ldebug_loc_start+892)
      000609 04                    5679 	.uleb128	4
      00060A 06                    5680 	.db	6
      00060B 54                    5681 	.db	84
      00060C 93                    5682 	.db	147
      00060D 01                    5683 	.uleb128	1
      00060E 53                    5684 	.db	83
      00060F 93                    5685 	.db	147
      000610 01                    5686 	.uleb128	1
      000611 44 61 74 61           5687 	.ascii "Data"
      000615 00                    5688 	.db	0
      000616 00 00 05 71           5689 	.dw	0,1393
      00061A 00                    5690 	.uleb128	0
      00061B 02                    5691 	.uleb128	2
      00061C 55 41 52 54 31 5F 53  5692 	.ascii "UART1_SendBreak"
             65 6E 64 42 72 65 61
             6B
      00062B 00                    5693 	.db	0
      00062C 00 00r05r12           5694 	.dw	0,(_UART1_SendBreak)
      000630 00 00r05r17           5695 	.dw	0,(XG$UART1_SendBreak$0$0+1)
      000634 01                    5696 	.db	1
      000635 00 00r03r68           5697 	.dw	0,(Ldebug_loc_start+872)
      000639 08                    5698 	.uleb128	8
      00063A 00 00 06 73           5699 	.dw	0,1651
      00063E 55 41 52 54 31 5F 53  5700 	.ascii "UART1_SetAddress"
             65 74 41 64 64 72 65
             73 73
      00064E 00                    5701 	.db	0
      00064F 00 00r05r17           5702 	.dw	0,(_UART1_SetAddress)
      000653 00 00r05r3C           5703 	.dw	0,(XG$UART1_SetAddress$0$0+1)
      000657 01                    5704 	.db	1
      000658 00 00r03r0C           5705 	.dw	0,(Ldebug_loc_start+780)
      00065C 04                    5706 	.uleb128	4
      00065D 02                    5707 	.db	2
      00065E 91                    5708 	.db	145
      00065F 7F                    5709 	.sleb128	-1
      000660 55 41 52 54 31 5F 41  5710 	.ascii "UART1_Address"
             64 64 72 65 73 73
      00066D 00                    5711 	.db	0
      00066E 00 00 01 92           5712 	.dw	0,402
      000672 00                    5713 	.uleb128	0
      000673 08                    5714 	.uleb128	8
      000674 00 00 06 B0           5715 	.dw	0,1712
      000678 55 41 52 54 31 5F 53  5716 	.ascii "UART1_SetGuardTime"
             65 74 47 75 61 72 64
             54 69 6D 65
      00068A 00                    5717 	.db	0
      00068B 00 00r05r3C           5718 	.dw	0,(_UART1_SetGuardTime)
      00068F 00 00r05r40           5719 	.dw	0,(XG$UART1_SetGuardTime$0$0+1)
      000693 01                    5720 	.db	1
      000694 00 00r02rF8           5721 	.dw	0,(Ldebug_loc_start+760)
      000698 04                    5722 	.uleb128	4
      000699 01                    5723 	.db	1
      00069A 50                    5724 	.db	80
      00069B 55 41 52 54 31 5F 47  5725 	.ascii "UART1_GuardTime"
             75 61 72 64 54 69 6D
             65
      0006AA 00                    5726 	.db	0
      0006AB 00 00 01 92           5727 	.dw	0,402
      0006AF 00                    5728 	.uleb128	0
      0006B0 08                    5729 	.uleb128	8
      0006B1 00 00 06 ED           5730 	.dw	0,1773
      0006B5 55 41 52 54 31 5F 53  5731 	.ascii "UART1_SetPrescaler"
             65 74 50 72 65 73 63
             61 6C 65 72
      0006C7 00                    5732 	.db	0
      0006C8 00 00r05r40           5733 	.dw	0,(_UART1_SetPrescaler)
      0006CC 00 00r05r44           5734 	.dw	0,(XG$UART1_SetPrescaler$0$0+1)
      0006D0 01                    5735 	.db	1
      0006D1 00 00r02rE4           5736 	.dw	0,(Ldebug_loc_start+740)
      0006D5 04                    5737 	.uleb128	4
      0006D6 01                    5738 	.db	1
      0006D7 50                    5739 	.db	80
      0006D8 55 41 52 54 31 5F 50  5740 	.ascii "UART1_Prescaler"
             72 65 73 63 61 6C 65
             72
      0006E7 00                    5741 	.db	0
      0006E8 00 00 01 92           5742 	.dw	0,402
      0006EC 00                    5743 	.uleb128	0
      0006ED 0B                    5744 	.uleb128	11
      0006EE 00 00 07 91           5745 	.dw	0,1937
      0006F2 55 41 52 54 31 5F 47  5746 	.ascii "UART1_GetFlagStatus"
             65 74 46 6C 61 67 53
             74 61 74 75 73
      000705 00                    5747 	.db	0
      000706 00 00r05r44           5748 	.dw	0,(_UART1_GetFlagStatus)
      00070A 00 00r05rCF           5749 	.dw	0,(XG$UART1_GetFlagStatus$0$0+1)
      00070E 01                    5750 	.db	1
      00070F 00 00r01rE0           5751 	.dw	0,(Ldebug_loc_start+480)
      000713 00 00 01 E3           5752 	.dw	0,483
      000717 04                    5753 	.uleb128	4
      000718 06                    5754 	.db	6
      000719 54                    5755 	.db	84
      00071A 93                    5756 	.db	147
      00071B 01                    5757 	.uleb128	1
      00071C 53                    5758 	.db	83
      00071D 93                    5759 	.db	147
      00071E 01                    5760 	.uleb128	1
      00071F 55 41 52 54 31 5F 46  5761 	.ascii "UART1_FLAG"
             4C 41 47
      000729 00                    5762 	.db	0
      00072A 00 00 02 96           5763 	.dw	0,662
      00072E 09                    5764 	.uleb128	9
      00072F 00 00 07 4A           5765 	.dw	0,1866
      000733 00 00r05rA2           5766 	.dw	0,(Sstm8s_uart1$UART1_GetFlagStatus$494)
      000737 05                    5767 	.uleb128	5
      000738 00 00r05rA9           5768 	.dw	0,(Sstm8s_uart1$UART1_GetFlagStatus$496)
      00073C 00 00r05rAB           5769 	.dw	0,(Sstm8s_uart1$UART1_GetFlagStatus$498)
      000740 05                    5770 	.uleb128	5
      000741 00 00r05rAD           5771 	.dw	0,(Sstm8s_uart1$UART1_GetFlagStatus$499)
      000745 00 00r05rAE           5772 	.dw	0,(Sstm8s_uart1$UART1_GetFlagStatus$501)
      000749 00                    5773 	.uleb128	0
      00074A 09                    5774 	.uleb128	9
      00074B 00 00 07 66           5775 	.dw	0,1894
      00074F 00 00r05rB4           5776 	.dw	0,(Sstm8s_uart1$UART1_GetFlagStatus$503)
      000753 05                    5777 	.uleb128	5
      000754 00 00r05rBB           5778 	.dw	0,(Sstm8s_uart1$UART1_GetFlagStatus$505)
      000758 00 00r05rBD           5779 	.dw	0,(Sstm8s_uart1$UART1_GetFlagStatus$507)
      00075C 05                    5780 	.uleb128	5
      00075D 00 00r05rBF           5781 	.dw	0,(Sstm8s_uart1$UART1_GetFlagStatus$508)
      000761 00 00r05rC0           5782 	.dw	0,(Sstm8s_uart1$UART1_GetFlagStatus$510)
      000765 00                    5783 	.uleb128	0
      000766 09                    5784 	.uleb128	9
      000767 00 00 07 82           5785 	.dw	0,1922
      00076B 00 00r05rC2           5786 	.dw	0,(Sstm8s_uart1$UART1_GetFlagStatus$511)
      00076F 05                    5787 	.uleb128	5
      000770 00 00r05rC9           5788 	.dw	0,(Sstm8s_uart1$UART1_GetFlagStatus$513)
      000774 00 00r05rCB           5789 	.dw	0,(Sstm8s_uart1$UART1_GetFlagStatus$515)
      000778 05                    5790 	.uleb128	5
      000779 00 00r05rCB           5791 	.dw	0,(Sstm8s_uart1$UART1_GetFlagStatus$516)
      00077D 00 00r05rCB           5792 	.dw	0,(Sstm8s_uart1$UART1_GetFlagStatus$518)
      000781 00                    5793 	.uleb128	0
      000782 06                    5794 	.uleb128	6
      000783 01                    5795 	.db	1
      000784 50                    5796 	.db	80
      000785 73 74 61 74 75 73     5797 	.ascii "status"
      00078B 00                    5798 	.db	0
      00078C 00 00 01 E3           5799 	.dw	0,483
      000790 00                    5800 	.uleb128	0
      000791 08                    5801 	.uleb128	8
      000792 00 00 07 DD           5802 	.dw	0,2013
      000796 55 41 52 54 31 5F 43  5803 	.ascii "UART1_ClearFlag"
             6C 65 61 72 46 6C 61
             67
      0007A5 00                    5804 	.db	0
      0007A6 00 00r05rCF           5805 	.dw	0,(_UART1_ClearFlag)
      0007AA 00 00r05rFB           5806 	.dw	0,(XG$UART1_ClearFlag$0$0+1)
      0007AE 01                    5807 	.db	1
      0007AF 00 00r01r6C           5808 	.dw	0,(Ldebug_loc_start+364)
      0007B3 04                    5809 	.uleb128	4
      0007B4 06                    5810 	.db	6
      0007B5 52                    5811 	.db	82
      0007B6 93                    5812 	.db	147
      0007B7 01                    5813 	.uleb128	1
      0007B8 51                    5814 	.db	81
      0007B9 93                    5815 	.db	147
      0007BA 01                    5816 	.uleb128	1
      0007BB 55 41 52 54 31 5F 46  5817 	.ascii "UART1_FLAG"
             4C 41 47
      0007C5 00                    5818 	.db	0
      0007C6 00 00 02 96           5819 	.dw	0,662
      0007CA 05                    5820 	.uleb128	5
      0007CB 00 00r05rF1           5821 	.dw	0,(Sstm8s_uart1$UART1_ClearFlag$536)
      0007CF 00 00r05rF5           5822 	.dw	0,(Sstm8s_uart1$UART1_ClearFlag$538)
      0007D3 05                    5823 	.uleb128	5
      0007D4 00 00r05rF6           5824 	.dw	0,(Sstm8s_uart1$UART1_ClearFlag$539)
      0007D8 00 00r05rFA           5825 	.dw	0,(Sstm8s_uart1$UART1_ClearFlag$541)
      0007DC 00                    5826 	.uleb128	0
      0007DD 0B                    5827 	.uleb128	11
      0007DE 00 00 08 C8           5828 	.dw	0,2248
      0007E2 55 41 52 54 31 5F 47  5829 	.ascii "UART1_GetITStatus"
             65 74 49 54 53 74 61
             74 75 73
      0007F3 00                    5830 	.db	0
      0007F4 00 00r05rFB           5831 	.dw	0,(_UART1_GetITStatus)
      0007F8 00 00r06rBC           5832 	.dw	0,(XG$UART1_GetITStatus$0$0+1)
      0007FC 01                    5833 	.db	1
      0007FD 00 00r00r74           5834 	.dw	0,(Ldebug_loc_start+116)
      000801 00 00 01 E3           5835 	.dw	0,483
      000805 04                    5836 	.uleb128	4
      000806 06                    5837 	.db	6
      000807 54                    5838 	.db	84
      000808 93                    5839 	.db	147
      000809 01                    5840 	.uleb128	1
      00080A 53                    5841 	.db	83
      00080B 93                    5842 	.db	147
      00080C 01                    5843 	.uleb128	1
      00080D 55 41 52 54 31 5F 49  5844 	.ascii "UART1_IT"
             54
      000815 00                    5845 	.db	0
      000816 00 00 02 96           5846 	.dw	0,662
      00081A 09                    5847 	.uleb128	9
      00081B 00 00 08 36           5848 	.dw	0,2102
      00081F 00 00r06r70           5849 	.dw	0,(Sstm8s_uart1$UART1_GetITStatus$570)
      000823 05                    5850 	.uleb128	5
      000824 00 00r06r81           5851 	.dw	0,(Sstm8s_uart1$UART1_GetITStatus$573)
      000828 00 00r06r83           5852 	.dw	0,(Sstm8s_uart1$UART1_GetITStatus$575)
      00082C 05                    5853 	.uleb128	5
      00082D 00 00r06r85           5854 	.dw	0,(Sstm8s_uart1$UART1_GetITStatus$576)
      000831 00 00r06r86           5855 	.dw	0,(Sstm8s_uart1$UART1_GetITStatus$578)
      000835 00                    5856 	.uleb128	0
      000836 09                    5857 	.uleb128	9
      000837 00 00 08 52           5858 	.dw	0,2130
      00083B 00 00r06r8C           5859 	.dw	0,(Sstm8s_uart1$UART1_GetITStatus$580)
      00083F 05                    5860 	.uleb128	5
      000840 00 00r06r9D           5861 	.dw	0,(Sstm8s_uart1$UART1_GetITStatus$583)
      000844 00 00r06r9F           5862 	.dw	0,(Sstm8s_uart1$UART1_GetITStatus$585)
      000848 05                    5863 	.uleb128	5
      000849 00 00r06rA1           5864 	.dw	0,(Sstm8s_uart1$UART1_GetITStatus$586)
      00084D 00 00r06rA2           5865 	.dw	0,(Sstm8s_uart1$UART1_GetITStatus$588)
      000851 00                    5866 	.uleb128	0
      000852 09                    5867 	.uleb128	9
      000853 00 00 08 6E           5868 	.dw	0,2158
      000857 00 00r06rA4           5869 	.dw	0,(Sstm8s_uart1$UART1_GetITStatus$589)
      00085B 05                    5870 	.uleb128	5
      00085C 00 00r06rB5           5871 	.dw	0,(Sstm8s_uart1$UART1_GetITStatus$592)
      000860 00 00r06rB7           5872 	.dw	0,(Sstm8s_uart1$UART1_GetITStatus$594)
      000864 05                    5873 	.uleb128	5
      000865 00 00r06rB7           5874 	.dw	0,(Sstm8s_uart1$UART1_GetITStatus$595)
      000869 00 00r06rB7           5875 	.dw	0,(Sstm8s_uart1$UART1_GetITStatus$597)
      00086D 00                    5876 	.uleb128	0
      00086E 06                    5877 	.uleb128	6
      00086F 01                    5878 	.db	1
      000870 50                    5879 	.db	80
      000871 70 65 6E 64 69 6E 67  5880 	.ascii "pendingbitstatus"
             62 69 74 73 74 61 74
             75 73
      000881 00                    5881 	.db	0
      000882 00 00 01 E3           5882 	.dw	0,483
      000886 06                    5883 	.uleb128	6
      000887 02                    5884 	.db	2
      000888 91                    5885 	.db	145
      000889 7E                    5886 	.sleb128	-2
      00088A 69 74 70 6F 73        5887 	.ascii "itpos"
      00088F 00                    5888 	.db	0
      000890 00 00 01 92           5889 	.dw	0,402
      000894 06                    5890 	.uleb128	6
      000895 01                    5891 	.db	1
      000896 50                    5892 	.db	80
      000897 69 74 6D 61 73 6B 31  5893 	.ascii "itmask1"
      00089E 00                    5894 	.db	0
      00089F 00 00 01 92           5895 	.dw	0,402
      0008A3 06                    5896 	.uleb128	6
      0008A4 02                    5897 	.db	2
      0008A5 91                    5898 	.db	145
      0008A6 7F                    5899 	.sleb128	-1
      0008A7 69 74 6D 61 73 6B 32  5900 	.ascii "itmask2"
      0008AE 00                    5901 	.db	0
      0008AF 00 00 01 92           5902 	.dw	0,402
      0008B3 06                    5903 	.uleb128	6
      0008B4 01                    5904 	.db	1
      0008B5 51                    5905 	.db	81
      0008B6 65 6E 61 62 6C 65 73  5906 	.ascii "enablestatus"
             74 61 74 75 73
      0008C2 00                    5907 	.db	0
      0008C3 00 00 01 92           5908 	.dw	0,402
      0008C7 00                    5909 	.uleb128	0
      0008C8 08                    5910 	.uleb128	8
      0008C9 00 00 09 1A           5911 	.dw	0,2330
      0008CD 55 41 52 54 31 5F 43  5912 	.ascii "UART1_ClearITPendingBit"
             6C 65 61 72 49 54 50
             65 6E 64 69 6E 67 42
             69 74
      0008E4 00                    5913 	.db	0
      0008E5 00 00r06rBC           5914 	.dw	0,(_UART1_ClearITPendingBit)
      0008E9 00 00r06rE8           5915 	.dw	0,(XG$UART1_ClearITPendingBit$0$0+1)
      0008ED 01                    5916 	.db	1
      0008EE 00 00r00r00           5917 	.dw	0,(Ldebug_loc_start)
      0008F2 04                    5918 	.uleb128	4
      0008F3 06                    5919 	.db	6
      0008F4 52                    5920 	.db	82
      0008F5 93                    5921 	.db	147
      0008F6 01                    5922 	.uleb128	1
      0008F7 51                    5923 	.db	81
      0008F8 93                    5924 	.db	147
      0008F9 01                    5925 	.uleb128	1
      0008FA 55 41 52 54 31 5F 49  5926 	.ascii "UART1_IT"
             54
      000902 00                    5927 	.db	0
      000903 00 00 02 96           5928 	.dw	0,662
      000907 05                    5929 	.uleb128	5
      000908 00 00r06rDE           5930 	.dw	0,(Sstm8s_uart1$UART1_ClearITPendingBit$615)
      00090C 00 00r06rE2           5931 	.dw	0,(Sstm8s_uart1$UART1_ClearITPendingBit$617)
      000910 05                    5932 	.uleb128	5
      000911 00 00r06rE3           5933 	.dw	0,(Sstm8s_uart1$UART1_ClearITPendingBit$618)
      000915 00 00r06rE7           5934 	.dw	0,(Sstm8s_uart1$UART1_ClearITPendingBit$620)
      000919 00                    5935 	.uleb128	0
      00091A 0C                    5936 	.uleb128	12
      00091B 00 00 01 92           5937 	.dw	0,402
      00091F 0D                    5938 	.uleb128	13
      000920 00 00 09 2C           5939 	.dw	0,2348
      000924 49                    5940 	.db	73
      000925 00 00 09 1A           5941 	.dw	0,2330
      000929 0E                    5942 	.uleb128	14
      00092A 48                    5943 	.db	72
      00092B 00                    5944 	.uleb128	0
      00092C 06                    5945 	.uleb128	6
      00092D 05                    5946 	.db	5
      00092E 03                    5947 	.db	3
      00092F 00 00r00r00           5948 	.dw	0,(___str_0)
      000933 5F 5F 73 74 72 5F 30  5949 	.ascii "__str_0"
      00093A 00                    5950 	.db	0
      00093B 00 00 09 1F           5951 	.dw	0,2335
      00093F 00                    5952 	.uleb128	0
      000940                       5953 Ldebug_info_end:
                                   5954 
                                   5955 	.area .debug_pubnames (NOLOAD)
      000000 00 00 02 31           5956 	.dw	0,Ldebug_pubnames_end-Ldebug_pubnames_start
      000004                       5957 Ldebug_pubnames_start:
      000004 00 02                 5958 	.dw	2
      000006 00 00r00r00           5959 	.dw	0,(Ldebug_info_start-4)
      00000A 00 00 09 40           5960 	.dw	0,4+Ldebug_info_end-Ldebug_info_start
      00000E 00 00 00 74           5961 	.dw	0,116
      000012 55 41 52 54 31 5F 44  5962 	.ascii "UART1_DeInit"
             65 49 6E 69 74
      00001E 00                    5963 	.db	0
      00001F 00 00 00 8F           5964 	.dw	0,143
      000023 55 41 52 54 31 5F 49  5965 	.ascii "UART1_Init"
             6E 69 74
      00002D 00                    5966 	.db	0
      00002E 00 00 01 A3           5967 	.dw	0,419
      000032 55 41 52 54 31 5F 43  5968 	.ascii "UART1_Cmd"
             6D 64
      00003B 00                    5969 	.db	0
      00003C 00 00 01 EC           5970 	.dw	0,492
      000040 55 41 52 54 31 5F 49  5971 	.ascii "UART1_ITConfig"
             54 43 6F 6E 66 69 67
      00004E 00                    5972 	.db	0
      00004F 00 00 02 A6           5973 	.dw	0,678
      000053 55 41 52 54 31 5F 48  5974 	.ascii "UART1_HalfDuplexCmd"
             61 6C 66 44 75 70 6C
             65 78 43 6D 64
      000066 00                    5975 	.db	0
      000067 00 00 02 F0           5976 	.dw	0,752
      00006B 55 41 52 54 31 5F 49  5977 	.ascii "UART1_IrDAConfig"
             72 44 41 43 6F 6E 66
             69 67
      00007B 00                    5978 	.db	0
      00007C 00 00 03 3D           5979 	.dw	0,829
      000080 55 41 52 54 31 5F 49  5980 	.ascii "UART1_IrDACmd"
             72 44 41 43 6D 64
      00008D 00                    5981 	.db	0
      00008E 00 00 03 81           5982 	.dw	0,897
      000092 55 41 52 54 31 5F 4C  5983 	.ascii "UART1_LINBreakDetectionConfig"
             49 4E 42 72 65 61 6B
             44 65 74 65 63 74 69
             6F 6E 43 6F 6E 66 69
             67
      0000AF 00                    5984 	.db	0
      0000B0 00 00 03 EA           5985 	.dw	0,1002
      0000B4 55 41 52 54 31 5F 4C  5986 	.ascii "UART1_LINCmd"
             49 4E 43 6D 64
      0000C0 00                    5987 	.db	0
      0000C1 00 00 04 2D           5988 	.dw	0,1069
      0000C5 55 41 52 54 31 5F 53  5989 	.ascii "UART1_SmartCardCmd"
             6D 61 72 74 43 61 72
             64 43 6D 64
      0000D7 00                    5990 	.db	0
      0000D8 00 00 04 76           5991 	.dw	0,1142
      0000DC 55 41 52 54 31 5F 53  5992 	.ascii "UART1_SmartCardNACKCmd"
             6D 61 72 74 43 61 72
             64 4E 41 43 4B 43 6D
             64
      0000F2 00                    5993 	.db	0
      0000F3 00 00 04 C3           5994 	.dw	0,1219
      0000F7 55 41 52 54 31 5F 57  5995 	.ascii "UART1_WakeUpConfig"
             61 6B 65 55 70 43 6F
             6E 66 69 67
      000109 00                    5996 	.db	0
      00010A 00 00 04 FE           5997 	.dw	0,1278
      00010E 55 41 52 54 31 5F 52  5998 	.ascii "UART1_ReceiverWakeUpCmd"
             65 63 65 69 76 65 72
             57 61 6B 65 55 70 43
             6D 64
      000125 00                    5999 	.db	0
      000126 00 00 05 4C           6000 	.dw	0,1356
      00012A 55 41 52 54 31 5F 52  6001 	.ascii "UART1_ReceiveData8"
             65 63 65 69 76 65 44
             61 74 61 38
      00013C 00                    6002 	.db	0
      00013D 00 00 05 81           6003 	.dw	0,1409
      000141 55 41 52 54 31 5F 52  6004 	.ascii "UART1_ReceiveData9"
             65 63 65 69 76 65 44
             61 74 61 39
      000153 00                    6005 	.db	0
      000154 00 00 05 B8           6006 	.dw	0,1464
      000158 55 41 52 54 31 5F 53  6007 	.ascii "UART1_SendData8"
             65 6E 64 44 61 74 61
             38
      000167 00                    6008 	.db	0
      000168 00 00 05 E7           6009 	.dw	0,1511
      00016C 55 41 52 54 31 5F 53  6010 	.ascii "UART1_SendData9"
             65 6E 64 44 61 74 61
             39
      00017B 00                    6011 	.db	0
      00017C 00 00 06 1B           6012 	.dw	0,1563
      000180 55 41 52 54 31 5F 53  6013 	.ascii "UART1_SendBreak"
             65 6E 64 42 72 65 61
             6B
      00018F 00                    6014 	.db	0
      000190 00 00 06 39           6015 	.dw	0,1593
      000194 55 41 52 54 31 5F 53  6016 	.ascii "UART1_SetAddress"
             65 74 41 64 64 72 65
             73 73
      0001A4 00                    6017 	.db	0
      0001A5 00 00 06 73           6018 	.dw	0,1651
      0001A9 55 41 52 54 31 5F 53  6019 	.ascii "UART1_SetGuardTime"
             65 74 47 75 61 72 64
             54 69 6D 65
      0001BB 00                    6020 	.db	0
      0001BC 00 00 06 B0           6021 	.dw	0,1712
      0001C0 55 41 52 54 31 5F 53  6022 	.ascii "UART1_SetPrescaler"
             65 74 50 72 65 73 63
             61 6C 65 72
      0001D2 00                    6023 	.db	0
      0001D3 00 00 06 ED           6024 	.dw	0,1773
      0001D7 55 41 52 54 31 5F 47  6025 	.ascii "UART1_GetFlagStatus"
             65 74 46 6C 61 67 53
             74 61 74 75 73
      0001EA 00                    6026 	.db	0
      0001EB 00 00 07 91           6027 	.dw	0,1937
      0001EF 55 41 52 54 31 5F 43  6028 	.ascii "UART1_ClearFlag"
             6C 65 61 72 46 6C 61
             67
      0001FE 00                    6029 	.db	0
      0001FF 00 00 07 DD           6030 	.dw	0,2013
      000203 55 41 52 54 31 5F 47  6031 	.ascii "UART1_GetITStatus"
             65 74 49 54 53 74 61
             74 75 73
      000214 00                    6032 	.db	0
      000215 00 00 08 C8           6033 	.dw	0,2248
      000219 55 41 52 54 31 5F 43  6034 	.ascii "UART1_ClearITPendingBit"
             6C 65 61 72 49 54 50
             65 6E 64 69 6E 67 42
             69 74
      000230 00                    6035 	.db	0
      000231 00 00 00 00           6036 	.dw	0,0
      000235                       6037 Ldebug_pubnames_end:
                                   6038 
                                   6039 	.area .debug_frame (NOLOAD)
      000000 00 00                 6040 	.dw	0
      000002 00 10                 6041 	.dw	Ldebug_CIE0_end-Ldebug_CIE0_start
      000004                       6042 Ldebug_CIE0_start:
      000004 FF FF                 6043 	.dw	0xffff
      000006 FF FF                 6044 	.dw	0xffff
      000008 01                    6045 	.db	1
      000009 00                    6046 	.db	0
      00000A 01                    6047 	.uleb128	1
      00000B 7F                    6048 	.sleb128	-1
      00000C 09                    6049 	.db	9
      00000D 0C                    6050 	.db	12
      00000E 08                    6051 	.uleb128	8
      00000F 02                    6052 	.uleb128	2
      000010 89                    6053 	.db	137
      000011 01                    6054 	.uleb128	1
      000012 00                    6055 	.db	0
      000013 00                    6056 	.db	0
      000014                       6057 Ldebug_CIE0_end:
      000014 00 00 00 4C           6058 	.dw	0,76
      000018 00 00r00r00           6059 	.dw	0,(Ldebug_CIE0_start-4)
      00001C 00 00r06rBC           6060 	.dw	0,(Sstm8s_uart1$UART1_ClearITPendingBit$604)	;initial loc
      000020 00 00 00 2C           6061 	.dw	0,Sstm8s_uart1$UART1_ClearITPendingBit$623-Sstm8s_uart1$UART1_ClearITPendingBit$604
      000024 01                    6062 	.db	1
      000025 00 00r06rBC           6063 	.dw	0,(Sstm8s_uart1$UART1_ClearITPendingBit$604)
      000029 0E                    6064 	.db	14
      00002A 02                    6065 	.uleb128	2
      00002B 01                    6066 	.db	1
      00002C 00 00r06rC5           6067 	.dw	0,(Sstm8s_uart1$UART1_ClearITPendingBit$606)
      000030 0E                    6068 	.db	14
      000031 02                    6069 	.uleb128	2
      000032 01                    6070 	.db	1
      000033 00 00r06rCD           6071 	.dw	0,(Sstm8s_uart1$UART1_ClearITPendingBit$607)
      000037 0E                    6072 	.db	14
      000038 02                    6073 	.uleb128	2
      000039 01                    6074 	.db	1
      00003A 00 00r06rCE           6075 	.dw	0,(Sstm8s_uart1$UART1_ClearITPendingBit$608)
      00003E 0E                    6076 	.db	14
      00003F 03                    6077 	.uleb128	3
      000040 01                    6078 	.db	1
      000041 00 00r06rD0           6079 	.dw	0,(Sstm8s_uart1$UART1_ClearITPendingBit$609)
      000045 0E                    6080 	.db	14
      000046 04                    6081 	.uleb128	4
      000047 01                    6082 	.db	1
      000048 00 00r06rD2           6083 	.dw	0,(Sstm8s_uart1$UART1_ClearITPendingBit$610)
      00004C 0E                    6084 	.db	14
      00004D 05                    6085 	.uleb128	5
      00004E 01                    6086 	.db	1
      00004F 00 00r06rD4           6087 	.dw	0,(Sstm8s_uart1$UART1_ClearITPendingBit$611)
      000053 0E                    6088 	.db	14
      000054 07                    6089 	.uleb128	7
      000055 01                    6090 	.db	1
      000056 00 00r06rDA           6091 	.dw	0,(Sstm8s_uart1$UART1_ClearITPendingBit$612)
      00005A 0E                    6092 	.db	14
      00005B 03                    6093 	.uleb128	3
      00005C 01                    6094 	.db	1
      00005D 00 00r06rDB           6095 	.dw	0,(Sstm8s_uart1$UART1_ClearITPendingBit$613)
      000061 0E                    6096 	.db	14
      000062 02                    6097 	.uleb128	2
      000063 00                    6098 	.db	0
                                   6099 
                                   6100 	.area .debug_frame (NOLOAD)
      000064 00 00                 6101 	.dw	0
      000066 00 10                 6102 	.dw	Ldebug_CIE1_end-Ldebug_CIE1_start
      000068                       6103 Ldebug_CIE1_start:
      000068 FF FF                 6104 	.dw	0xffff
      00006A FF FF                 6105 	.dw	0xffff
      00006C 01                    6106 	.db	1
      00006D 00                    6107 	.db	0
      00006E 01                    6108 	.uleb128	1
      00006F 7F                    6109 	.sleb128	-1
      000070 09                    6110 	.db	9
      000071 0C                    6111 	.db	12
      000072 08                    6112 	.uleb128	8
      000073 02                    6113 	.uleb128	2
      000074 89                    6114 	.db	137
      000075 01                    6115 	.uleb128	1
      000076 00                    6116 	.db	0
      000077 00                    6117 	.db	0
      000078                       6118 Ldebug_CIE1_end:
      000078 00 00 00 98           6119 	.dw	0,152
      00007C 00 00r00r64           6120 	.dw	0,(Ldebug_CIE1_start-4)
      000080 00 00r05rFB           6121 	.dw	0,(Sstm8s_uart1$UART1_GetITStatus$546)	;initial loc
      000084 00 00 00 C1           6122 	.dw	0,Sstm8s_uart1$UART1_GetITStatus$602-Sstm8s_uart1$UART1_GetITStatus$546
      000088 01                    6123 	.db	1
      000089 00 00r05rFB           6124 	.dw	0,(Sstm8s_uart1$UART1_GetITStatus$546)
      00008D 0E                    6125 	.db	14
      00008E 02                    6126 	.uleb128	2
      00008F 01                    6127 	.db	1
      000090 00 00r05rFD           6128 	.dw	0,(Sstm8s_uart1$UART1_GetITStatus$547)
      000094 0E                    6129 	.db	14
      000095 06                    6130 	.uleb128	6
      000096 01                    6131 	.db	1
      000097 00 00r06r0B           6132 	.dw	0,(Sstm8s_uart1$UART1_GetITStatus$549)
      00009B 0E                    6133 	.db	14
      00009C 06                    6134 	.uleb128	6
      00009D 01                    6135 	.db	1
      00009E 00 00r06r17           6136 	.dw	0,(Sstm8s_uart1$UART1_GetITStatus$550)
      0000A2 0E                    6137 	.db	14
      0000A3 06                    6138 	.uleb128	6
      0000A4 01                    6139 	.db	1
      0000A5 00 00r06r1C           6140 	.dw	0,(Sstm8s_uart1$UART1_GetITStatus$551)
      0000A9 0E                    6141 	.db	14
      0000AA 06                    6142 	.uleb128	6
      0000AB 01                    6143 	.db	1
      0000AC 00 00r06r21           6144 	.dw	0,(Sstm8s_uart1$UART1_GetITStatus$552)
      0000B0 0E                    6145 	.db	14
      0000B1 06                    6146 	.uleb128	6
      0000B2 01                    6147 	.db	1
      0000B3 00 00r06r26           6148 	.dw	0,(Sstm8s_uart1$UART1_GetITStatus$553)
      0000B7 0E                    6149 	.db	14
      0000B8 06                    6150 	.uleb128	6
      0000B9 01                    6151 	.db	1
      0000BA 00 00r06r2B           6152 	.dw	0,(Sstm8s_uart1$UART1_GetITStatus$554)
      0000BE 0E                    6153 	.db	14
      0000BF 06                    6154 	.uleb128	6
      0000C0 01                    6155 	.db	1
      0000C1 00 00r06r30           6156 	.dw	0,(Sstm8s_uart1$UART1_GetITStatus$555)
      0000C5 0E                    6157 	.db	14
      0000C6 06                    6158 	.uleb128	6
      0000C7 01                    6159 	.db	1
      0000C8 00 00r06r3A           6160 	.dw	0,(Sstm8s_uart1$UART1_GetITStatus$556)
      0000CC 0E                    6161 	.db	14
      0000CD 08                    6162 	.uleb128	8
      0000CE 01                    6163 	.db	1
      0000CF 00 00r06r3C           6164 	.dw	0,(Sstm8s_uart1$UART1_GetITStatus$557)
      0000D3 0E                    6165 	.db	14
      0000D4 09                    6166 	.uleb128	9
      0000D5 01                    6167 	.db	1
      0000D6 00 00r06r3E           6168 	.dw	0,(Sstm8s_uart1$UART1_GetITStatus$558)
      0000DA 0E                    6169 	.db	14
      0000DB 0A                    6170 	.uleb128	10
      0000DC 01                    6171 	.db	1
      0000DD 00 00r06r40           6172 	.dw	0,(Sstm8s_uart1$UART1_GetITStatus$559)
      0000E1 0E                    6173 	.db	14
      0000E2 0C                    6174 	.uleb128	12
      0000E3 01                    6175 	.db	1
      0000E4 00 00r06r46           6176 	.dw	0,(Sstm8s_uart1$UART1_GetITStatus$560)
      0000E8 0E                    6177 	.db	14
      0000E9 08                    6178 	.uleb128	8
      0000EA 01                    6179 	.db	1
      0000EB 00 00r06r48           6180 	.dw	0,(Sstm8s_uart1$UART1_GetITStatus$561)
      0000EF 0E                    6181 	.db	14
      0000F0 06                    6182 	.uleb128	6
      0000F1 01                    6183 	.db	1
      0000F2 00 00r06r4D           6184 	.dw	0,(Sstm8s_uart1$UART1_GetITStatus$563)
      0000F6 0E                    6185 	.db	14
      0000F7 07                    6186 	.uleb128	7
      0000F8 01                    6187 	.db	1
      0000F9 00 00r06r52           6188 	.dw	0,(Sstm8s_uart1$UART1_GetITStatus$564)
      0000FD 0E                    6189 	.db	14
      0000FE 06                    6190 	.uleb128	6
      0000FF 01                    6191 	.db	1
      000100 00 00r06r5F           6192 	.dw	0,(Sstm8s_uart1$UART1_GetITStatus$567)
      000104 0E                    6193 	.db	14
      000105 07                    6194 	.uleb128	7
      000106 01                    6195 	.db	1
      000107 00 00r06r64           6196 	.dw	0,(Sstm8s_uart1$UART1_GetITStatus$568)
      00010B 0E                    6197 	.db	14
      00010C 06                    6198 	.uleb128	6
      00010D 01                    6199 	.db	1
      00010E 00 00r06rBB           6200 	.dw	0,(Sstm8s_uart1$UART1_GetITStatus$600)
      000112 0E                    6201 	.db	14
      000113 02                    6202 	.uleb128	2
                                   6203 
                                   6204 	.area .debug_frame (NOLOAD)
      000114 00 00                 6205 	.dw	0
      000116 00 10                 6206 	.dw	Ldebug_CIE2_end-Ldebug_CIE2_start
      000118                       6207 Ldebug_CIE2_start:
      000118 FF FF                 6208 	.dw	0xffff
      00011A FF FF                 6209 	.dw	0xffff
      00011C 01                    6210 	.db	1
      00011D 00                    6211 	.db	0
      00011E 01                    6212 	.uleb128	1
      00011F 7F                    6213 	.sleb128	-1
      000120 09                    6214 	.db	9
      000121 0C                    6215 	.db	12
      000122 08                    6216 	.uleb128	8
      000123 02                    6217 	.uleb128	2
      000124 89                    6218 	.db	137
      000125 01                    6219 	.uleb128	1
      000126 00                    6220 	.db	0
      000127 00                    6221 	.db	0
      000128                       6222 Ldebug_CIE2_end:
      000128 00 00 00 4C           6223 	.dw	0,76
      00012C 00 00r01r14           6224 	.dw	0,(Ldebug_CIE2_start-4)
      000130 00 00r05rCF           6225 	.dw	0,(Sstm8s_uart1$UART1_ClearFlag$525)	;initial loc
      000134 00 00 00 2C           6226 	.dw	0,Sstm8s_uart1$UART1_ClearFlag$544-Sstm8s_uart1$UART1_ClearFlag$525
      000138 01                    6227 	.db	1
      000139 00 00r05rCF           6228 	.dw	0,(Sstm8s_uart1$UART1_ClearFlag$525)
      00013D 0E                    6229 	.db	14
      00013E 02                    6230 	.uleb128	2
      00013F 01                    6231 	.db	1
      000140 00 00r05rD8           6232 	.dw	0,(Sstm8s_uart1$UART1_ClearFlag$527)
      000144 0E                    6233 	.db	14
      000145 02                    6234 	.uleb128	2
      000146 01                    6235 	.db	1
      000147 00 00r05rE0           6236 	.dw	0,(Sstm8s_uart1$UART1_ClearFlag$528)
      00014B 0E                    6237 	.db	14
      00014C 02                    6238 	.uleb128	2
      00014D 01                    6239 	.db	1
      00014E 00 00r05rE1           6240 	.dw	0,(Sstm8s_uart1$UART1_ClearFlag$529)
      000152 0E                    6241 	.db	14
      000153 03                    6242 	.uleb128	3
      000154 01                    6243 	.db	1
      000155 00 00r05rE3           6244 	.dw	0,(Sstm8s_uart1$UART1_ClearFlag$530)
      000159 0E                    6245 	.db	14
      00015A 04                    6246 	.uleb128	4
      00015B 01                    6247 	.db	1
      00015C 00 00r05rE5           6248 	.dw	0,(Sstm8s_uart1$UART1_ClearFlag$531)
      000160 0E                    6249 	.db	14
      000161 05                    6250 	.uleb128	5
      000162 01                    6251 	.db	1
      000163 00 00r05rE7           6252 	.dw	0,(Sstm8s_uart1$UART1_ClearFlag$532)
      000167 0E                    6253 	.db	14
      000168 07                    6254 	.uleb128	7
      000169 01                    6255 	.db	1
      00016A 00 00r05rED           6256 	.dw	0,(Sstm8s_uart1$UART1_ClearFlag$533)
      00016E 0E                    6257 	.db	14
      00016F 03                    6258 	.uleb128	3
      000170 01                    6259 	.db	1
      000171 00 00r05rEE           6260 	.dw	0,(Sstm8s_uart1$UART1_ClearFlag$534)
      000175 0E                    6261 	.db	14
      000176 02                    6262 	.uleb128	2
      000177 00                    6263 	.db	0
                                   6264 
                                   6265 	.area .debug_frame (NOLOAD)
      000178 00 00                 6266 	.dw	0
      00017A 00 10                 6267 	.dw	Ldebug_CIE3_end-Ldebug_CIE3_start
      00017C                       6268 Ldebug_CIE3_start:
      00017C FF FF                 6269 	.dw	0xffff
      00017E FF FF                 6270 	.dw	0xffff
      000180 01                    6271 	.db	1
      000181 00                    6272 	.db	0
      000182 01                    6273 	.uleb128	1
      000183 7F                    6274 	.sleb128	-1
      000184 09                    6275 	.db	9
      000185 0C                    6276 	.db	12
      000186 08                    6277 	.uleb128	8
      000187 02                    6278 	.uleb128	2
      000188 89                    6279 	.db	137
      000189 01                    6280 	.uleb128	1
      00018A 00                    6281 	.db	0
      00018B 00                    6282 	.db	0
      00018C                       6283 Ldebug_CIE3_end:
      00018C 00 00 00 A0           6284 	.dw	0,160
      000190 00 00r01r78           6285 	.dw	0,(Ldebug_CIE3_start-4)
      000194 00 00r05r44           6286 	.dw	0,(Sstm8s_uart1$UART1_GetFlagStatus$471)	;initial loc
      000198 00 00 00 8B           6287 	.dw	0,Sstm8s_uart1$UART1_GetFlagStatus$523-Sstm8s_uart1$UART1_GetFlagStatus$471
      00019C 01                    6288 	.db	1
      00019D 00 00r05r44           6289 	.dw	0,(Sstm8s_uart1$UART1_GetFlagStatus$471)
      0001A1 0E                    6290 	.db	14
      0001A2 02                    6291 	.uleb128	2
      0001A3 01                    6292 	.db	1
      0001A4 00 00r05r45           6293 	.dw	0,(Sstm8s_uart1$UART1_GetFlagStatus$472)
      0001A8 0E                    6294 	.db	14
      0001A9 04                    6295 	.uleb128	4
      0001AA 01                    6296 	.db	1
      0001AB 00 00r05r53           6297 	.dw	0,(Sstm8s_uart1$UART1_GetFlagStatus$474)
      0001AF 0E                    6298 	.db	14
      0001B0 04                    6299 	.uleb128	4
      0001B1 01                    6300 	.db	1
      0001B2 00 00r05r5C           6301 	.dw	0,(Sstm8s_uart1$UART1_GetFlagStatus$475)
      0001B6 0E                    6302 	.db	14
      0001B7 04                    6303 	.uleb128	4
      0001B8 01                    6304 	.db	1
      0001B9 00 00r05r61           6305 	.dw	0,(Sstm8s_uart1$UART1_GetFlagStatus$476)
      0001BD 0E                    6306 	.db	14
      0001BE 04                    6307 	.uleb128	4
      0001BF 01                    6308 	.db	1
      0001C0 00 00r05r66           6309 	.dw	0,(Sstm8s_uart1$UART1_GetFlagStatus$477)
      0001C4 0E                    6310 	.db	14
      0001C5 04                    6311 	.uleb128	4
      0001C6 01                    6312 	.db	1
      0001C7 00 00r05r6B           6313 	.dw	0,(Sstm8s_uart1$UART1_GetFlagStatus$478)
      0001CB 0E                    6314 	.db	14
      0001CC 04                    6315 	.uleb128	4
      0001CD 01                    6316 	.db	1
      0001CE 00 00r05r70           6317 	.dw	0,(Sstm8s_uart1$UART1_GetFlagStatus$479)
      0001D2 0E                    6318 	.db	14
      0001D3 04                    6319 	.uleb128	4
      0001D4 01                    6320 	.db	1
      0001D5 00 00r05r75           6321 	.dw	0,(Sstm8s_uart1$UART1_GetFlagStatus$480)
      0001D9 0E                    6322 	.db	14
      0001DA 04                    6323 	.uleb128	4
      0001DB 01                    6324 	.db	1
      0001DC 00 00r05r7A           6325 	.dw	0,(Sstm8s_uart1$UART1_GetFlagStatus$481)
      0001E0 0E                    6326 	.db	14
      0001E1 04                    6327 	.uleb128	4
      0001E2 01                    6328 	.db	1
      0001E3 00 00r05r7F           6329 	.dw	0,(Sstm8s_uart1$UART1_GetFlagStatus$482)
      0001E7 0E                    6330 	.db	14
      0001E8 04                    6331 	.uleb128	4
      0001E9 01                    6332 	.db	1
      0001EA 00 00r05r82           6333 	.dw	0,(Sstm8s_uart1$UART1_GetFlagStatus$483)
      0001EE 0E                    6334 	.db	14
      0001EF 04                    6335 	.uleb128	4
      0001F0 01                    6336 	.db	1
      0001F1 00 00r05r8A           6337 	.dw	0,(Sstm8s_uart1$UART1_GetFlagStatus$484)
      0001F5 0E                    6338 	.db	14
      0001F6 05                    6339 	.uleb128	5
      0001F7 01                    6340 	.db	1
      0001F8 00 00r05r8C           6341 	.dw	0,(Sstm8s_uart1$UART1_GetFlagStatus$485)
      0001FC 0E                    6342 	.db	14
      0001FD 07                    6343 	.uleb128	7
      0001FE 01                    6344 	.db	1
      0001FF 00 00r05r8E           6345 	.dw	0,(Sstm8s_uart1$UART1_GetFlagStatus$486)
      000203 0E                    6346 	.db	14
      000204 08                    6347 	.uleb128	8
      000205 01                    6348 	.db	1
      000206 00 00r05r90           6349 	.dw	0,(Sstm8s_uart1$UART1_GetFlagStatus$487)
      00020A 0E                    6350 	.db	14
      00020B 09                    6351 	.uleb128	9
      00020C 01                    6352 	.db	1
      00020D 00 00r05r92           6353 	.dw	0,(Sstm8s_uart1$UART1_GetFlagStatus$488)
      000211 0E                    6354 	.db	14
      000212 0B                    6355 	.uleb128	11
      000213 01                    6356 	.db	1
      000214 00 00r05r98           6357 	.dw	0,(Sstm8s_uart1$UART1_GetFlagStatus$489)
      000218 0E                    6358 	.db	14
      000219 07                    6359 	.uleb128	7
      00021A 01                    6360 	.db	1
      00021B 00 00r05r9A           6361 	.dw	0,(Sstm8s_uart1$UART1_GetFlagStatus$490)
      00021F 0E                    6362 	.db	14
      000220 05                    6363 	.uleb128	5
      000221 01                    6364 	.db	1
      000222 00 00r05r9B           6365 	.dw	0,(Sstm8s_uart1$UART1_GetFlagStatus$491)
      000226 0E                    6366 	.db	14
      000227 04                    6367 	.uleb128	4
      000228 01                    6368 	.db	1
      000229 00 00r05rCE           6369 	.dw	0,(Sstm8s_uart1$UART1_GetFlagStatus$521)
      00022D 0E                    6370 	.db	14
      00022E 02                    6371 	.uleb128	2
      00022F 00                    6372 	.db	0
                                   6373 
                                   6374 	.area .debug_frame (NOLOAD)
      000230 00 00                 6375 	.dw	0
      000232 00 10                 6376 	.dw	Ldebug_CIE4_end-Ldebug_CIE4_start
      000234                       6377 Ldebug_CIE4_start:
      000234 FF FF                 6378 	.dw	0xffff
      000236 FF FF                 6379 	.dw	0xffff
      000238 01                    6380 	.db	1
      000239 00                    6381 	.db	0
      00023A 01                    6382 	.uleb128	1
      00023B 7F                    6383 	.sleb128	-1
      00023C 09                    6384 	.db	9
      00023D 0C                    6385 	.db	12
      00023E 08                    6386 	.uleb128	8
      00023F 02                    6387 	.uleb128	2
      000240 89                    6388 	.db	137
      000241 01                    6389 	.uleb128	1
      000242 00                    6390 	.db	0
      000243 00                    6391 	.db	0
      000244                       6392 Ldebug_CIE4_end:
      000244 00 00 00 14           6393 	.dw	0,20
      000248 00 00r02r30           6394 	.dw	0,(Ldebug_CIE4_start-4)
      00024C 00 00r05r40           6395 	.dw	0,(Sstm8s_uart1$UART1_SetPrescaler$465)	;initial loc
      000250 00 00 00 04           6396 	.dw	0,Sstm8s_uart1$UART1_SetPrescaler$469-Sstm8s_uart1$UART1_SetPrescaler$465
      000254 01                    6397 	.db	1
      000255 00 00r05r40           6398 	.dw	0,(Sstm8s_uart1$UART1_SetPrescaler$465)
      000259 0E                    6399 	.db	14
      00025A 02                    6400 	.uleb128	2
      00025B 00                    6401 	.db	0
                                   6402 
                                   6403 	.area .debug_frame (NOLOAD)
      00025C 00 00                 6404 	.dw	0
      00025E 00 10                 6405 	.dw	Ldebug_CIE5_end-Ldebug_CIE5_start
      000260                       6406 Ldebug_CIE5_start:
      000260 FF FF                 6407 	.dw	0xffff
      000262 FF FF                 6408 	.dw	0xffff
      000264 01                    6409 	.db	1
      000265 00                    6410 	.db	0
      000266 01                    6411 	.uleb128	1
      000267 7F                    6412 	.sleb128	-1
      000268 09                    6413 	.db	9
      000269 0C                    6414 	.db	12
      00026A 08                    6415 	.uleb128	8
      00026B 02                    6416 	.uleb128	2
      00026C 89                    6417 	.db	137
      00026D 01                    6418 	.uleb128	1
      00026E 00                    6419 	.db	0
      00026F 00                    6420 	.db	0
      000270                       6421 Ldebug_CIE5_end:
      000270 00 00 00 14           6422 	.dw	0,20
      000274 00 00r02r5C           6423 	.dw	0,(Ldebug_CIE5_start-4)
      000278 00 00r05r3C           6424 	.dw	0,(Sstm8s_uart1$UART1_SetGuardTime$459)	;initial loc
      00027C 00 00 00 04           6425 	.dw	0,Sstm8s_uart1$UART1_SetGuardTime$463-Sstm8s_uart1$UART1_SetGuardTime$459
      000280 01                    6426 	.db	1
      000281 00 00r05r3C           6427 	.dw	0,(Sstm8s_uart1$UART1_SetGuardTime$459)
      000285 0E                    6428 	.db	14
      000286 02                    6429 	.uleb128	2
      000287 00                    6430 	.db	0
                                   6431 
                                   6432 	.area .debug_frame (NOLOAD)
      000288 00 00                 6433 	.dw	0
      00028A 00 10                 6434 	.dw	Ldebug_CIE6_end-Ldebug_CIE6_start
      00028C                       6435 Ldebug_CIE6_start:
      00028C FF FF                 6436 	.dw	0xffff
      00028E FF FF                 6437 	.dw	0xffff
      000290 01                    6438 	.db	1
      000291 00                    6439 	.db	0
      000292 01                    6440 	.uleb128	1
      000293 7F                    6441 	.sleb128	-1
      000294 09                    6442 	.db	9
      000295 0C                    6443 	.db	12
      000296 08                    6444 	.uleb128	8
      000297 02                    6445 	.uleb128	2
      000298 89                    6446 	.db	137
      000299 01                    6447 	.uleb128	1
      00029A 00                    6448 	.db	0
      00029B 00                    6449 	.db	0
      00029C                       6450 Ldebug_CIE6_end:
      00029C 00 00 00 40           6451 	.dw	0,64
      0002A0 00 00r02r88           6452 	.dw	0,(Ldebug_CIE6_start-4)
      0002A4 00 00r05r17           6453 	.dw	0,(Sstm8s_uart1$UART1_SetAddress$445)	;initial loc
      0002A8 00 00 00 25           6454 	.dw	0,Sstm8s_uart1$UART1_SetAddress$457-Sstm8s_uart1$UART1_SetAddress$445
      0002AC 01                    6455 	.db	1
      0002AD 00 00r05r17           6456 	.dw	0,(Sstm8s_uart1$UART1_SetAddress$445)
      0002B1 0E                    6457 	.db	14
      0002B2 02                    6458 	.uleb128	2
      0002B3 01                    6459 	.db	1
      0002B4 00 00r05r18           6460 	.dw	0,(Sstm8s_uart1$UART1_SetAddress$446)
      0002B8 0E                    6461 	.db	14
      0002B9 03                    6462 	.uleb128	3
      0002BA 01                    6463 	.db	1
      0002BB 00 00r05r20           6464 	.dw	0,(Sstm8s_uart1$UART1_SetAddress$448)
      0002BF 0E                    6465 	.db	14
      0002C0 04                    6466 	.uleb128	4
      0002C1 01                    6467 	.db	1
      0002C2 00 00r05r22           6468 	.dw	0,(Sstm8s_uart1$UART1_SetAddress$449)
      0002C6 0E                    6469 	.db	14
      0002C7 05                    6470 	.uleb128	5
      0002C8 01                    6471 	.db	1
      0002C9 00 00r05r24           6472 	.dw	0,(Sstm8s_uart1$UART1_SetAddress$450)
      0002CD 0E                    6473 	.db	14
      0002CE 07                    6474 	.uleb128	7
      0002CF 01                    6475 	.db	1
      0002D0 00 00r05r2A           6476 	.dw	0,(Sstm8s_uart1$UART1_SetAddress$451)
      0002D4 0E                    6477 	.db	14
      0002D5 03                    6478 	.uleb128	3
      0002D6 01                    6479 	.db	1
      0002D7 00 00r05r3B           6480 	.dw	0,(Sstm8s_uart1$UART1_SetAddress$455)
      0002DB 0E                    6481 	.db	14
      0002DC 02                    6482 	.uleb128	2
      0002DD 00                    6483 	.db	0
      0002DE 00                    6484 	.db	0
      0002DF 00                    6485 	.db	0
                                   6486 
                                   6487 	.area .debug_frame (NOLOAD)
      0002E0 00 00                 6488 	.dw	0
      0002E2 00 10                 6489 	.dw	Ldebug_CIE7_end-Ldebug_CIE7_start
      0002E4                       6490 Ldebug_CIE7_start:
      0002E4 FF FF                 6491 	.dw	0xffff
      0002E6 FF FF                 6492 	.dw	0xffff
      0002E8 01                    6493 	.db	1
      0002E9 00                    6494 	.db	0
      0002EA 01                    6495 	.uleb128	1
      0002EB 7F                    6496 	.sleb128	-1
      0002EC 09                    6497 	.db	9
      0002ED 0C                    6498 	.db	12
      0002EE 08                    6499 	.uleb128	8
      0002EF 02                    6500 	.uleb128	2
      0002F0 89                    6501 	.db	137
      0002F1 01                    6502 	.uleb128	1
      0002F2 00                    6503 	.db	0
      0002F3 00                    6504 	.db	0
      0002F4                       6505 Ldebug_CIE7_end:
      0002F4 00 00 00 14           6506 	.dw	0,20
      0002F8 00 00r02rE0           6507 	.dw	0,(Ldebug_CIE7_start-4)
      0002FC 00 00r05r12           6508 	.dw	0,(Sstm8s_uart1$UART1_SendBreak$439)	;initial loc
      000300 00 00 00 05           6509 	.dw	0,Sstm8s_uart1$UART1_SendBreak$443-Sstm8s_uart1$UART1_SendBreak$439
      000304 01                    6510 	.db	1
      000305 00 00r05r12           6511 	.dw	0,(Sstm8s_uart1$UART1_SendBreak$439)
      000309 0E                    6512 	.db	14
      00030A 02                    6513 	.uleb128	2
      00030B 00                    6514 	.db	0
                                   6515 
                                   6516 	.area .debug_frame (NOLOAD)
      00030C 00 00                 6517 	.dw	0
      00030E 00 10                 6518 	.dw	Ldebug_CIE8_end-Ldebug_CIE8_start
      000310                       6519 Ldebug_CIE8_start:
      000310 FF FF                 6520 	.dw	0xffff
      000312 FF FF                 6521 	.dw	0xffff
      000314 01                    6522 	.db	1
      000315 00                    6523 	.db	0
      000316 01                    6524 	.uleb128	1
      000317 7F                    6525 	.sleb128	-1
      000318 09                    6526 	.db	9
      000319 0C                    6527 	.db	12
      00031A 08                    6528 	.uleb128	8
      00031B 02                    6529 	.uleb128	2
      00031C 89                    6530 	.db	137
      00031D 01                    6531 	.uleb128	1
      00031E 00                    6532 	.db	0
      00031F 00                    6533 	.db	0
      000320                       6534 Ldebug_CIE8_end:
      000320 00 00 00 24           6535 	.dw	0,36
      000324 00 00r03r0C           6536 	.dw	0,(Ldebug_CIE8_start-4)
      000328 00 00r04rF5           6537 	.dw	0,(Sstm8s_uart1$UART1_SendData9$429)	;initial loc
      00032C 00 00 00 1D           6538 	.dw	0,Sstm8s_uart1$UART1_SendData9$437-Sstm8s_uart1$UART1_SendData9$429
      000330 01                    6539 	.db	1
      000331 00 00r04rF5           6540 	.dw	0,(Sstm8s_uart1$UART1_SendData9$429)
      000335 0E                    6541 	.db	14
      000336 02                    6542 	.uleb128	2
      000337 01                    6543 	.db	1
      000338 00 00r04rF6           6544 	.dw	0,(Sstm8s_uart1$UART1_SendData9$430)
      00033C 0E                    6545 	.db	14
      00033D 03                    6546 	.uleb128	3
      00033E 01                    6547 	.db	1
      00033F 00 00r05r11           6548 	.dw	0,(Sstm8s_uart1$UART1_SendData9$435)
      000343 0E                    6549 	.db	14
      000344 02                    6550 	.uleb128	2
      000345 00                    6551 	.db	0
      000346 00                    6552 	.db	0
      000347 00                    6553 	.db	0
                                   6554 
                                   6555 	.area .debug_frame (NOLOAD)
      000348 00 00                 6556 	.dw	0
      00034A 00 10                 6557 	.dw	Ldebug_CIE9_end-Ldebug_CIE9_start
      00034C                       6558 Ldebug_CIE9_start:
      00034C FF FF                 6559 	.dw	0xffff
      00034E FF FF                 6560 	.dw	0xffff
      000350 01                    6561 	.db	1
      000351 00                    6562 	.db	0
      000352 01                    6563 	.uleb128	1
      000353 7F                    6564 	.sleb128	-1
      000354 09                    6565 	.db	9
      000355 0C                    6566 	.db	12
      000356 08                    6567 	.uleb128	8
      000357 02                    6568 	.uleb128	2
      000358 89                    6569 	.db	137
      000359 01                    6570 	.uleb128	1
      00035A 00                    6571 	.db	0
      00035B 00                    6572 	.db	0
      00035C                       6573 Ldebug_CIE9_end:
      00035C 00 00 00 14           6574 	.dw	0,20
      000360 00 00r03r48           6575 	.dw	0,(Ldebug_CIE9_start-4)
      000364 00 00r04rF1           6576 	.dw	0,(Sstm8s_uart1$UART1_SendData8$423)	;initial loc
      000368 00 00 00 04           6577 	.dw	0,Sstm8s_uart1$UART1_SendData8$427-Sstm8s_uart1$UART1_SendData8$423
      00036C 01                    6578 	.db	1
      00036D 00 00r04rF1           6579 	.dw	0,(Sstm8s_uart1$UART1_SendData8$423)
      000371 0E                    6580 	.db	14
      000372 02                    6581 	.uleb128	2
      000373 00                    6582 	.db	0
                                   6583 
                                   6584 	.area .debug_frame (NOLOAD)
      000374 00 00                 6585 	.dw	0
      000376 00 10                 6586 	.dw	Ldebug_CIE10_end-Ldebug_CIE10_start
      000378                       6587 Ldebug_CIE10_start:
      000378 FF FF                 6588 	.dw	0xffff
      00037A FF FF                 6589 	.dw	0xffff
      00037C 01                    6590 	.db	1
      00037D 00                    6591 	.db	0
      00037E 01                    6592 	.uleb128	1
      00037F 7F                    6593 	.sleb128	-1
      000380 09                    6594 	.db	9
      000381 0C                    6595 	.db	12
      000382 08                    6596 	.uleb128	8
      000383 02                    6597 	.uleb128	2
      000384 89                    6598 	.db	137
      000385 01                    6599 	.uleb128	1
      000386 00                    6600 	.db	0
      000387 00                    6601 	.db	0
      000388                       6602 Ldebug_CIE10_end:
      000388 00 00 00 24           6603 	.dw	0,36
      00038C 00 00r03r74           6604 	.dw	0,(Ldebug_CIE10_start-4)
      000390 00 00r04rD6           6605 	.dw	0,(Sstm8s_uart1$UART1_ReceiveData9$414)	;initial loc
      000394 00 00 00 1B           6606 	.dw	0,Sstm8s_uart1$UART1_ReceiveData9$421-Sstm8s_uart1$UART1_ReceiveData9$414
      000398 01                    6607 	.db	1
      000399 00 00r04rD6           6608 	.dw	0,(Sstm8s_uart1$UART1_ReceiveData9$414)
      00039D 0E                    6609 	.db	14
      00039E 02                    6610 	.uleb128	2
      00039F 01                    6611 	.db	1
      0003A0 00 00r04rD7           6612 	.dw	0,(Sstm8s_uart1$UART1_ReceiveData9$415)
      0003A4 0E                    6613 	.db	14
      0003A5 04                    6614 	.uleb128	4
      0003A6 01                    6615 	.db	1
      0003A7 00 00r04rF0           6616 	.dw	0,(Sstm8s_uart1$UART1_ReceiveData9$419)
      0003AB 0E                    6617 	.db	14
      0003AC 02                    6618 	.uleb128	2
      0003AD 00                    6619 	.db	0
      0003AE 00                    6620 	.db	0
      0003AF 00                    6621 	.db	0
                                   6622 
                                   6623 	.area .debug_frame (NOLOAD)
      0003B0 00 00                 6624 	.dw	0
      0003B2 00 10                 6625 	.dw	Ldebug_CIE11_end-Ldebug_CIE11_start
      0003B4                       6626 Ldebug_CIE11_start:
      0003B4 FF FF                 6627 	.dw	0xffff
      0003B6 FF FF                 6628 	.dw	0xffff
      0003B8 01                    6629 	.db	1
      0003B9 00                    6630 	.db	0
      0003BA 01                    6631 	.uleb128	1
      0003BB 7F                    6632 	.sleb128	-1
      0003BC 09                    6633 	.db	9
      0003BD 0C                    6634 	.db	12
      0003BE 08                    6635 	.uleb128	8
      0003BF 02                    6636 	.uleb128	2
      0003C0 89                    6637 	.db	137
      0003C1 01                    6638 	.uleb128	1
      0003C2 00                    6639 	.db	0
      0003C3 00                    6640 	.db	0
      0003C4                       6641 Ldebug_CIE11_end:
      0003C4 00 00 00 14           6642 	.dw	0,20
      0003C8 00 00r03rB0           6643 	.dw	0,(Ldebug_CIE11_start-4)
      0003CC 00 00r04rD2           6644 	.dw	0,(Sstm8s_uart1$UART1_ReceiveData8$408)	;initial loc
      0003D0 00 00 00 04           6645 	.dw	0,Sstm8s_uart1$UART1_ReceiveData8$412-Sstm8s_uart1$UART1_ReceiveData8$408
      0003D4 01                    6646 	.db	1
      0003D5 00 00r04rD2           6647 	.dw	0,(Sstm8s_uart1$UART1_ReceiveData8$408)
      0003D9 0E                    6648 	.db	14
      0003DA 02                    6649 	.uleb128	2
      0003DB 00                    6650 	.db	0
                                   6651 
                                   6652 	.area .debug_frame (NOLOAD)
      0003DC 00 00                 6653 	.dw	0
      0003DE 00 10                 6654 	.dw	Ldebug_CIE12_end-Ldebug_CIE12_start
      0003E0                       6655 Ldebug_CIE12_start:
      0003E0 FF FF                 6656 	.dw	0xffff
      0003E2 FF FF                 6657 	.dw	0xffff
      0003E4 01                    6658 	.db	1
      0003E5 00                    6659 	.db	0
      0003E6 01                    6660 	.uleb128	1
      0003E7 7F                    6661 	.sleb128	-1
      0003E8 09                    6662 	.db	9
      0003E9 0C                    6663 	.db	12
      0003EA 08                    6664 	.uleb128	8
      0003EB 02                    6665 	.uleb128	2
      0003EC 89                    6666 	.db	137
      0003ED 01                    6667 	.uleb128	1
      0003EE 00                    6668 	.db	0
      0003EF 00                    6669 	.db	0
      0003F0                       6670 Ldebug_CIE12_end:
      0003F0 00 00 00 40           6671 	.dw	0,64
      0003F4 00 00r03rDC           6672 	.dw	0,(Ldebug_CIE12_start-4)
      0003F8 00 00r04rA8           6673 	.dw	0,(Sstm8s_uart1$UART1_ReceiverWakeUpCmd$388)	;initial loc
      0003FC 00 00 00 2A           6674 	.dw	0,Sstm8s_uart1$UART1_ReceiverWakeUpCmd$406-Sstm8s_uart1$UART1_ReceiverWakeUpCmd$388
      000400 01                    6675 	.db	1
      000401 00 00r04rA8           6676 	.dw	0,(Sstm8s_uart1$UART1_ReceiverWakeUpCmd$388)
      000405 0E                    6677 	.db	14
      000406 02                    6678 	.uleb128	2
      000407 01                    6679 	.db	1
      000408 00 00r04rA9           6680 	.dw	0,(Sstm8s_uart1$UART1_ReceiverWakeUpCmd$389)
      00040C 0E                    6681 	.db	14
      00040D 03                    6682 	.uleb128	3
      00040E 01                    6683 	.db	1
      00040F 00 00r04rB3           6684 	.dw	0,(Sstm8s_uart1$UART1_ReceiverWakeUpCmd$391)
      000413 0E                    6685 	.db	14
      000414 04                    6686 	.uleb128	4
      000415 01                    6687 	.db	1
      000416 00 00r04rB5           6688 	.dw	0,(Sstm8s_uart1$UART1_ReceiverWakeUpCmd$392)
      00041A 0E                    6689 	.db	14
      00041B 05                    6690 	.uleb128	5
      00041C 01                    6691 	.db	1
      00041D 00 00r04rB7           6692 	.dw	0,(Sstm8s_uart1$UART1_ReceiverWakeUpCmd$393)
      000421 0E                    6693 	.db	14
      000422 07                    6694 	.uleb128	7
      000423 01                    6695 	.db	1
      000424 00 00r04rBD           6696 	.dw	0,(Sstm8s_uart1$UART1_ReceiverWakeUpCmd$394)
      000428 0E                    6697 	.db	14
      000429 03                    6698 	.uleb128	3
      00042A 01                    6699 	.db	1
      00042B 00 00r04rD1           6700 	.dw	0,(Sstm8s_uart1$UART1_ReceiverWakeUpCmd$404)
      00042F 0E                    6701 	.db	14
      000430 02                    6702 	.uleb128	2
      000431 00                    6703 	.db	0
      000432 00                    6704 	.db	0
      000433 00                    6705 	.db	0
                                   6706 
                                   6707 	.area .debug_frame (NOLOAD)
      000434 00 00                 6708 	.dw	0
      000436 00 10                 6709 	.dw	Ldebug_CIE13_end-Ldebug_CIE13_start
      000438                       6710 Ldebug_CIE13_start:
      000438 FF FF                 6711 	.dw	0xffff
      00043A FF FF                 6712 	.dw	0xffff
      00043C 01                    6713 	.db	1
      00043D 00                    6714 	.db	0
      00043E 01                    6715 	.uleb128	1
      00043F 7F                    6716 	.sleb128	-1
      000440 09                    6717 	.db	9
      000441 0C                    6718 	.db	12
      000442 08                    6719 	.uleb128	8
      000443 02                    6720 	.uleb128	2
      000444 89                    6721 	.db	137
      000445 01                    6722 	.uleb128	1
      000446 00                    6723 	.db	0
      000447 00                    6724 	.db	0
      000448                       6725 Ldebug_CIE13_end:
      000448 00 00 00 44           6726 	.dw	0,68
      00044C 00 00r04r34           6727 	.dw	0,(Ldebug_CIE13_start-4)
      000450 00 00r04r83           6728 	.dw	0,(Sstm8s_uart1$UART1_WakeUpConfig$373)	;initial loc
      000454 00 00 00 25           6729 	.dw	0,Sstm8s_uart1$UART1_WakeUpConfig$386-Sstm8s_uart1$UART1_WakeUpConfig$373
      000458 01                    6730 	.db	1
      000459 00 00r04r83           6731 	.dw	0,(Sstm8s_uart1$UART1_WakeUpConfig$373)
      00045D 0E                    6732 	.db	14
      00045E 02                    6733 	.uleb128	2
      00045F 01                    6734 	.db	1
      000460 00 00r04r84           6735 	.dw	0,(Sstm8s_uart1$UART1_WakeUpConfig$374)
      000464 0E                    6736 	.db	14
      000465 03                    6737 	.uleb128	3
      000466 01                    6738 	.db	1
      000467 00 00r04r8E           6739 	.dw	0,(Sstm8s_uart1$UART1_WakeUpConfig$376)
      00046B 0E                    6740 	.db	14
      00046C 03                    6741 	.uleb128	3
      00046D 01                    6742 	.db	1
      00046E 00 00r04r90           6743 	.dw	0,(Sstm8s_uart1$UART1_WakeUpConfig$377)
      000472 0E                    6744 	.db	14
      000473 04                    6745 	.uleb128	4
      000474 01                    6746 	.db	1
      000475 00 00r04r92           6747 	.dw	0,(Sstm8s_uart1$UART1_WakeUpConfig$378)
      000479 0E                    6748 	.db	14
      00047A 05                    6749 	.uleb128	5
      00047B 01                    6750 	.db	1
      00047C 00 00r04r94           6751 	.dw	0,(Sstm8s_uart1$UART1_WakeUpConfig$379)
      000480 0E                    6752 	.db	14
      000481 07                    6753 	.uleb128	7
      000482 01                    6754 	.db	1
      000483 00 00r04r9A           6755 	.dw	0,(Sstm8s_uart1$UART1_WakeUpConfig$380)
      000487 0E                    6756 	.db	14
      000488 03                    6757 	.uleb128	3
      000489 01                    6758 	.db	1
      00048A 00 00r04rA7           6759 	.dw	0,(Sstm8s_uart1$UART1_WakeUpConfig$384)
      00048E 0E                    6760 	.db	14
      00048F 02                    6761 	.uleb128	2
                                   6762 
                                   6763 	.area .debug_frame (NOLOAD)
      000490 00 00                 6764 	.dw	0
      000492 00 10                 6765 	.dw	Ldebug_CIE14_end-Ldebug_CIE14_start
      000494                       6766 Ldebug_CIE14_start:
      000494 FF FF                 6767 	.dw	0xffff
      000496 FF FF                 6768 	.dw	0xffff
      000498 01                    6769 	.db	1
      000499 00                    6770 	.db	0
      00049A 01                    6771 	.uleb128	1
      00049B 7F                    6772 	.sleb128	-1
      00049C 09                    6773 	.db	9
      00049D 0C                    6774 	.db	12
      00049E 08                    6775 	.uleb128	8
      00049F 02                    6776 	.uleb128	2
      0004A0 89                    6777 	.db	137
      0004A1 01                    6778 	.uleb128	1
      0004A2 00                    6779 	.db	0
      0004A3 00                    6780 	.db	0
      0004A4                       6781 Ldebug_CIE14_end:
      0004A4 00 00 00 40           6782 	.dw	0,64
      0004A8 00 00r04r90           6783 	.dw	0,(Ldebug_CIE14_start-4)
      0004AC 00 00r04r59           6784 	.dw	0,(Sstm8s_uart1$UART1_SmartCardNACKCmd$353)	;initial loc
      0004B0 00 00 00 2A           6785 	.dw	0,Sstm8s_uart1$UART1_SmartCardNACKCmd$371-Sstm8s_uart1$UART1_SmartCardNACKCmd$353
      0004B4 01                    6786 	.db	1
      0004B5 00 00r04r59           6787 	.dw	0,(Sstm8s_uart1$UART1_SmartCardNACKCmd$353)
      0004B9 0E                    6788 	.db	14
      0004BA 02                    6789 	.uleb128	2
      0004BB 01                    6790 	.db	1
      0004BC 00 00r04r5A           6791 	.dw	0,(Sstm8s_uart1$UART1_SmartCardNACKCmd$354)
      0004C0 0E                    6792 	.db	14
      0004C1 03                    6793 	.uleb128	3
      0004C2 01                    6794 	.db	1
      0004C3 00 00r04r64           6795 	.dw	0,(Sstm8s_uart1$UART1_SmartCardNACKCmd$356)
      0004C7 0E                    6796 	.db	14
      0004C8 04                    6797 	.uleb128	4
      0004C9 01                    6798 	.db	1
      0004CA 00 00r04r66           6799 	.dw	0,(Sstm8s_uart1$UART1_SmartCardNACKCmd$357)
      0004CE 0E                    6800 	.db	14
      0004CF 05                    6801 	.uleb128	5
      0004D0 01                    6802 	.db	1
      0004D1 00 00r04r68           6803 	.dw	0,(Sstm8s_uart1$UART1_SmartCardNACKCmd$358)
      0004D5 0E                    6804 	.db	14
      0004D6 07                    6805 	.uleb128	7
      0004D7 01                    6806 	.db	1
      0004D8 00 00r04r6E           6807 	.dw	0,(Sstm8s_uart1$UART1_SmartCardNACKCmd$359)
      0004DC 0E                    6808 	.db	14
      0004DD 03                    6809 	.uleb128	3
      0004DE 01                    6810 	.db	1
      0004DF 00 00r04r82           6811 	.dw	0,(Sstm8s_uart1$UART1_SmartCardNACKCmd$369)
      0004E3 0E                    6812 	.db	14
      0004E4 02                    6813 	.uleb128	2
      0004E5 00                    6814 	.db	0
      0004E6 00                    6815 	.db	0
      0004E7 00                    6816 	.db	0
                                   6817 
                                   6818 	.area .debug_frame (NOLOAD)
      0004E8 00 00                 6819 	.dw	0
      0004EA 00 10                 6820 	.dw	Ldebug_CIE15_end-Ldebug_CIE15_start
      0004EC                       6821 Ldebug_CIE15_start:
      0004EC FF FF                 6822 	.dw	0xffff
      0004EE FF FF                 6823 	.dw	0xffff
      0004F0 01                    6824 	.db	1
      0004F1 00                    6825 	.db	0
      0004F2 01                    6826 	.uleb128	1
      0004F3 7F                    6827 	.sleb128	-1
      0004F4 09                    6828 	.db	9
      0004F5 0C                    6829 	.db	12
      0004F6 08                    6830 	.uleb128	8
      0004F7 02                    6831 	.uleb128	2
      0004F8 89                    6832 	.db	137
      0004F9 01                    6833 	.uleb128	1
      0004FA 00                    6834 	.db	0
      0004FB 00                    6835 	.db	0
      0004FC                       6836 Ldebug_CIE15_end:
      0004FC 00 00 00 40           6837 	.dw	0,64
      000500 00 00r04rE8           6838 	.dw	0,(Ldebug_CIE15_start-4)
      000504 00 00r04r2F           6839 	.dw	0,(Sstm8s_uart1$UART1_SmartCardCmd$333)	;initial loc
      000508 00 00 00 2A           6840 	.dw	0,Sstm8s_uart1$UART1_SmartCardCmd$351-Sstm8s_uart1$UART1_SmartCardCmd$333
      00050C 01                    6841 	.db	1
      00050D 00 00r04r2F           6842 	.dw	0,(Sstm8s_uart1$UART1_SmartCardCmd$333)
      000511 0E                    6843 	.db	14
      000512 02                    6844 	.uleb128	2
      000513 01                    6845 	.db	1
      000514 00 00r04r30           6846 	.dw	0,(Sstm8s_uart1$UART1_SmartCardCmd$334)
      000518 0E                    6847 	.db	14
      000519 03                    6848 	.uleb128	3
      00051A 01                    6849 	.db	1
      00051B 00 00r04r3A           6850 	.dw	0,(Sstm8s_uart1$UART1_SmartCardCmd$336)
      00051F 0E                    6851 	.db	14
      000520 04                    6852 	.uleb128	4
      000521 01                    6853 	.db	1
      000522 00 00r04r3C           6854 	.dw	0,(Sstm8s_uart1$UART1_SmartCardCmd$337)
      000526 0E                    6855 	.db	14
      000527 05                    6856 	.uleb128	5
      000528 01                    6857 	.db	1
      000529 00 00r04r3E           6858 	.dw	0,(Sstm8s_uart1$UART1_SmartCardCmd$338)
      00052D 0E                    6859 	.db	14
      00052E 07                    6860 	.uleb128	7
      00052F 01                    6861 	.db	1
      000530 00 00r04r44           6862 	.dw	0,(Sstm8s_uart1$UART1_SmartCardCmd$339)
      000534 0E                    6863 	.db	14
      000535 03                    6864 	.uleb128	3
      000536 01                    6865 	.db	1
      000537 00 00r04r58           6866 	.dw	0,(Sstm8s_uart1$UART1_SmartCardCmd$349)
      00053B 0E                    6867 	.db	14
      00053C 02                    6868 	.uleb128	2
      00053D 00                    6869 	.db	0
      00053E 00                    6870 	.db	0
      00053F 00                    6871 	.db	0
                                   6872 
                                   6873 	.area .debug_frame (NOLOAD)
      000540 00 00                 6874 	.dw	0
      000542 00 10                 6875 	.dw	Ldebug_CIE16_end-Ldebug_CIE16_start
      000544                       6876 Ldebug_CIE16_start:
      000544 FF FF                 6877 	.dw	0xffff
      000546 FF FF                 6878 	.dw	0xffff
      000548 01                    6879 	.db	1
      000549 00                    6880 	.db	0
      00054A 01                    6881 	.uleb128	1
      00054B 7F                    6882 	.sleb128	-1
      00054C 09                    6883 	.db	9
      00054D 0C                    6884 	.db	12
      00054E 08                    6885 	.uleb128	8
      00054F 02                    6886 	.uleb128	2
      000550 89                    6887 	.db	137
      000551 01                    6888 	.uleb128	1
      000552 00                    6889 	.db	0
      000553 00                    6890 	.db	0
      000554                       6891 Ldebug_CIE16_end:
      000554 00 00 00 40           6892 	.dw	0,64
      000558 00 00r05r40           6893 	.dw	0,(Ldebug_CIE16_start-4)
      00055C 00 00r04r05           6894 	.dw	0,(Sstm8s_uart1$UART1_LINCmd$313)	;initial loc
      000560 00 00 00 2A           6895 	.dw	0,Sstm8s_uart1$UART1_LINCmd$331-Sstm8s_uart1$UART1_LINCmd$313
      000564 01                    6896 	.db	1
      000565 00 00r04r05           6897 	.dw	0,(Sstm8s_uart1$UART1_LINCmd$313)
      000569 0E                    6898 	.db	14
      00056A 02                    6899 	.uleb128	2
      00056B 01                    6900 	.db	1
      00056C 00 00r04r06           6901 	.dw	0,(Sstm8s_uart1$UART1_LINCmd$314)
      000570 0E                    6902 	.db	14
      000571 03                    6903 	.uleb128	3
      000572 01                    6904 	.db	1
      000573 00 00r04r10           6905 	.dw	0,(Sstm8s_uart1$UART1_LINCmd$316)
      000577 0E                    6906 	.db	14
      000578 04                    6907 	.uleb128	4
      000579 01                    6908 	.db	1
      00057A 00 00r04r12           6909 	.dw	0,(Sstm8s_uart1$UART1_LINCmd$317)
      00057E 0E                    6910 	.db	14
      00057F 05                    6911 	.uleb128	5
      000580 01                    6912 	.db	1
      000581 00 00r04r14           6913 	.dw	0,(Sstm8s_uart1$UART1_LINCmd$318)
      000585 0E                    6914 	.db	14
      000586 07                    6915 	.uleb128	7
      000587 01                    6916 	.db	1
      000588 00 00r04r1A           6917 	.dw	0,(Sstm8s_uart1$UART1_LINCmd$319)
      00058C 0E                    6918 	.db	14
      00058D 03                    6919 	.uleb128	3
      00058E 01                    6920 	.db	1
      00058F 00 00r04r2E           6921 	.dw	0,(Sstm8s_uart1$UART1_LINCmd$329)
      000593 0E                    6922 	.db	14
      000594 02                    6923 	.uleb128	2
      000595 00                    6924 	.db	0
      000596 00                    6925 	.db	0
      000597 00                    6926 	.db	0
                                   6927 
                                   6928 	.area .debug_frame (NOLOAD)
      000598 00 00                 6929 	.dw	0
      00059A 00 10                 6930 	.dw	Ldebug_CIE17_end-Ldebug_CIE17_start
      00059C                       6931 Ldebug_CIE17_start:
      00059C FF FF                 6932 	.dw	0xffff
      00059E FF FF                 6933 	.dw	0xffff
      0005A0 01                    6934 	.db	1
      0005A1 00                    6935 	.db	0
      0005A2 01                    6936 	.uleb128	1
      0005A3 7F                    6937 	.sleb128	-1
      0005A4 09                    6938 	.db	9
      0005A5 0C                    6939 	.db	12
      0005A6 08                    6940 	.uleb128	8
      0005A7 02                    6941 	.uleb128	2
      0005A8 89                    6942 	.db	137
      0005A9 01                    6943 	.uleb128	1
      0005AA 00                    6944 	.db	0
      0005AB 00                    6945 	.db	0
      0005AC                       6946 Ldebug_CIE17_end:
      0005AC 00 00 00 40           6947 	.dw	0,64
      0005B0 00 00r05r98           6948 	.dw	0,(Ldebug_CIE17_start-4)
      0005B4 00 00r03rDB           6949 	.dw	0,(Sstm8s_uart1$UART1_LINBreakDetectionConfig$293)	;initial loc
      0005B8 00 00 00 2A           6950 	.dw	0,Sstm8s_uart1$UART1_LINBreakDetectionConfig$311-Sstm8s_uart1$UART1_LINBreakDetectionConfig$293
      0005BC 01                    6951 	.db	1
      0005BD 00 00r03rDB           6952 	.dw	0,(Sstm8s_uart1$UART1_LINBreakDetectionConfig$293)
      0005C1 0E                    6953 	.db	14
      0005C2 02                    6954 	.uleb128	2
      0005C3 01                    6955 	.db	1
      0005C4 00 00r03rDC           6956 	.dw	0,(Sstm8s_uart1$UART1_LINBreakDetectionConfig$294)
      0005C8 0E                    6957 	.db	14
      0005C9 03                    6958 	.uleb128	3
      0005CA 01                    6959 	.db	1
      0005CB 00 00r03rE6           6960 	.dw	0,(Sstm8s_uart1$UART1_LINBreakDetectionConfig$296)
      0005CF 0E                    6961 	.db	14
      0005D0 04                    6962 	.uleb128	4
      0005D1 01                    6963 	.db	1
      0005D2 00 00r03rE8           6964 	.dw	0,(Sstm8s_uart1$UART1_LINBreakDetectionConfig$297)
      0005D6 0E                    6965 	.db	14
      0005D7 05                    6966 	.uleb128	5
      0005D8 01                    6967 	.db	1
      0005D9 00 00r03rEA           6968 	.dw	0,(Sstm8s_uart1$UART1_LINBreakDetectionConfig$298)
      0005DD 0E                    6969 	.db	14
      0005DE 07                    6970 	.uleb128	7
      0005DF 01                    6971 	.db	1
      0005E0 00 00r03rF0           6972 	.dw	0,(Sstm8s_uart1$UART1_LINBreakDetectionConfig$299)
      0005E4 0E                    6973 	.db	14
      0005E5 03                    6974 	.uleb128	3
      0005E6 01                    6975 	.db	1
      0005E7 00 00r04r04           6976 	.dw	0,(Sstm8s_uart1$UART1_LINBreakDetectionConfig$309)
      0005EB 0E                    6977 	.db	14
      0005EC 02                    6978 	.uleb128	2
      0005ED 00                    6979 	.db	0
      0005EE 00                    6980 	.db	0
      0005EF 00                    6981 	.db	0
                                   6982 
                                   6983 	.area .debug_frame (NOLOAD)
      0005F0 00 00                 6984 	.dw	0
      0005F2 00 10                 6985 	.dw	Ldebug_CIE18_end-Ldebug_CIE18_start
      0005F4                       6986 Ldebug_CIE18_start:
      0005F4 FF FF                 6987 	.dw	0xffff
      0005F6 FF FF                 6988 	.dw	0xffff
      0005F8 01                    6989 	.db	1
      0005F9 00                    6990 	.db	0
      0005FA 01                    6991 	.uleb128	1
      0005FB 7F                    6992 	.sleb128	-1
      0005FC 09                    6993 	.db	9
      0005FD 0C                    6994 	.db	12
      0005FE 08                    6995 	.uleb128	8
      0005FF 02                    6996 	.uleb128	2
      000600 89                    6997 	.db	137
      000601 01                    6998 	.uleb128	1
      000602 00                    6999 	.db	0
      000603 00                    7000 	.db	0
      000604                       7001 Ldebug_CIE18_end:
      000604 00 00 00 40           7002 	.dw	0,64
      000608 00 00r05rF0           7003 	.dw	0,(Ldebug_CIE18_start-4)
      00060C 00 00r03rB1           7004 	.dw	0,(Sstm8s_uart1$UART1_IrDACmd$273)	;initial loc
      000610 00 00 00 2A           7005 	.dw	0,Sstm8s_uart1$UART1_IrDACmd$291-Sstm8s_uart1$UART1_IrDACmd$273
      000614 01                    7006 	.db	1
      000615 00 00r03rB1           7007 	.dw	0,(Sstm8s_uart1$UART1_IrDACmd$273)
      000619 0E                    7008 	.db	14
      00061A 02                    7009 	.uleb128	2
      00061B 01                    7010 	.db	1
      00061C 00 00r03rB2           7011 	.dw	0,(Sstm8s_uart1$UART1_IrDACmd$274)
      000620 0E                    7012 	.db	14
      000621 03                    7013 	.uleb128	3
      000622 01                    7014 	.db	1
      000623 00 00r03rBC           7015 	.dw	0,(Sstm8s_uart1$UART1_IrDACmd$276)
      000627 0E                    7016 	.db	14
      000628 04                    7017 	.uleb128	4
      000629 01                    7018 	.db	1
      00062A 00 00r03rBE           7019 	.dw	0,(Sstm8s_uart1$UART1_IrDACmd$277)
      00062E 0E                    7020 	.db	14
      00062F 05                    7021 	.uleb128	5
      000630 01                    7022 	.db	1
      000631 00 00r03rC0           7023 	.dw	0,(Sstm8s_uart1$UART1_IrDACmd$278)
      000635 0E                    7024 	.db	14
      000636 07                    7025 	.uleb128	7
      000637 01                    7026 	.db	1
      000638 00 00r03rC6           7027 	.dw	0,(Sstm8s_uart1$UART1_IrDACmd$279)
      00063C 0E                    7028 	.db	14
      00063D 03                    7029 	.uleb128	3
      00063E 01                    7030 	.db	1
      00063F 00 00r03rDA           7031 	.dw	0,(Sstm8s_uart1$UART1_IrDACmd$289)
      000643 0E                    7032 	.db	14
      000644 02                    7033 	.uleb128	2
      000645 00                    7034 	.db	0
      000646 00                    7035 	.db	0
      000647 00                    7036 	.db	0
                                   7037 
                                   7038 	.area .debug_frame (NOLOAD)
      000648 00 00                 7039 	.dw	0
      00064A 00 10                 7040 	.dw	Ldebug_CIE19_end-Ldebug_CIE19_start
      00064C                       7041 Ldebug_CIE19_start:
      00064C FF FF                 7042 	.dw	0xffff
      00064E FF FF                 7043 	.dw	0xffff
      000650 01                    7044 	.db	1
      000651 00                    7045 	.db	0
      000652 01                    7046 	.uleb128	1
      000653 7F                    7047 	.sleb128	-1
      000654 09                    7048 	.db	9
      000655 0C                    7049 	.db	12
      000656 08                    7050 	.uleb128	8
      000657 02                    7051 	.uleb128	2
      000658 89                    7052 	.db	137
      000659 01                    7053 	.uleb128	1
      00065A 00                    7054 	.db	0
      00065B 00                    7055 	.db	0
      00065C                       7056 Ldebug_CIE19_end:
      00065C 00 00 00 40           7057 	.dw	0,64
      000660 00 00r06r48           7058 	.dw	0,(Ldebug_CIE19_start-4)
      000664 00 00r03r87           7059 	.dw	0,(Sstm8s_uart1$UART1_IrDAConfig$253)	;initial loc
      000668 00 00 00 2A           7060 	.dw	0,Sstm8s_uart1$UART1_IrDAConfig$271-Sstm8s_uart1$UART1_IrDAConfig$253
      00066C 01                    7061 	.db	1
      00066D 00 00r03r87           7062 	.dw	0,(Sstm8s_uart1$UART1_IrDAConfig$253)
      000671 0E                    7063 	.db	14
      000672 02                    7064 	.uleb128	2
      000673 01                    7065 	.db	1
      000674 00 00r03r88           7066 	.dw	0,(Sstm8s_uart1$UART1_IrDAConfig$254)
      000678 0E                    7067 	.db	14
      000679 03                    7068 	.uleb128	3
      00067A 01                    7069 	.db	1
      00067B 00 00r03r92           7070 	.dw	0,(Sstm8s_uart1$UART1_IrDAConfig$256)
      00067F 0E                    7071 	.db	14
      000680 04                    7072 	.uleb128	4
      000681 01                    7073 	.db	1
      000682 00 00r03r94           7074 	.dw	0,(Sstm8s_uart1$UART1_IrDAConfig$257)
      000686 0E                    7075 	.db	14
      000687 05                    7076 	.uleb128	5
      000688 01                    7077 	.db	1
      000689 00 00r03r96           7078 	.dw	0,(Sstm8s_uart1$UART1_IrDAConfig$258)
      00068D 0E                    7079 	.db	14
      00068E 07                    7080 	.uleb128	7
      00068F 01                    7081 	.db	1
      000690 00 00r03r9C           7082 	.dw	0,(Sstm8s_uart1$UART1_IrDAConfig$259)
      000694 0E                    7083 	.db	14
      000695 03                    7084 	.uleb128	3
      000696 01                    7085 	.db	1
      000697 00 00r03rB0           7086 	.dw	0,(Sstm8s_uart1$UART1_IrDAConfig$269)
      00069B 0E                    7087 	.db	14
      00069C 02                    7088 	.uleb128	2
      00069D 00                    7089 	.db	0
      00069E 00                    7090 	.db	0
      00069F 00                    7091 	.db	0
                                   7092 
                                   7093 	.area .debug_frame (NOLOAD)
      0006A0 00 00                 7094 	.dw	0
      0006A2 00 10                 7095 	.dw	Ldebug_CIE20_end-Ldebug_CIE20_start
      0006A4                       7096 Ldebug_CIE20_start:
      0006A4 FF FF                 7097 	.dw	0xffff
      0006A6 FF FF                 7098 	.dw	0xffff
      0006A8 01                    7099 	.db	1
      0006A9 00                    7100 	.db	0
      0006AA 01                    7101 	.uleb128	1
      0006AB 7F                    7102 	.sleb128	-1
      0006AC 09                    7103 	.db	9
      0006AD 0C                    7104 	.db	12
      0006AE 08                    7105 	.uleb128	8
      0006AF 02                    7106 	.uleb128	2
      0006B0 89                    7107 	.db	137
      0006B1 01                    7108 	.uleb128	1
      0006B2 00                    7109 	.db	0
      0006B3 00                    7110 	.db	0
      0006B4                       7111 Ldebug_CIE20_end:
      0006B4 00 00 00 40           7112 	.dw	0,64
      0006B8 00 00r06rA0           7113 	.dw	0,(Ldebug_CIE20_start-4)
      0006BC 00 00r03r5D           7114 	.dw	0,(Sstm8s_uart1$UART1_HalfDuplexCmd$233)	;initial loc
      0006C0 00 00 00 2A           7115 	.dw	0,Sstm8s_uart1$UART1_HalfDuplexCmd$251-Sstm8s_uart1$UART1_HalfDuplexCmd$233
      0006C4 01                    7116 	.db	1
      0006C5 00 00r03r5D           7117 	.dw	0,(Sstm8s_uart1$UART1_HalfDuplexCmd$233)
      0006C9 0E                    7118 	.db	14
      0006CA 02                    7119 	.uleb128	2
      0006CB 01                    7120 	.db	1
      0006CC 00 00r03r5E           7121 	.dw	0,(Sstm8s_uart1$UART1_HalfDuplexCmd$234)
      0006D0 0E                    7122 	.db	14
      0006D1 03                    7123 	.uleb128	3
      0006D2 01                    7124 	.db	1
      0006D3 00 00r03r68           7125 	.dw	0,(Sstm8s_uart1$UART1_HalfDuplexCmd$236)
      0006D7 0E                    7126 	.db	14
      0006D8 04                    7127 	.uleb128	4
      0006D9 01                    7128 	.db	1
      0006DA 00 00r03r6A           7129 	.dw	0,(Sstm8s_uart1$UART1_HalfDuplexCmd$237)
      0006DE 0E                    7130 	.db	14
      0006DF 05                    7131 	.uleb128	5
      0006E0 01                    7132 	.db	1
      0006E1 00 00r03r6C           7133 	.dw	0,(Sstm8s_uart1$UART1_HalfDuplexCmd$238)
      0006E5 0E                    7134 	.db	14
      0006E6 07                    7135 	.uleb128	7
      0006E7 01                    7136 	.db	1
      0006E8 00 00r03r72           7137 	.dw	0,(Sstm8s_uart1$UART1_HalfDuplexCmd$239)
      0006EC 0E                    7138 	.db	14
      0006ED 03                    7139 	.uleb128	3
      0006EE 01                    7140 	.db	1
      0006EF 00 00r03r86           7141 	.dw	0,(Sstm8s_uart1$UART1_HalfDuplexCmd$249)
      0006F3 0E                    7142 	.db	14
      0006F4 02                    7143 	.uleb128	2
      0006F5 00                    7144 	.db	0
      0006F6 00                    7145 	.db	0
      0006F7 00                    7146 	.db	0
                                   7147 
                                   7148 	.area .debug_frame (NOLOAD)
      0006F8 00 00                 7149 	.dw	0
      0006FA 00 10                 7150 	.dw	Ldebug_CIE21_end-Ldebug_CIE21_start
      0006FC                       7151 Ldebug_CIE21_start:
      0006FC FF FF                 7152 	.dw	0xffff
      0006FE FF FF                 7153 	.dw	0xffff
      000700 01                    7154 	.db	1
      000701 00                    7155 	.db	0
      000702 01                    7156 	.uleb128	1
      000703 7F                    7157 	.sleb128	-1
      000704 09                    7158 	.db	9
      000705 0C                    7159 	.db	12
      000706 08                    7160 	.uleb128	8
      000707 02                    7161 	.uleb128	2
      000708 89                    7162 	.db	137
      000709 01                    7163 	.uleb128	1
      00070A 00                    7164 	.db	0
      00070B 00                    7165 	.db	0
      00070C                       7166 Ldebug_CIE21_end:
      00070C 00 00 00 E8           7167 	.dw	0,232
      000710 00 00r06rF8           7168 	.dw	0,(Ldebug_CIE21_start-4)
      000714 00 00r02r8D           7169 	.dw	0,(Sstm8s_uart1$UART1_ITConfig$166)	;initial loc
      000718 00 00 00 D0           7170 	.dw	0,Sstm8s_uart1$UART1_ITConfig$231-Sstm8s_uart1$UART1_ITConfig$166
      00071C 01                    7171 	.db	1
      00071D 00 00r02r8D           7172 	.dw	0,(Sstm8s_uart1$UART1_ITConfig$166)
      000721 0E                    7173 	.db	14
      000722 02                    7174 	.uleb128	2
      000723 01                    7175 	.db	1
      000724 00 00r02r8F           7176 	.dw	0,(Sstm8s_uart1$UART1_ITConfig$167)
      000728 0E                    7177 	.db	14
      000729 07                    7178 	.uleb128	7
      00072A 01                    7179 	.db	1
      00072B 00 00r02r9A           7180 	.dw	0,(Sstm8s_uart1$UART1_ITConfig$169)
      00072F 0E                    7181 	.db	14
      000730 07                    7182 	.uleb128	7
      000731 01                    7183 	.db	1
      000732 00 00r02r9F           7184 	.dw	0,(Sstm8s_uart1$UART1_ITConfig$170)
      000736 0E                    7185 	.db	14
      000737 07                    7186 	.uleb128	7
      000738 01                    7187 	.db	1
      000739 00 00r02rA4           7188 	.dw	0,(Sstm8s_uart1$UART1_ITConfig$171)
      00073D 0E                    7189 	.db	14
      00073E 07                    7190 	.uleb128	7
      00073F 01                    7191 	.db	1
      000740 00 00r02rA9           7192 	.dw	0,(Sstm8s_uart1$UART1_ITConfig$172)
      000744 0E                    7193 	.db	14
      000745 07                    7194 	.uleb128	7
      000746 01                    7195 	.db	1
      000747 00 00r02rAE           7196 	.dw	0,(Sstm8s_uart1$UART1_ITConfig$173)
      00074B 0E                    7197 	.db	14
      00074C 07                    7198 	.uleb128	7
      00074D 01                    7199 	.db	1
      00074E 00 00r02rB3           7200 	.dw	0,(Sstm8s_uart1$UART1_ITConfig$174)
      000752 0E                    7201 	.db	14
      000753 07                    7202 	.uleb128	7
      000754 01                    7203 	.db	1
      000755 00 00r02rB4           7204 	.dw	0,(Sstm8s_uart1$UART1_ITConfig$175)
      000759 0E                    7205 	.db	14
      00075A 09                    7206 	.uleb128	9
      00075B 01                    7207 	.db	1
      00075C 00 00r02rB6           7208 	.dw	0,(Sstm8s_uart1$UART1_ITConfig$176)
      000760 0E                    7209 	.db	14
      000761 0A                    7210 	.uleb128	10
      000762 01                    7211 	.db	1
      000763 00 00r02rB8           7212 	.dw	0,(Sstm8s_uart1$UART1_ITConfig$177)
      000767 0E                    7213 	.db	14
      000768 0B                    7214 	.uleb128	11
      000769 01                    7215 	.db	1
      00076A 00 00r02rBA           7216 	.dw	0,(Sstm8s_uart1$UART1_ITConfig$178)
      00076E 0E                    7217 	.db	14
      00076F 0C                    7218 	.uleb128	12
      000770 01                    7219 	.db	1
      000771 00 00r02rBC           7220 	.dw	0,(Sstm8s_uart1$UART1_ITConfig$179)
      000775 0E                    7221 	.db	14
      000776 0D                    7222 	.uleb128	13
      000777 01                    7223 	.db	1
      000778 00 00r02rC2           7224 	.dw	0,(Sstm8s_uart1$UART1_ITConfig$180)
      00077C 0E                    7225 	.db	14
      00077D 09                    7226 	.uleb128	9
      00077E 01                    7227 	.db	1
      00077F 00 00r02rC3           7228 	.dw	0,(Sstm8s_uart1$UART1_ITConfig$181)
      000783 0E                    7229 	.db	14
      000784 07                    7230 	.uleb128	7
      000785 01                    7231 	.db	1
      000786 00 00r02rCC           7232 	.dw	0,(Sstm8s_uart1$UART1_ITConfig$183)
      00078A 0E                    7233 	.db	14
      00078B 09                    7234 	.uleb128	9
      00078C 01                    7235 	.db	1
      00078D 00 00r02rCE           7236 	.dw	0,(Sstm8s_uart1$UART1_ITConfig$184)
      000791 0E                    7237 	.db	14
      000792 0A                    7238 	.uleb128	10
      000793 01                    7239 	.db	1
      000794 00 00r02rD0           7240 	.dw	0,(Sstm8s_uart1$UART1_ITConfig$185)
      000798 0E                    7241 	.db	14
      000799 0B                    7242 	.uleb128	11
      00079A 01                    7243 	.db	1
      00079B 00 00r02rD2           7244 	.dw	0,(Sstm8s_uart1$UART1_ITConfig$186)
      00079F 0E                    7245 	.db	14
      0007A0 0C                    7246 	.uleb128	12
      0007A1 01                    7247 	.db	1
      0007A2 00 00r02rD4           7248 	.dw	0,(Sstm8s_uart1$UART1_ITConfig$187)
      0007A6 0E                    7249 	.db	14
      0007A7 0D                    7250 	.uleb128	13
      0007A8 01                    7251 	.db	1
      0007A9 00 00r02rDA           7252 	.dw	0,(Sstm8s_uart1$UART1_ITConfig$188)
      0007AD 0E                    7253 	.db	14
      0007AE 09                    7254 	.uleb128	9
      0007AF 01                    7255 	.db	1
      0007B0 00 00r02rDB           7256 	.dw	0,(Sstm8s_uart1$UART1_ITConfig$189)
      0007B4 0E                    7257 	.db	14
      0007B5 07                    7258 	.uleb128	7
      0007B6 01                    7259 	.db	1
      0007B7 00 00r02rF7           7260 	.dw	0,(Sstm8s_uart1$UART1_ITConfig$193)
      0007BB 0E                    7261 	.db	14
      0007BC 07                    7262 	.uleb128	7
      0007BD 01                    7263 	.db	1
      0007BE 00 00r03r02           7264 	.dw	0,(Sstm8s_uart1$UART1_ITConfig$195)
      0007C2 0E                    7265 	.db	14
      0007C3 07                    7266 	.uleb128	7
      0007C4 01                    7267 	.db	1
      0007C5 00 00r03r0E           7268 	.dw	0,(Sstm8s_uart1$UART1_ITConfig$201)
      0007C9 0E                    7269 	.db	14
      0007CA 09                    7270 	.uleb128	9
      0007CB 01                    7271 	.db	1
      0007CC 00 00r03r11           7272 	.dw	0,(Sstm8s_uart1$UART1_ITConfig$202)
      0007D0 0E                    7273 	.db	14
      0007D1 07                    7274 	.uleb128	7
      0007D2 01                    7275 	.db	1
      0007D3 00 00r03r1E           7276 	.dw	0,(Sstm8s_uart1$UART1_ITConfig$207)
      0007D7 0E                    7277 	.db	14
      0007D8 09                    7278 	.uleb128	9
      0007D9 01                    7279 	.db	1
      0007DA 00 00r03r21           7280 	.dw	0,(Sstm8s_uart1$UART1_ITConfig$208)
      0007DE 0E                    7281 	.db	14
      0007DF 07                    7282 	.uleb128	7
      0007E0 01                    7283 	.db	1
      0007E1 00 00r03r2A           7284 	.dw	0,(Sstm8s_uart1$UART1_ITConfig$212)
      0007E5 0E                    7285 	.db	14
      0007E6 09                    7286 	.uleb128	9
      0007E7 01                    7287 	.db	1
      0007E8 00 00r03r2D           7288 	.dw	0,(Sstm8s_uart1$UART1_ITConfig$213)
      0007EC 0E                    7289 	.db	14
      0007ED 07                    7290 	.uleb128	7
      0007EE 01                    7291 	.db	1
      0007EF 00 00r03r5C           7292 	.dw	0,(Sstm8s_uart1$UART1_ITConfig$229)
      0007F3 0E                    7293 	.db	14
      0007F4 02                    7294 	.uleb128	2
      0007F5 00                    7295 	.db	0
      0007F6 00                    7296 	.db	0
      0007F7 00                    7297 	.db	0
                                   7298 
                                   7299 	.area .debug_frame (NOLOAD)
      0007F8 00 00                 7300 	.dw	0
      0007FA 00 10                 7301 	.dw	Ldebug_CIE22_end-Ldebug_CIE22_start
      0007FC                       7302 Ldebug_CIE22_start:
      0007FC FF FF                 7303 	.dw	0xffff
      0007FE FF FF                 7304 	.dw	0xffff
      000800 01                    7305 	.db	1
      000801 00                    7306 	.db	0
      000802 01                    7307 	.uleb128	1
      000803 7F                    7308 	.sleb128	-1
      000804 09                    7309 	.db	9
      000805 0C                    7310 	.db	12
      000806 08                    7311 	.uleb128	8
      000807 02                    7312 	.uleb128	2
      000808 89                    7313 	.db	137
      000809 01                    7314 	.uleb128	1
      00080A 00                    7315 	.db	0
      00080B 00                    7316 	.db	0
      00080C                       7317 Ldebug_CIE22_end:
      00080C 00 00 00 24           7318 	.dw	0,36
      000810 00 00r07rF8           7319 	.dw	0,(Ldebug_CIE22_start-4)
      000814 00 00r02r75           7320 	.dw	0,(Sstm8s_uart1$UART1_Cmd$151)	;initial loc
      000818 00 00 00 18           7321 	.dw	0,Sstm8s_uart1$UART1_Cmd$164-Sstm8s_uart1$UART1_Cmd$151
      00081C 01                    7322 	.db	1
      00081D 00 00r02r75           7323 	.dw	0,(Sstm8s_uart1$UART1_Cmd$151)
      000821 0E                    7324 	.db	14
      000822 02                    7325 	.uleb128	2
      000823 01                    7326 	.db	1
      000824 00 00r02r76           7327 	.dw	0,(Sstm8s_uart1$UART1_Cmd$152)
      000828 0E                    7328 	.db	14
      000829 03                    7329 	.uleb128	3
      00082A 01                    7330 	.db	1
      00082B 00 00r02r8C           7331 	.dw	0,(Sstm8s_uart1$UART1_Cmd$162)
      00082F 0E                    7332 	.db	14
      000830 02                    7333 	.uleb128	2
      000831 00                    7334 	.db	0
      000832 00                    7335 	.db	0
      000833 00                    7336 	.db	0
                                   7337 
                                   7338 	.area .debug_frame (NOLOAD)
      000834 00 00                 7339 	.dw	0
      000836 00 10                 7340 	.dw	Ldebug_CIE23_end-Ldebug_CIE23_start
      000838                       7341 Ldebug_CIE23_start:
      000838 FF FF                 7342 	.dw	0xffff
      00083A FF FF                 7343 	.dw	0xffff
      00083C 01                    7344 	.db	1
      00083D 00                    7345 	.db	0
      00083E 01                    7346 	.uleb128	1
      00083F 7F                    7347 	.sleb128	-1
      000840 09                    7348 	.db	9
      000841 0C                    7349 	.db	12
      000842 08                    7350 	.uleb128	8
      000843 02                    7351 	.uleb128	2
      000844 89                    7352 	.db	137
      000845 01                    7353 	.uleb128	1
      000846 00                    7354 	.db	0
      000847 00                    7355 	.db	0
      000848                       7356 Ldebug_CIE23_end:
      000848 00 00 02 5C           7357 	.dw	0,604
      00084C 00 00r08r34           7358 	.dw	0,(Ldebug_CIE23_start-4)
      000850 00 00r00r2B           7359 	.dw	0,(Sstm8s_uart1$UART1_Init$17)	;initial loc
      000854 00 00 02 4A           7360 	.dw	0,Sstm8s_uart1$UART1_Init$149-Sstm8s_uart1$UART1_Init$17
      000858 01                    7361 	.db	1
      000859 00 00r00r2B           7362 	.dw	0,(Sstm8s_uart1$UART1_Init$17)
      00085D 0E                    7363 	.db	14
      00085E 02                    7364 	.uleb128	2
      00085F 01                    7365 	.db	1
      000860 00 00r00r2D           7366 	.dw	0,(Sstm8s_uart1$UART1_Init$18)
      000864 0E                    7367 	.db	14
      000865 0F                    7368 	.uleb128	15
      000866 01                    7369 	.db	1
      000867 00 00r00r3D           7370 	.dw	0,(Sstm8s_uart1$UART1_Init$20)
      00086B 0E                    7371 	.db	14
      00086C 10                    7372 	.uleb128	16
      00086D 01                    7373 	.db	1
      00086E 00 00r00r3F           7374 	.dw	0,(Sstm8s_uart1$UART1_Init$21)
      000872 0E                    7375 	.db	14
      000873 12                    7376 	.uleb128	18
      000874 01                    7377 	.db	1
      000875 00 00r00r41           7378 	.dw	0,(Sstm8s_uart1$UART1_Init$22)
      000879 0E                    7379 	.db	14
      00087A 13                    7380 	.uleb128	19
      00087B 01                    7381 	.db	1
      00087C 00 00r00r47           7382 	.dw	0,(Sstm8s_uart1$UART1_Init$23)
      000880 0E                    7383 	.db	14
      000881 0F                    7384 	.uleb128	15
      000882 01                    7385 	.db	1
      000883 00 00r00r51           7386 	.dw	0,(Sstm8s_uart1$UART1_Init$25)
      000887 0E                    7387 	.db	14
      000888 0F                    7388 	.uleb128	15
      000889 01                    7389 	.db	1
      00088A 00 00r00r53           7390 	.dw	0,(Sstm8s_uart1$UART1_Init$26)
      00088E 0E                    7391 	.db	14
      00088F 10                    7392 	.uleb128	16
      000890 01                    7393 	.db	1
      000891 00 00r00r55           7394 	.dw	0,(Sstm8s_uart1$UART1_Init$27)
      000895 0E                    7395 	.db	14
      000896 12                    7396 	.uleb128	18
      000897 01                    7397 	.db	1
      000898 00 00r00r57           7398 	.dw	0,(Sstm8s_uart1$UART1_Init$28)
      00089C 0E                    7399 	.db	14
      00089D 13                    7400 	.uleb128	19
      00089E 01                    7401 	.db	1
      00089F 00 00r00r5D           7402 	.dw	0,(Sstm8s_uart1$UART1_Init$29)
      0008A3 0E                    7403 	.db	14
      0008A4 0F                    7404 	.uleb128	15
      0008A5 01                    7405 	.db	1
      0008A6 00 00r00r67           7406 	.dw	0,(Sstm8s_uart1$UART1_Init$31)
      0008AA 0E                    7407 	.db	14
      0008AB 0F                    7408 	.uleb128	15
      0008AC 01                    7409 	.db	1
      0008AD 00 00r00r6D           7410 	.dw	0,(Sstm8s_uart1$UART1_Init$32)
      0008B1 0E                    7411 	.db	14
      0008B2 0F                    7412 	.uleb128	15
      0008B3 01                    7413 	.db	1
      0008B4 00 00r00r73           7414 	.dw	0,(Sstm8s_uart1$UART1_Init$33)
      0008B8 0E                    7415 	.db	14
      0008B9 0F                    7416 	.uleb128	15
      0008BA 01                    7417 	.db	1
      0008BB 00 00r00r75           7418 	.dw	0,(Sstm8s_uart1$UART1_Init$34)
      0008BF 0E                    7419 	.db	14
      0008C0 10                    7420 	.uleb128	16
      0008C1 01                    7421 	.db	1
      0008C2 00 00r00r77           7422 	.dw	0,(Sstm8s_uart1$UART1_Init$35)
      0008C6 0E                    7423 	.db	14
      0008C7 12                    7424 	.uleb128	18
      0008C8 01                    7425 	.db	1
      0008C9 00 00r00r79           7426 	.dw	0,(Sstm8s_uart1$UART1_Init$36)
      0008CD 0E                    7427 	.db	14
      0008CE 13                    7428 	.uleb128	19
      0008CF 01                    7429 	.db	1
      0008D0 00 00r00r7F           7430 	.dw	0,(Sstm8s_uart1$UART1_Init$37)
      0008D4 0E                    7431 	.db	14
      0008D5 0F                    7432 	.uleb128	15
      0008D6 01                    7433 	.db	1
      0008D7 00 00r00r89           7434 	.dw	0,(Sstm8s_uart1$UART1_Init$39)
      0008DB 0E                    7435 	.db	14
      0008DC 0F                    7436 	.uleb128	15
      0008DD 01                    7437 	.db	1
      0008DE 00 00r00r8F           7438 	.dw	0,(Sstm8s_uart1$UART1_Init$40)
      0008E2 0E                    7439 	.db	14
      0008E3 0F                    7440 	.uleb128	15
      0008E4 01                    7441 	.db	1
      0008E5 00 00r00r91           7442 	.dw	0,(Sstm8s_uart1$UART1_Init$41)
      0008E9 0E                    7443 	.db	14
      0008EA 10                    7444 	.uleb128	16
      0008EB 01                    7445 	.db	1
      0008EC 00 00r00r93           7446 	.dw	0,(Sstm8s_uart1$UART1_Init$42)
      0008F0 0E                    7447 	.db	14
      0008F1 12                    7448 	.uleb128	18
      0008F2 01                    7449 	.db	1
      0008F3 00 00r00r95           7450 	.dw	0,(Sstm8s_uart1$UART1_Init$43)
      0008F7 0E                    7451 	.db	14
      0008F8 13                    7452 	.uleb128	19
      0008F9 01                    7453 	.db	1
      0008FA 00 00r00r9B           7454 	.dw	0,(Sstm8s_uart1$UART1_Init$44)
      0008FE 0E                    7455 	.db	14
      0008FF 0F                    7456 	.uleb128	15
      000900 01                    7457 	.db	1
      000901 00 00r00rA1           7458 	.dw	0,(Sstm8s_uart1$UART1_Init$46)
      000905 0E                    7459 	.db	14
      000906 0F                    7460 	.uleb128	15
      000907 01                    7461 	.db	1
      000908 00 00r00rA7           7462 	.dw	0,(Sstm8s_uart1$UART1_Init$47)
      00090C 0E                    7463 	.db	14
      00090D 0F                    7464 	.uleb128	15
      00090E 01                    7465 	.db	1
      00090F 00 00r00rAD           7466 	.dw	0,(Sstm8s_uart1$UART1_Init$48)
      000913 0E                    7467 	.db	14
      000914 0F                    7468 	.uleb128	15
      000915 01                    7469 	.db	1
      000916 00 00r00rB3           7470 	.dw	0,(Sstm8s_uart1$UART1_Init$49)
      00091A 0E                    7471 	.db	14
      00091B 0F                    7472 	.uleb128	15
      00091C 01                    7473 	.db	1
      00091D 00 00r00rBC           7474 	.dw	0,(Sstm8s_uart1$UART1_Init$50)
      000921 0E                    7475 	.db	14
      000922 0F                    7476 	.uleb128	15
      000923 01                    7477 	.db	1
      000924 00 00r00rC8           7478 	.dw	0,(Sstm8s_uart1$UART1_Init$51)
      000928 0E                    7479 	.db	14
      000929 0F                    7480 	.uleb128	15
      00092A 01                    7481 	.db	1
      00092B 00 00r00rCE           7482 	.dw	0,(Sstm8s_uart1$UART1_Init$52)
      00092F 0E                    7483 	.db	14
      000930 0F                    7484 	.uleb128	15
      000931 01                    7485 	.db	1
      000932 00 00r00rD4           7486 	.dw	0,(Sstm8s_uart1$UART1_Init$53)
      000936 0E                    7487 	.db	14
      000937 0F                    7488 	.uleb128	15
      000938 01                    7489 	.db	1
      000939 00 00r00rD6           7490 	.dw	0,(Sstm8s_uart1$UART1_Init$54)
      00093D 0E                    7491 	.db	14
      00093E 10                    7492 	.uleb128	16
      00093F 01                    7493 	.db	1
      000940 00 00r00rD8           7494 	.dw	0,(Sstm8s_uart1$UART1_Init$55)
      000944 0E                    7495 	.db	14
      000945 12                    7496 	.uleb128	18
      000946 01                    7497 	.db	1
      000947 00 00r00rDA           7498 	.dw	0,(Sstm8s_uart1$UART1_Init$56)
      00094B 0E                    7499 	.db	14
      00094C 13                    7500 	.uleb128	19
      00094D 01                    7501 	.db	1
      00094E 00 00r00rE0           7502 	.dw	0,(Sstm8s_uart1$UART1_Init$57)
      000952 0E                    7503 	.db	14
      000953 0F                    7504 	.uleb128	15
      000954 01                    7505 	.db	1
      000955 00 00r00rE7           7506 	.dw	0,(Sstm8s_uart1$UART1_Init$59)
      000959 0E                    7507 	.db	14
      00095A 0F                    7508 	.uleb128	15
      00095B 01                    7509 	.db	1
      00095C 00 00r00rEE           7510 	.dw	0,(Sstm8s_uart1$UART1_Init$60)
      000960 0E                    7511 	.db	14
      000961 0F                    7512 	.uleb128	15
      000962 01                    7513 	.db	1
      000963 00 00r00rF5           7514 	.dw	0,(Sstm8s_uart1$UART1_Init$61)
      000967 0E                    7515 	.db	14
      000968 0F                    7516 	.uleb128	15
      000969 01                    7517 	.db	1
      00096A 00 00r00rFC           7518 	.dw	0,(Sstm8s_uart1$UART1_Init$62)
      00096E 0E                    7519 	.db	14
      00096F 0F                    7520 	.uleb128	15
      000970 01                    7521 	.db	1
      000971 00 00r00rFE           7522 	.dw	0,(Sstm8s_uart1$UART1_Init$63)
      000975 0E                    7523 	.db	14
      000976 10                    7524 	.uleb128	16
      000977 01                    7525 	.db	1
      000978 00 00r01r00           7526 	.dw	0,(Sstm8s_uart1$UART1_Init$64)
      00097C 0E                    7527 	.db	14
      00097D 12                    7528 	.uleb128	18
      00097E 01                    7529 	.db	1
      00097F 00 00r01r02           7530 	.dw	0,(Sstm8s_uart1$UART1_Init$65)
      000983 0E                    7531 	.db	14
      000984 13                    7532 	.uleb128	19
      000985 01                    7533 	.db	1
      000986 00 00r01r08           7534 	.dw	0,(Sstm8s_uart1$UART1_Init$66)
      00098A 0E                    7535 	.db	14
      00098B 0F                    7536 	.uleb128	15
      00098C 01                    7537 	.db	1
      00098D 00 00r01r63           7538 	.dw	0,(Sstm8s_uart1$UART1_Init$77)
      000991 0E                    7539 	.db	14
      000992 11                    7540 	.uleb128	17
      000993 01                    7541 	.db	1
      000994 00 00r01r66           7542 	.dw	0,(Sstm8s_uart1$UART1_Init$78)
      000998 0E                    7543 	.db	14
      000999 13                    7544 	.uleb128	19
      00099A 01                    7545 	.db	1
      00099B 00 00r01r69           7546 	.dw	0,(Sstm8s_uart1$UART1_Init$79)
      00099F 0E                    7547 	.db	14
      0009A0 15                    7548 	.uleb128	21
      0009A1 01                    7549 	.db	1
      0009A2 00 00r01r6B           7550 	.dw	0,(Sstm8s_uart1$UART1_Init$80)
      0009A6 0E                    7551 	.db	14
      0009A7 17                    7552 	.uleb128	23
      0009A8 01                    7553 	.db	1
      0009A9 00 00r01r70           7554 	.dw	0,(Sstm8s_uart1$UART1_Init$81)
      0009AD 0E                    7555 	.db	14
      0009AE 0F                    7556 	.uleb128	15
      0009AF 01                    7557 	.db	1
      0009B0 00 00r01r78           7558 	.dw	0,(Sstm8s_uart1$UART1_Init$83)
      0009B4 0E                    7559 	.db	14
      0009B5 11                    7560 	.uleb128	17
      0009B6 01                    7561 	.db	1
      0009B7 00 00r01r7A           7562 	.dw	0,(Sstm8s_uart1$UART1_Init$84)
      0009BB 0E                    7563 	.db	14
      0009BC 13                    7564 	.uleb128	19
      0009BD 01                    7565 	.db	1
      0009BE 00 00r01r7C           7566 	.dw	0,(Sstm8s_uart1$UART1_Init$85)
      0009C2 0E                    7567 	.db	14
      0009C3 14                    7568 	.uleb128	20
      0009C4 01                    7569 	.db	1
      0009C5 00 00r01r7E           7570 	.dw	0,(Sstm8s_uart1$UART1_Init$86)
      0009C9 0E                    7571 	.db	14
      0009CA 16                    7572 	.uleb128	22
      0009CB 01                    7573 	.db	1
      0009CC 00 00r01r80           7574 	.dw	0,(Sstm8s_uart1$UART1_Init$87)
      0009D0 0E                    7575 	.db	14
      0009D1 17                    7576 	.uleb128	23
      0009D2 01                    7577 	.db	1
      0009D3 00 00r01r85           7578 	.dw	0,(Sstm8s_uart1$UART1_Init$88)
      0009D7 0E                    7579 	.db	14
      0009D8 0F                    7580 	.uleb128	15
      0009D9 01                    7581 	.db	1
      0009DA 00 00r01r8A           7582 	.dw	0,(Sstm8s_uart1$UART1_Init$89)
      0009DE 0E                    7583 	.db	14
      0009DF 11                    7584 	.uleb128	17
      0009E0 01                    7585 	.db	1
      0009E1 00 00r01r8D           7586 	.dw	0,(Sstm8s_uart1$UART1_Init$90)
      0009E5 0E                    7587 	.db	14
      0009E6 13                    7588 	.uleb128	19
      0009E7 01                    7589 	.db	1
      0009E8 00 00r01r90           7590 	.dw	0,(Sstm8s_uart1$UART1_Init$91)
      0009EC 0E                    7591 	.db	14
      0009ED 15                    7592 	.uleb128	21
      0009EE 01                    7593 	.db	1
      0009EF 00 00r01r92           7594 	.dw	0,(Sstm8s_uart1$UART1_Init$92)
      0009F3 0E                    7595 	.db	14
      0009F4 17                    7596 	.uleb128	23
      0009F5 01                    7597 	.db	1
      0009F6 00 00r01r97           7598 	.dw	0,(Sstm8s_uart1$UART1_Init$93)
      0009FA 0E                    7599 	.db	14
      0009FB 0F                    7600 	.uleb128	15
      0009FC 01                    7601 	.db	1
      0009FD 00 00r01rA3           7602 	.dw	0,(Sstm8s_uart1$UART1_Init$95)
      000A01 0E                    7603 	.db	14
      000A02 10                    7604 	.uleb128	16
      000A03 01                    7605 	.db	1
      000A04 00 00r00r00           7606 	.dw	0,(Sstm8s_uart1$UART1_Init$96)
      000A08 0E                    7607 	.db	14
      000A09 0F                    7608 	.uleb128	15
      000A0A 01                    7609 	.db	1
      000A0B 00 00r01rA6           7610 	.dw	0,(Sstm8s_uart1$UART1_Init$97)
      000A0F 0E                    7611 	.db	14
      000A10 10                    7612 	.uleb128	16
      000A11 01                    7613 	.db	1
      000A12 00 00r01rA9           7614 	.dw	0,(Sstm8s_uart1$UART1_Init$98)
      000A16 0E                    7615 	.db	14
      000A17 12                    7616 	.uleb128	18
      000A18 01                    7617 	.db	1
      000A19 00 00r01rAC           7618 	.dw	0,(Sstm8s_uart1$UART1_Init$99)
      000A1D 0E                    7619 	.db	14
      000A1E 14                    7620 	.uleb128	20
      000A1F 01                    7621 	.db	1
      000A20 00 00r01rAE           7622 	.dw	0,(Sstm8s_uart1$UART1_Init$100)
      000A24 0E                    7623 	.db	14
      000A25 15                    7624 	.uleb128	21
      000A26 01                    7625 	.db	1
      000A27 00 00r01rB0           7626 	.dw	0,(Sstm8s_uart1$UART1_Init$101)
      000A2B 0E                    7627 	.db	14
      000A2C 17                    7628 	.uleb128	23
      000A2D 01                    7629 	.db	1
      000A2E 00 00r01rB2           7630 	.dw	0,(Sstm8s_uart1$UART1_Init$102)
      000A32 0E                    7631 	.db	14
      000A33 18                    7632 	.uleb128	24
      000A34 01                    7633 	.db	1
      000A35 00 00r01rB7           7634 	.dw	0,(Sstm8s_uart1$UART1_Init$103)
      000A39 0E                    7635 	.db	14
      000A3A 10                    7636 	.uleb128	16
      000A3B 01                    7637 	.db	1
      000A3C 00 00r01rBC           7638 	.dw	0,(Sstm8s_uart1$UART1_Init$104)
      000A40 0E                    7639 	.db	14
      000A41 0F                    7640 	.uleb128	15
      000A42 01                    7641 	.db	1
      000A43 00 00r01rD3           7642 	.dw	0,(Sstm8s_uart1$UART1_Init$105)
      000A47 0E                    7643 	.db	14
      000A48 10                    7644 	.uleb128	16
      000A49 01                    7645 	.db	1
      000A4A 00 00r01rD5           7646 	.dw	0,(Sstm8s_uart1$UART1_Init$106)
      000A4E 0E                    7647 	.db	14
      000A4F 11                    7648 	.uleb128	17
      000A50 01                    7649 	.db	1
      000A51 00 00r01rD7           7650 	.dw	0,(Sstm8s_uart1$UART1_Init$107)
      000A55 0E                    7651 	.db	14
      000A56 12                    7652 	.uleb128	18
      000A57 01                    7653 	.db	1
      000A58 00 00r01rD9           7654 	.dw	0,(Sstm8s_uart1$UART1_Init$108)
      000A5C 0E                    7655 	.db	14
      000A5D 13                    7656 	.uleb128	19
      000A5E 01                    7657 	.db	1
      000A5F 00 00r01rDB           7658 	.dw	0,(Sstm8s_uart1$UART1_Init$109)
      000A63 0E                    7659 	.db	14
      000A64 15                    7660 	.uleb128	21
      000A65 01                    7661 	.db	1
      000A66 00 00r01rDC           7662 	.dw	0,(Sstm8s_uart1$UART1_Init$110)
      000A6A 0E                    7663 	.db	14
      000A6B 17                    7664 	.uleb128	23
      000A6C 01                    7665 	.db	1
      000A6D 00 00r01rE1           7666 	.dw	0,(Sstm8s_uart1$UART1_Init$111)
      000A71 0E                    7667 	.db	14
      000A72 0F                    7668 	.uleb128	15
      000A73 01                    7669 	.db	1
      000A74 00 00r02r2B           7670 	.dw	0,(Sstm8s_uart1$UART1_Init$119)
      000A78 0E                    7671 	.db	14
      000A79 10                    7672 	.uleb128	16
      000A7A 01                    7673 	.db	1
      000A7B 00 00r02r30           7674 	.dw	0,(Sstm8s_uart1$UART1_Init$120)
      000A7F 0E                    7675 	.db	14
      000A80 0F                    7676 	.uleb128	15
      000A81 01                    7677 	.db	1
      000A82 00 00r02r42           7678 	.dw	0,(Sstm8s_uart1$UART1_Init$129)
      000A86 0E                    7679 	.db	14
      000A87 10                    7680 	.uleb128	16
      000A88 01                    7681 	.db	1
      000A89 00 00r02r47           7682 	.dw	0,(Sstm8s_uart1$UART1_Init$130)
      000A8D 0E                    7683 	.db	14
      000A8E 0F                    7684 	.uleb128	15
      000A8F 01                    7685 	.db	1
      000A90 00 00r02r64           7686 	.dw	0,(Sstm8s_uart1$UART1_Init$144)
      000A94 0E                    7687 	.db	14
      000A95 10                    7688 	.uleb128	16
      000A96 01                    7689 	.db	1
      000A97 00 00r02r6B           7690 	.dw	0,(Sstm8s_uart1$UART1_Init$145)
      000A9B 0E                    7691 	.db	14
      000A9C 0F                    7692 	.uleb128	15
      000A9D 01                    7693 	.db	1
      000A9E 00 00r02r74           7694 	.dw	0,(Sstm8s_uart1$UART1_Init$148)
      000AA2 0E                    7695 	.db	14
      000AA3 F7 FF FF FF 0F        7696 	.uleb128	-9
                                   7697 
                                   7698 	.area .debug_frame (NOLOAD)
      000AA8 00 00                 7699 	.dw	0
      000AAA 00 10                 7700 	.dw	Ldebug_CIE24_end-Ldebug_CIE24_start
      000AAC                       7701 Ldebug_CIE24_start:
      000AAC FF FF                 7702 	.dw	0xffff
      000AAE FF FF                 7703 	.dw	0xffff
      000AB0 01                    7704 	.db	1
      000AB1 00                    7705 	.db	0
      000AB2 01                    7706 	.uleb128	1
      000AB3 7F                    7707 	.sleb128	-1
      000AB4 09                    7708 	.db	9
      000AB5 0C                    7709 	.db	12
      000AB6 08                    7710 	.uleb128	8
      000AB7 02                    7711 	.uleb128	2
      000AB8 89                    7712 	.db	137
      000AB9 01                    7713 	.uleb128	1
      000ABA 00                    7714 	.db	0
      000ABB 00                    7715 	.db	0
      000ABC                       7716 Ldebug_CIE24_end:
      000ABC 00 00 00 14           7717 	.dw	0,20
      000AC0 00 00r0ArA8           7718 	.dw	0,(Ldebug_CIE24_start-4)
      000AC4 00 00r00r00           7719 	.dw	0,(Sstm8s_uart1$UART1_DeInit$1)	;initial loc
      000AC8 00 00 00 2B           7720 	.dw	0,Sstm8s_uart1$UART1_DeInit$15-Sstm8s_uart1$UART1_DeInit$1
      000ACC 01                    7721 	.db	1
      000ACD 00 00r00r00           7722 	.dw	0,(Sstm8s_uart1$UART1_DeInit$1)
      000AD1 0E                    7723 	.db	14
      000AD2 02                    7724 	.uleb128	2
      000AD3 00                    7725 	.db	0
