                                      1 ;--------------------------------------------------------
                                      2 ; File Created by SDCC : free open source ISO C Compiler 
                                      3 ; Version 4.3.0 #14184 (MINGW64)
                                      4 ;--------------------------------------------------------
                                      5 	.module stm8s_tim2
                                      6 	.optsdcc -mstm8
                                      7 	
                                      8 ;--------------------------------------------------------
                                      9 ; Public variables in this module
                                     10 ;--------------------------------------------------------
                                     11 	.globl _assert_failed
                                     12 	.globl _TIM2_DeInit
                                     13 	.globl _TIM2_TimeBaseInit
                                     14 	.globl _TIM2_OC1Init
                                     15 	.globl _TIM2_OC2Init
                                     16 	.globl _TIM2_OC3Init
                                     17 	.globl _TIM2_ICInit
                                     18 	.globl _TIM2_PWMIConfig
                                     19 	.globl _TIM2_Cmd
                                     20 	.globl _TIM2_ITConfig
                                     21 	.globl _TIM2_UpdateDisableConfig
                                     22 	.globl _TIM2_UpdateRequestConfig
                                     23 	.globl _TIM2_SelectOnePulseMode
                                     24 	.globl _TIM2_PrescalerConfig
                                     25 	.globl _TIM2_ForcedOC1Config
                                     26 	.globl _TIM2_ForcedOC2Config
                                     27 	.globl _TIM2_ForcedOC3Config
                                     28 	.globl _TIM2_ARRPreloadConfig
                                     29 	.globl _TIM2_OC1PreloadConfig
                                     30 	.globl _TIM2_OC2PreloadConfig
                                     31 	.globl _TIM2_OC3PreloadConfig
                                     32 	.globl _TIM2_GenerateEvent
                                     33 	.globl _TIM2_OC1PolarityConfig
                                     34 	.globl _TIM2_OC2PolarityConfig
                                     35 	.globl _TIM2_OC3PolarityConfig
                                     36 	.globl _TIM2_CCxCmd
                                     37 	.globl _TIM2_SelectOCxM
                                     38 	.globl _TIM2_SetCounter
                                     39 	.globl _TIM2_SetAutoreload
                                     40 	.globl _TIM2_SetCompare1
                                     41 	.globl _TIM2_SetCompare2
                                     42 	.globl _TIM2_SetCompare3
                                     43 	.globl _TIM2_SetIC1Prescaler
                                     44 	.globl _TIM2_SetIC2Prescaler
                                     45 	.globl _TIM2_SetIC3Prescaler
                                     46 	.globl _TIM2_GetCapture1
                                     47 	.globl _TIM2_GetCapture2
                                     48 	.globl _TIM2_GetCapture3
                                     49 	.globl _TIM2_GetCounter
                                     50 	.globl _TIM2_GetPrescaler
                                     51 	.globl _TIM2_GetFlagStatus
                                     52 	.globl _TIM2_ClearFlag
                                     53 	.globl _TIM2_GetITStatus
                                     54 	.globl _TIM2_ClearITPendingBit
                                     55 ;--------------------------------------------------------
                                     56 ; ram data
                                     57 ;--------------------------------------------------------
                                     58 	.area DATA
                                     59 ;--------------------------------------------------------
                                     60 ; ram data
                                     61 ;--------------------------------------------------------
                                     62 	.area INITIALIZED
                                     63 ;--------------------------------------------------------
                                     64 ; absolute external ram data
                                     65 ;--------------------------------------------------------
                                     66 	.area DABS (ABS)
                                     67 
                                     68 ; default segment ordering for linker
                                     69 	.area HOME
                                     70 	.area GSINIT
                                     71 	.area GSFINAL
                                     72 	.area CONST
                                     73 	.area INITIALIZER
                                     74 	.area CODE
                                     75 
                                     76 ;--------------------------------------------------------
                                     77 ; global & static initialisations
                                     78 ;--------------------------------------------------------
                                     79 	.area HOME
                                     80 	.area GSINIT
                                     81 	.area GSFINAL
                                     82 	.area GSINIT
                                     83 ;--------------------------------------------------------
                                     84 ; Home
                                     85 ;--------------------------------------------------------
                                     86 	.area HOME
                                     87 	.area HOME
                                     88 ;--------------------------------------------------------
                                     89 ; code
                                     90 ;--------------------------------------------------------
                                     91 	.area CODE
                           000000    92 	Sstm8s_tim2$TIM2_DeInit$0 ==.
                                     93 ;	./STM8S_StdPeriph_Lib/Libraries/STM8S_StdPeriph_Driver/src/stm8s_tim2.c: 52: void TIM2_DeInit(void)
                                     94 ;	-----------------------------------------
                                     95 ;	 function TIM2_DeInit
                                     96 ;	-----------------------------------------
      000000                         97 _TIM2_DeInit:
                           000000    98 	Sstm8s_tim2$TIM2_DeInit$1 ==.
                           000000    99 	Sstm8s_tim2$TIM2_DeInit$2 ==.
                                    100 ;	./STM8S_StdPeriph_Lib/Libraries/STM8S_StdPeriph_Driver/src/stm8s_tim2.c: 54: TIM2->CR1 = (uint8_t)TIM2_CR1_RESET_VALUE;
      000000 35 00 53 00      [ 1]  101 	mov	0x5300+0, #0x00
                           000004   102 	Sstm8s_tim2$TIM2_DeInit$3 ==.
                                    103 ;	./STM8S_StdPeriph_Lib/Libraries/STM8S_StdPeriph_Driver/src/stm8s_tim2.c: 55: TIM2->IER = (uint8_t)TIM2_IER_RESET_VALUE;
      000004 35 00 53 03      [ 1]  104 	mov	0x5303+0, #0x00
                           000008   105 	Sstm8s_tim2$TIM2_DeInit$4 ==.
                                    106 ;	./STM8S_StdPeriph_Lib/Libraries/STM8S_StdPeriph_Driver/src/stm8s_tim2.c: 56: TIM2->SR2 = (uint8_t)TIM2_SR2_RESET_VALUE;
      000008 35 00 53 05      [ 1]  107 	mov	0x5305+0, #0x00
                           00000C   108 	Sstm8s_tim2$TIM2_DeInit$5 ==.
                                    109 ;	./STM8S_StdPeriph_Lib/Libraries/STM8S_StdPeriph_Driver/src/stm8s_tim2.c: 59: TIM2->CCER1 = (uint8_t)TIM2_CCER1_RESET_VALUE;
      00000C 35 00 53 0A      [ 1]  110 	mov	0x530a+0, #0x00
                           000010   111 	Sstm8s_tim2$TIM2_DeInit$6 ==.
                                    112 ;	./STM8S_StdPeriph_Lib/Libraries/STM8S_StdPeriph_Driver/src/stm8s_tim2.c: 60: TIM2->CCER2 = (uint8_t)TIM2_CCER2_RESET_VALUE;
      000010 35 00 53 0B      [ 1]  113 	mov	0x530b+0, #0x00
                           000014   114 	Sstm8s_tim2$TIM2_DeInit$7 ==.
                                    115 ;	./STM8S_StdPeriph_Lib/Libraries/STM8S_StdPeriph_Driver/src/stm8s_tim2.c: 64: TIM2->CCER1 = (uint8_t)TIM2_CCER1_RESET_VALUE;
      000014 35 00 53 0A      [ 1]  116 	mov	0x530a+0, #0x00
                           000018   117 	Sstm8s_tim2$TIM2_DeInit$8 ==.
                                    118 ;	./STM8S_StdPeriph_Lib/Libraries/STM8S_StdPeriph_Driver/src/stm8s_tim2.c: 65: TIM2->CCER2 = (uint8_t)TIM2_CCER2_RESET_VALUE;
      000018 35 00 53 0B      [ 1]  119 	mov	0x530b+0, #0x00
                           00001C   120 	Sstm8s_tim2$TIM2_DeInit$9 ==.
                                    121 ;	./STM8S_StdPeriph_Lib/Libraries/STM8S_StdPeriph_Driver/src/stm8s_tim2.c: 66: TIM2->CCMR1 = (uint8_t)TIM2_CCMR1_RESET_VALUE;
      00001C 35 00 53 07      [ 1]  122 	mov	0x5307+0, #0x00
                           000020   123 	Sstm8s_tim2$TIM2_DeInit$10 ==.
                                    124 ;	./STM8S_StdPeriph_Lib/Libraries/STM8S_StdPeriph_Driver/src/stm8s_tim2.c: 67: TIM2->CCMR2 = (uint8_t)TIM2_CCMR2_RESET_VALUE;
      000020 35 00 53 08      [ 1]  125 	mov	0x5308+0, #0x00
                           000024   126 	Sstm8s_tim2$TIM2_DeInit$11 ==.
                                    127 ;	./STM8S_StdPeriph_Lib/Libraries/STM8S_StdPeriph_Driver/src/stm8s_tim2.c: 68: TIM2->CCMR3 = (uint8_t)TIM2_CCMR3_RESET_VALUE;
      000024 35 00 53 09      [ 1]  128 	mov	0x5309+0, #0x00
                           000028   129 	Sstm8s_tim2$TIM2_DeInit$12 ==.
                                    130 ;	./STM8S_StdPeriph_Lib/Libraries/STM8S_StdPeriph_Driver/src/stm8s_tim2.c: 69: TIM2->CNTRH = (uint8_t)TIM2_CNTRH_RESET_VALUE;
      000028 35 00 53 0C      [ 1]  131 	mov	0x530c+0, #0x00
                           00002C   132 	Sstm8s_tim2$TIM2_DeInit$13 ==.
                                    133 ;	./STM8S_StdPeriph_Lib/Libraries/STM8S_StdPeriph_Driver/src/stm8s_tim2.c: 70: TIM2->CNTRL = (uint8_t)TIM2_CNTRL_RESET_VALUE;
      00002C 35 00 53 0D      [ 1]  134 	mov	0x530d+0, #0x00
                           000030   135 	Sstm8s_tim2$TIM2_DeInit$14 ==.
                                    136 ;	./STM8S_StdPeriph_Lib/Libraries/STM8S_StdPeriph_Driver/src/stm8s_tim2.c: 71: TIM2->PSCR = (uint8_t)TIM2_PSCR_RESET_VALUE;
      000030 35 00 53 0E      [ 1]  137 	mov	0x530e+0, #0x00
                           000034   138 	Sstm8s_tim2$TIM2_DeInit$15 ==.
                                    139 ;	./STM8S_StdPeriph_Lib/Libraries/STM8S_StdPeriph_Driver/src/stm8s_tim2.c: 72: TIM2->ARRH  = (uint8_t)TIM2_ARRH_RESET_VALUE;
      000034 35 FF 53 0F      [ 1]  140 	mov	0x530f+0, #0xff
                           000038   141 	Sstm8s_tim2$TIM2_DeInit$16 ==.
                                    142 ;	./STM8S_StdPeriph_Lib/Libraries/STM8S_StdPeriph_Driver/src/stm8s_tim2.c: 73: TIM2->ARRL  = (uint8_t)TIM2_ARRL_RESET_VALUE;
      000038 35 FF 53 10      [ 1]  143 	mov	0x5310+0, #0xff
                           00003C   144 	Sstm8s_tim2$TIM2_DeInit$17 ==.
                                    145 ;	./STM8S_StdPeriph_Lib/Libraries/STM8S_StdPeriph_Driver/src/stm8s_tim2.c: 74: TIM2->CCR1H = (uint8_t)TIM2_CCR1H_RESET_VALUE;
      00003C 35 00 53 11      [ 1]  146 	mov	0x5311+0, #0x00
                           000040   147 	Sstm8s_tim2$TIM2_DeInit$18 ==.
                                    148 ;	./STM8S_StdPeriph_Lib/Libraries/STM8S_StdPeriph_Driver/src/stm8s_tim2.c: 75: TIM2->CCR1L = (uint8_t)TIM2_CCR1L_RESET_VALUE;
      000040 35 00 53 12      [ 1]  149 	mov	0x5312+0, #0x00
                           000044   150 	Sstm8s_tim2$TIM2_DeInit$19 ==.
                                    151 ;	./STM8S_StdPeriph_Lib/Libraries/STM8S_StdPeriph_Driver/src/stm8s_tim2.c: 76: TIM2->CCR2H = (uint8_t)TIM2_CCR2H_RESET_VALUE;
      000044 35 00 53 13      [ 1]  152 	mov	0x5313+0, #0x00
                           000048   153 	Sstm8s_tim2$TIM2_DeInit$20 ==.
                                    154 ;	./STM8S_StdPeriph_Lib/Libraries/STM8S_StdPeriph_Driver/src/stm8s_tim2.c: 77: TIM2->CCR2L = (uint8_t)TIM2_CCR2L_RESET_VALUE;
      000048 35 00 53 14      [ 1]  155 	mov	0x5314+0, #0x00
                           00004C   156 	Sstm8s_tim2$TIM2_DeInit$21 ==.
                                    157 ;	./STM8S_StdPeriph_Lib/Libraries/STM8S_StdPeriph_Driver/src/stm8s_tim2.c: 78: TIM2->CCR3H = (uint8_t)TIM2_CCR3H_RESET_VALUE;
      00004C 35 00 53 15      [ 1]  158 	mov	0x5315+0, #0x00
                           000050   159 	Sstm8s_tim2$TIM2_DeInit$22 ==.
                                    160 ;	./STM8S_StdPeriph_Lib/Libraries/STM8S_StdPeriph_Driver/src/stm8s_tim2.c: 79: TIM2->CCR3L = (uint8_t)TIM2_CCR3L_RESET_VALUE;
      000050 35 00 53 16      [ 1]  161 	mov	0x5316+0, #0x00
                           000054   162 	Sstm8s_tim2$TIM2_DeInit$23 ==.
                                    163 ;	./STM8S_StdPeriph_Lib/Libraries/STM8S_StdPeriph_Driver/src/stm8s_tim2.c: 80: TIM2->SR1 = (uint8_t)TIM2_SR1_RESET_VALUE;
      000054 35 00 53 04      [ 1]  164 	mov	0x5304+0, #0x00
                           000058   165 	Sstm8s_tim2$TIM2_DeInit$24 ==.
                                    166 ;	./STM8S_StdPeriph_Lib/Libraries/STM8S_StdPeriph_Driver/src/stm8s_tim2.c: 81: }
                           000058   167 	Sstm8s_tim2$TIM2_DeInit$25 ==.
                           000058   168 	XG$TIM2_DeInit$0$0 ==.
      000058 81               [ 4]  169 	ret
                           000059   170 	Sstm8s_tim2$TIM2_DeInit$26 ==.
                           000059   171 	Sstm8s_tim2$TIM2_TimeBaseInit$27 ==.
                                    172 ;	./STM8S_StdPeriph_Lib/Libraries/STM8S_StdPeriph_Driver/src/stm8s_tim2.c: 89: void TIM2_TimeBaseInit( TIM2_Prescaler_TypeDef TIM2_Prescaler,
                                    173 ;	-----------------------------------------
                                    174 ;	 function TIM2_TimeBaseInit
                                    175 ;	-----------------------------------------
      000059                        176 _TIM2_TimeBaseInit:
                           000059   177 	Sstm8s_tim2$TIM2_TimeBaseInit$28 ==.
                           000059   178 	Sstm8s_tim2$TIM2_TimeBaseInit$29 ==.
                                    179 ;	./STM8S_StdPeriph_Lib/Libraries/STM8S_StdPeriph_Driver/src/stm8s_tim2.c: 93: TIM2->PSCR = (uint8_t)(TIM2_Prescaler);
      000059 C7 53 0E         [ 1]  180 	ld	0x530e, a
                           00005C   181 	Sstm8s_tim2$TIM2_TimeBaseInit$30 ==.
                                    182 ;	./STM8S_StdPeriph_Lib/Libraries/STM8S_StdPeriph_Driver/src/stm8s_tim2.c: 95: TIM2->ARRH = (uint8_t)(TIM2_Period >> 8);
      00005C 9E               [ 1]  183 	ld	a, xh
      00005D C7 53 0F         [ 1]  184 	ld	0x530f, a
                           000060   185 	Sstm8s_tim2$TIM2_TimeBaseInit$31 ==.
                                    186 ;	./STM8S_StdPeriph_Lib/Libraries/STM8S_StdPeriph_Driver/src/stm8s_tim2.c: 96: TIM2->ARRL = (uint8_t)(TIM2_Period);
      000060 9F               [ 1]  187 	ld	a, xl
      000061 C7 53 10         [ 1]  188 	ld	0x5310, a
                           000064   189 	Sstm8s_tim2$TIM2_TimeBaseInit$32 ==.
                                    190 ;	./STM8S_StdPeriph_Lib/Libraries/STM8S_StdPeriph_Driver/src/stm8s_tim2.c: 97: }
                           000064   191 	Sstm8s_tim2$TIM2_TimeBaseInit$33 ==.
                           000064   192 	XG$TIM2_TimeBaseInit$0$0 ==.
      000064 81               [ 4]  193 	ret
                           000065   194 	Sstm8s_tim2$TIM2_TimeBaseInit$34 ==.
                           000065   195 	Sstm8s_tim2$TIM2_OC1Init$35 ==.
                                    196 ;	./STM8S_StdPeriph_Lib/Libraries/STM8S_StdPeriph_Driver/src/stm8s_tim2.c: 108: void TIM2_OC1Init(TIM2_OCMode_TypeDef TIM2_OCMode,
                                    197 ;	-----------------------------------------
                                    198 ;	 function TIM2_OC1Init
                                    199 ;	-----------------------------------------
      000065                        200 _TIM2_OC1Init:
                           000065   201 	Sstm8s_tim2$TIM2_OC1Init$36 ==.
      000065 52 03            [ 2]  202 	sub	sp, #3
                           000067   203 	Sstm8s_tim2$TIM2_OC1Init$37 ==.
                           000067   204 	Sstm8s_tim2$TIM2_OC1Init$38 ==.
                                    205 ;	./STM8S_StdPeriph_Lib/Libraries/STM8S_StdPeriph_Driver/src/stm8s_tim2.c: 114: assert_param(IS_TIM2_OC_MODE_OK(TIM2_OCMode));
      000067 6B 03            [ 1]  206 	ld	(0x03, sp), a
      000069 27 2A            [ 1]  207 	jreq	00104$
      00006B 7B 03            [ 1]  208 	ld	a, (0x03, sp)
      00006D A1 10            [ 1]  209 	cp	a, #0x10
      00006F 27 24            [ 1]  210 	jreq	00104$
                           000071   211 	Sstm8s_tim2$TIM2_OC1Init$39 ==.
      000071 7B 03            [ 1]  212 	ld	a, (0x03, sp)
      000073 A1 20            [ 1]  213 	cp	a, #0x20
      000075 27 1E            [ 1]  214 	jreq	00104$
                           000077   215 	Sstm8s_tim2$TIM2_OC1Init$40 ==.
      000077 7B 03            [ 1]  216 	ld	a, (0x03, sp)
      000079 A1 30            [ 1]  217 	cp	a, #0x30
      00007B 27 18            [ 1]  218 	jreq	00104$
                           00007D   219 	Sstm8s_tim2$TIM2_OC1Init$41 ==.
      00007D 7B 03            [ 1]  220 	ld	a, (0x03, sp)
      00007F A1 60            [ 1]  221 	cp	a, #0x60
      000081 27 12            [ 1]  222 	jreq	00104$
                           000083   223 	Sstm8s_tim2$TIM2_OC1Init$42 ==.
      000083 7B 03            [ 1]  224 	ld	a, (0x03, sp)
      000085 A1 70            [ 1]  225 	cp	a, #0x70
      000087 27 0C            [ 1]  226 	jreq	00104$
                           000089   227 	Sstm8s_tim2$TIM2_OC1Init$43 ==.
      000089 4B 72            [ 1]  228 	push	#0x72
                           00008B   229 	Sstm8s_tim2$TIM2_OC1Init$44 ==.
      00008B 5F               [ 1]  230 	clrw	x
      00008C 89               [ 2]  231 	pushw	x
                           00008D   232 	Sstm8s_tim2$TIM2_OC1Init$45 ==.
      00008D 4B 00            [ 1]  233 	push	#0x00
                           00008F   234 	Sstm8s_tim2$TIM2_OC1Init$46 ==.
      00008F AEr00r00         [ 2]  235 	ldw	x, #(___str_0+0)
      000092 CDr00r00         [ 4]  236 	call	_assert_failed
                           000095   237 	Sstm8s_tim2$TIM2_OC1Init$47 ==.
      000095                        238 00104$:
                           000095   239 	Sstm8s_tim2$TIM2_OC1Init$48 ==.
                                    240 ;	./STM8S_StdPeriph_Lib/Libraries/STM8S_StdPeriph_Driver/src/stm8s_tim2.c: 115: assert_param(IS_TIM2_OUTPUT_STATE_OK(TIM2_OutputState));
      000095 0D 06            [ 1]  241 	tnz	(0x06, sp)
      000097 27 12            [ 1]  242 	jreq	00121$
      000099 7B 06            [ 1]  243 	ld	a, (0x06, sp)
      00009B A1 11            [ 1]  244 	cp	a, #0x11
      00009D 27 0C            [ 1]  245 	jreq	00121$
                           00009F   246 	Sstm8s_tim2$TIM2_OC1Init$49 ==.
      00009F 4B 73            [ 1]  247 	push	#0x73
                           0000A1   248 	Sstm8s_tim2$TIM2_OC1Init$50 ==.
      0000A1 5F               [ 1]  249 	clrw	x
      0000A2 89               [ 2]  250 	pushw	x
                           0000A3   251 	Sstm8s_tim2$TIM2_OC1Init$51 ==.
      0000A3 4B 00            [ 1]  252 	push	#0x00
                           0000A5   253 	Sstm8s_tim2$TIM2_OC1Init$52 ==.
      0000A5 AEr00r00         [ 2]  254 	ldw	x, #(___str_0+0)
      0000A8 CDr00r00         [ 4]  255 	call	_assert_failed
                           0000AB   256 	Sstm8s_tim2$TIM2_OC1Init$53 ==.
      0000AB                        257 00121$:
                           0000AB   258 	Sstm8s_tim2$TIM2_OC1Init$54 ==.
                                    259 ;	./STM8S_StdPeriph_Lib/Libraries/STM8S_StdPeriph_Driver/src/stm8s_tim2.c: 116: assert_param(IS_TIM2_OC_POLARITY_OK(TIM2_OCPolarity));
      0000AB 0D 09            [ 1]  260 	tnz	(0x09, sp)
      0000AD 27 12            [ 1]  261 	jreq	00126$
      0000AF 7B 09            [ 1]  262 	ld	a, (0x09, sp)
      0000B1 A1 22            [ 1]  263 	cp	a, #0x22
      0000B3 27 0C            [ 1]  264 	jreq	00126$
                           0000B5   265 	Sstm8s_tim2$TIM2_OC1Init$55 ==.
      0000B5 4B 74            [ 1]  266 	push	#0x74
                           0000B7   267 	Sstm8s_tim2$TIM2_OC1Init$56 ==.
      0000B7 5F               [ 1]  268 	clrw	x
      0000B8 89               [ 2]  269 	pushw	x
                           0000B9   270 	Sstm8s_tim2$TIM2_OC1Init$57 ==.
      0000B9 4B 00            [ 1]  271 	push	#0x00
                           0000BB   272 	Sstm8s_tim2$TIM2_OC1Init$58 ==.
      0000BB AEr00r00         [ 2]  273 	ldw	x, #(___str_0+0)
      0000BE CDr00r00         [ 4]  274 	call	_assert_failed
                           0000C1   275 	Sstm8s_tim2$TIM2_OC1Init$59 ==.
      0000C1                        276 00126$:
                           0000C1   277 	Sstm8s_tim2$TIM2_OC1Init$60 ==.
                                    278 ;	./STM8S_StdPeriph_Lib/Libraries/STM8S_StdPeriph_Driver/src/stm8s_tim2.c: 119: TIM2->CCER1 &= (uint8_t)(~( TIM2_CCER1_CC1E | TIM2_CCER1_CC1P));
      0000C1 C6 53 0A         [ 1]  279 	ld	a, 0x530a
      0000C4 A4 FC            [ 1]  280 	and	a, #0xfc
      0000C6 C7 53 0A         [ 1]  281 	ld	0x530a, a
                           0000C9   282 	Sstm8s_tim2$TIM2_OC1Init$61 ==.
                                    283 ;	./STM8S_StdPeriph_Lib/Libraries/STM8S_StdPeriph_Driver/src/stm8s_tim2.c: 121: TIM2->CCER1 |= (uint8_t)((uint8_t)(TIM2_OutputState & TIM2_CCER1_CC1E ) | 
      0000C9 C6 53 0A         [ 1]  284 	ld	a, 0x530a
      0000CC 6B 01            [ 1]  285 	ld	(0x01, sp), a
      0000CE 7B 06            [ 1]  286 	ld	a, (0x06, sp)
      0000D0 A4 01            [ 1]  287 	and	a, #0x01
      0000D2 6B 02            [ 1]  288 	ld	(0x02, sp), a
                           0000D4   289 	Sstm8s_tim2$TIM2_OC1Init$62 ==.
                                    290 ;	./STM8S_StdPeriph_Lib/Libraries/STM8S_StdPeriph_Driver/src/stm8s_tim2.c: 122: (uint8_t)(TIM2_OCPolarity & TIM2_CCER1_CC1P));
      0000D4 7B 09            [ 1]  291 	ld	a, (0x09, sp)
      0000D6 A4 02            [ 1]  292 	and	a, #0x02
      0000D8 1A 02            [ 1]  293 	or	a, (0x02, sp)
      0000DA 1A 01            [ 1]  294 	or	a, (0x01, sp)
      0000DC C7 53 0A         [ 1]  295 	ld	0x530a, a
                           0000DF   296 	Sstm8s_tim2$TIM2_OC1Init$63 ==.
                                    297 ;	./STM8S_StdPeriph_Lib/Libraries/STM8S_StdPeriph_Driver/src/stm8s_tim2.c: 125: TIM2->CCMR1 = (uint8_t)((uint8_t)(TIM2->CCMR1 & (uint8_t)(~TIM2_CCMR_OCM)) |
      0000DF C6 53 07         [ 1]  298 	ld	a, 0x5307
      0000E2 A4 8F            [ 1]  299 	and	a, #0x8f
                           0000E4   300 	Sstm8s_tim2$TIM2_OC1Init$64 ==.
                                    301 ;	./STM8S_StdPeriph_Lib/Libraries/STM8S_StdPeriph_Driver/src/stm8s_tim2.c: 126: (uint8_t)TIM2_OCMode);
      0000E4 1A 03            [ 1]  302 	or	a, (0x03, sp)
      0000E6 C7 53 07         [ 1]  303 	ld	0x5307, a
                           0000E9   304 	Sstm8s_tim2$TIM2_OC1Init$65 ==.
                                    305 ;	./STM8S_StdPeriph_Lib/Libraries/STM8S_StdPeriph_Driver/src/stm8s_tim2.c: 129: TIM2->CCR1H = (uint8_t)(TIM2_Pulse >> 8);
      0000E9 7B 07            [ 1]  306 	ld	a, (0x07, sp)
      0000EB C7 53 11         [ 1]  307 	ld	0x5311, a
                           0000EE   308 	Sstm8s_tim2$TIM2_OC1Init$66 ==.
                                    309 ;	./STM8S_StdPeriph_Lib/Libraries/STM8S_StdPeriph_Driver/src/stm8s_tim2.c: 130: TIM2->CCR1L = (uint8_t)(TIM2_Pulse);
      0000EE 7B 08            [ 1]  310 	ld	a, (0x08, sp)
      0000F0 C7 53 12         [ 1]  311 	ld	0x5312, a
                           0000F3   312 	Sstm8s_tim2$TIM2_OC1Init$67 ==.
                                    313 ;	./STM8S_StdPeriph_Lib/Libraries/STM8S_StdPeriph_Driver/src/stm8s_tim2.c: 131: }
      0000F3 1E 04            [ 2]  314 	ldw	x, (4, sp)
      0000F5 5B 09            [ 2]  315 	addw	sp, #9
                           0000F7   316 	Sstm8s_tim2$TIM2_OC1Init$68 ==.
      0000F7 FC               [ 2]  317 	jp	(x)
                           0000F8   318 	Sstm8s_tim2$TIM2_OC1Init$69 ==.
                           0000F8   319 	Sstm8s_tim2$TIM2_OC2Init$70 ==.
                                    320 ;	./STM8S_StdPeriph_Lib/Libraries/STM8S_StdPeriph_Driver/src/stm8s_tim2.c: 142: void TIM2_OC2Init(TIM2_OCMode_TypeDef TIM2_OCMode,
                                    321 ;	-----------------------------------------
                                    322 ;	 function TIM2_OC2Init
                                    323 ;	-----------------------------------------
      0000F8                        324 _TIM2_OC2Init:
                           0000F8   325 	Sstm8s_tim2$TIM2_OC2Init$71 ==.
      0000F8 52 03            [ 2]  326 	sub	sp, #3
                           0000FA   327 	Sstm8s_tim2$TIM2_OC2Init$72 ==.
                           0000FA   328 	Sstm8s_tim2$TIM2_OC2Init$73 ==.
                                    329 ;	./STM8S_StdPeriph_Lib/Libraries/STM8S_StdPeriph_Driver/src/stm8s_tim2.c: 148: assert_param(IS_TIM2_OC_MODE_OK(TIM2_OCMode));
      0000FA 6B 03            [ 1]  330 	ld	(0x03, sp), a
      0000FC 27 2A            [ 1]  331 	jreq	00104$
      0000FE 7B 03            [ 1]  332 	ld	a, (0x03, sp)
      000100 A1 10            [ 1]  333 	cp	a, #0x10
      000102 27 24            [ 1]  334 	jreq	00104$
                           000104   335 	Sstm8s_tim2$TIM2_OC2Init$74 ==.
      000104 7B 03            [ 1]  336 	ld	a, (0x03, sp)
      000106 A1 20            [ 1]  337 	cp	a, #0x20
      000108 27 1E            [ 1]  338 	jreq	00104$
                           00010A   339 	Sstm8s_tim2$TIM2_OC2Init$75 ==.
      00010A 7B 03            [ 1]  340 	ld	a, (0x03, sp)
      00010C A1 30            [ 1]  341 	cp	a, #0x30
      00010E 27 18            [ 1]  342 	jreq	00104$
                           000110   343 	Sstm8s_tim2$TIM2_OC2Init$76 ==.
      000110 7B 03            [ 1]  344 	ld	a, (0x03, sp)
      000112 A1 60            [ 1]  345 	cp	a, #0x60
      000114 27 12            [ 1]  346 	jreq	00104$
                           000116   347 	Sstm8s_tim2$TIM2_OC2Init$77 ==.
      000116 7B 03            [ 1]  348 	ld	a, (0x03, sp)
      000118 A1 70            [ 1]  349 	cp	a, #0x70
      00011A 27 0C            [ 1]  350 	jreq	00104$
                           00011C   351 	Sstm8s_tim2$TIM2_OC2Init$78 ==.
      00011C 4B 94            [ 1]  352 	push	#0x94
                           00011E   353 	Sstm8s_tim2$TIM2_OC2Init$79 ==.
      00011E 5F               [ 1]  354 	clrw	x
      00011F 89               [ 2]  355 	pushw	x
                           000120   356 	Sstm8s_tim2$TIM2_OC2Init$80 ==.
      000120 4B 00            [ 1]  357 	push	#0x00
                           000122   358 	Sstm8s_tim2$TIM2_OC2Init$81 ==.
      000122 AEr00r00         [ 2]  359 	ldw	x, #(___str_0+0)
      000125 CDr00r00         [ 4]  360 	call	_assert_failed
                           000128   361 	Sstm8s_tim2$TIM2_OC2Init$82 ==.
      000128                        362 00104$:
                           000128   363 	Sstm8s_tim2$TIM2_OC2Init$83 ==.
                                    364 ;	./STM8S_StdPeriph_Lib/Libraries/STM8S_StdPeriph_Driver/src/stm8s_tim2.c: 149: assert_param(IS_TIM2_OUTPUT_STATE_OK(TIM2_OutputState));
      000128 0D 06            [ 1]  365 	tnz	(0x06, sp)
      00012A 27 12            [ 1]  366 	jreq	00121$
      00012C 7B 06            [ 1]  367 	ld	a, (0x06, sp)
      00012E A1 11            [ 1]  368 	cp	a, #0x11
      000130 27 0C            [ 1]  369 	jreq	00121$
                           000132   370 	Sstm8s_tim2$TIM2_OC2Init$84 ==.
      000132 4B 95            [ 1]  371 	push	#0x95
                           000134   372 	Sstm8s_tim2$TIM2_OC2Init$85 ==.
      000134 5F               [ 1]  373 	clrw	x
      000135 89               [ 2]  374 	pushw	x
                           000136   375 	Sstm8s_tim2$TIM2_OC2Init$86 ==.
      000136 4B 00            [ 1]  376 	push	#0x00
                           000138   377 	Sstm8s_tim2$TIM2_OC2Init$87 ==.
      000138 AEr00r00         [ 2]  378 	ldw	x, #(___str_0+0)
      00013B CDr00r00         [ 4]  379 	call	_assert_failed
                           00013E   380 	Sstm8s_tim2$TIM2_OC2Init$88 ==.
      00013E                        381 00121$:
                           00013E   382 	Sstm8s_tim2$TIM2_OC2Init$89 ==.
                                    383 ;	./STM8S_StdPeriph_Lib/Libraries/STM8S_StdPeriph_Driver/src/stm8s_tim2.c: 150: assert_param(IS_TIM2_OC_POLARITY_OK(TIM2_OCPolarity));
      00013E 0D 09            [ 1]  384 	tnz	(0x09, sp)
      000140 27 12            [ 1]  385 	jreq	00126$
      000142 7B 09            [ 1]  386 	ld	a, (0x09, sp)
      000144 A1 22            [ 1]  387 	cp	a, #0x22
      000146 27 0C            [ 1]  388 	jreq	00126$
                           000148   389 	Sstm8s_tim2$TIM2_OC2Init$90 ==.
      000148 4B 96            [ 1]  390 	push	#0x96
                           00014A   391 	Sstm8s_tim2$TIM2_OC2Init$91 ==.
      00014A 5F               [ 1]  392 	clrw	x
      00014B 89               [ 2]  393 	pushw	x
                           00014C   394 	Sstm8s_tim2$TIM2_OC2Init$92 ==.
      00014C 4B 00            [ 1]  395 	push	#0x00
                           00014E   396 	Sstm8s_tim2$TIM2_OC2Init$93 ==.
      00014E AEr00r00         [ 2]  397 	ldw	x, #(___str_0+0)
      000151 CDr00r00         [ 4]  398 	call	_assert_failed
                           000154   399 	Sstm8s_tim2$TIM2_OC2Init$94 ==.
      000154                        400 00126$:
                           000154   401 	Sstm8s_tim2$TIM2_OC2Init$95 ==.
                                    402 ;	./STM8S_StdPeriph_Lib/Libraries/STM8S_StdPeriph_Driver/src/stm8s_tim2.c: 154: TIM2->CCER1 &= (uint8_t)(~( TIM2_CCER1_CC2E |  TIM2_CCER1_CC2P ));
      000154 C6 53 0A         [ 1]  403 	ld	a, 0x530a
      000157 A4 CF            [ 1]  404 	and	a, #0xcf
      000159 C7 53 0A         [ 1]  405 	ld	0x530a, a
                           00015C   406 	Sstm8s_tim2$TIM2_OC2Init$96 ==.
                                    407 ;	./STM8S_StdPeriph_Lib/Libraries/STM8S_StdPeriph_Driver/src/stm8s_tim2.c: 156: TIM2->CCER1 |= (uint8_t)((uint8_t)(TIM2_OutputState  & TIM2_CCER1_CC2E ) |
      00015C C6 53 0A         [ 1]  408 	ld	a, 0x530a
      00015F 6B 01            [ 1]  409 	ld	(0x01, sp), a
      000161 7B 06            [ 1]  410 	ld	a, (0x06, sp)
      000163 A4 10            [ 1]  411 	and	a, #0x10
      000165 6B 02            [ 1]  412 	ld	(0x02, sp), a
                           000167   413 	Sstm8s_tim2$TIM2_OC2Init$97 ==.
                                    414 ;	./STM8S_StdPeriph_Lib/Libraries/STM8S_StdPeriph_Driver/src/stm8s_tim2.c: 157: (uint8_t)(TIM2_OCPolarity & TIM2_CCER1_CC2P));
      000167 7B 09            [ 1]  415 	ld	a, (0x09, sp)
      000169 A4 20            [ 1]  416 	and	a, #0x20
      00016B 1A 02            [ 1]  417 	or	a, (0x02, sp)
      00016D 1A 01            [ 1]  418 	or	a, (0x01, sp)
      00016F C7 53 0A         [ 1]  419 	ld	0x530a, a
                           000172   420 	Sstm8s_tim2$TIM2_OC2Init$98 ==.
                                    421 ;	./STM8S_StdPeriph_Lib/Libraries/STM8S_StdPeriph_Driver/src/stm8s_tim2.c: 161: TIM2->CCMR2 = (uint8_t)((uint8_t)(TIM2->CCMR2 & (uint8_t)(~TIM2_CCMR_OCM)) | 
      000172 C6 53 08         [ 1]  422 	ld	a, 0x5308
      000175 A4 8F            [ 1]  423 	and	a, #0x8f
                           000177   424 	Sstm8s_tim2$TIM2_OC2Init$99 ==.
                                    425 ;	./STM8S_StdPeriph_Lib/Libraries/STM8S_StdPeriph_Driver/src/stm8s_tim2.c: 162: (uint8_t)TIM2_OCMode);
      000177 1A 03            [ 1]  426 	or	a, (0x03, sp)
      000179 C7 53 08         [ 1]  427 	ld	0x5308, a
                           00017C   428 	Sstm8s_tim2$TIM2_OC2Init$100 ==.
                                    429 ;	./STM8S_StdPeriph_Lib/Libraries/STM8S_StdPeriph_Driver/src/stm8s_tim2.c: 166: TIM2->CCR2H = (uint8_t)(TIM2_Pulse >> 8);
      00017C 7B 07            [ 1]  430 	ld	a, (0x07, sp)
      00017E C7 53 13         [ 1]  431 	ld	0x5313, a
                           000181   432 	Sstm8s_tim2$TIM2_OC2Init$101 ==.
                                    433 ;	./STM8S_StdPeriph_Lib/Libraries/STM8S_StdPeriph_Driver/src/stm8s_tim2.c: 167: TIM2->CCR2L = (uint8_t)(TIM2_Pulse);
      000181 7B 08            [ 1]  434 	ld	a, (0x08, sp)
      000183 C7 53 14         [ 1]  435 	ld	0x5314, a
                           000186   436 	Sstm8s_tim2$TIM2_OC2Init$102 ==.
                                    437 ;	./STM8S_StdPeriph_Lib/Libraries/STM8S_StdPeriph_Driver/src/stm8s_tim2.c: 168: }
      000186 1E 04            [ 2]  438 	ldw	x, (4, sp)
      000188 5B 09            [ 2]  439 	addw	sp, #9
                           00018A   440 	Sstm8s_tim2$TIM2_OC2Init$103 ==.
      00018A FC               [ 2]  441 	jp	(x)
                           00018B   442 	Sstm8s_tim2$TIM2_OC2Init$104 ==.
                           00018B   443 	Sstm8s_tim2$TIM2_OC3Init$105 ==.
                                    444 ;	./STM8S_StdPeriph_Lib/Libraries/STM8S_StdPeriph_Driver/src/stm8s_tim2.c: 179: void TIM2_OC3Init(TIM2_OCMode_TypeDef TIM2_OCMode,
                                    445 ;	-----------------------------------------
                                    446 ;	 function TIM2_OC3Init
                                    447 ;	-----------------------------------------
      00018B                        448 _TIM2_OC3Init:
                           00018B   449 	Sstm8s_tim2$TIM2_OC3Init$106 ==.
      00018B 52 03            [ 2]  450 	sub	sp, #3
                           00018D   451 	Sstm8s_tim2$TIM2_OC3Init$107 ==.
                           00018D   452 	Sstm8s_tim2$TIM2_OC3Init$108 ==.
                                    453 ;	./STM8S_StdPeriph_Lib/Libraries/STM8S_StdPeriph_Driver/src/stm8s_tim2.c: 185: assert_param(IS_TIM2_OC_MODE_OK(TIM2_OCMode));
      00018D 6B 03            [ 1]  454 	ld	(0x03, sp), a
      00018F 27 2A            [ 1]  455 	jreq	00104$
      000191 7B 03            [ 1]  456 	ld	a, (0x03, sp)
      000193 A1 10            [ 1]  457 	cp	a, #0x10
      000195 27 24            [ 1]  458 	jreq	00104$
                           000197   459 	Sstm8s_tim2$TIM2_OC3Init$109 ==.
      000197 7B 03            [ 1]  460 	ld	a, (0x03, sp)
      000199 A1 20            [ 1]  461 	cp	a, #0x20
      00019B 27 1E            [ 1]  462 	jreq	00104$
                           00019D   463 	Sstm8s_tim2$TIM2_OC3Init$110 ==.
      00019D 7B 03            [ 1]  464 	ld	a, (0x03, sp)
      00019F A1 30            [ 1]  465 	cp	a, #0x30
      0001A1 27 18            [ 1]  466 	jreq	00104$
                           0001A3   467 	Sstm8s_tim2$TIM2_OC3Init$111 ==.
      0001A3 7B 03            [ 1]  468 	ld	a, (0x03, sp)
      0001A5 A1 60            [ 1]  469 	cp	a, #0x60
      0001A7 27 12            [ 1]  470 	jreq	00104$
                           0001A9   471 	Sstm8s_tim2$TIM2_OC3Init$112 ==.
      0001A9 7B 03            [ 1]  472 	ld	a, (0x03, sp)
      0001AB A1 70            [ 1]  473 	cp	a, #0x70
      0001AD 27 0C            [ 1]  474 	jreq	00104$
                           0001AF   475 	Sstm8s_tim2$TIM2_OC3Init$113 ==.
      0001AF 4B B9            [ 1]  476 	push	#0xb9
                           0001B1   477 	Sstm8s_tim2$TIM2_OC3Init$114 ==.
      0001B1 5F               [ 1]  478 	clrw	x
      0001B2 89               [ 2]  479 	pushw	x
                           0001B3   480 	Sstm8s_tim2$TIM2_OC3Init$115 ==.
      0001B3 4B 00            [ 1]  481 	push	#0x00
                           0001B5   482 	Sstm8s_tim2$TIM2_OC3Init$116 ==.
      0001B5 AEr00r00         [ 2]  483 	ldw	x, #(___str_0+0)
      0001B8 CDr00r00         [ 4]  484 	call	_assert_failed
                           0001BB   485 	Sstm8s_tim2$TIM2_OC3Init$117 ==.
      0001BB                        486 00104$:
                           0001BB   487 	Sstm8s_tim2$TIM2_OC3Init$118 ==.
                                    488 ;	./STM8S_StdPeriph_Lib/Libraries/STM8S_StdPeriph_Driver/src/stm8s_tim2.c: 186: assert_param(IS_TIM2_OUTPUT_STATE_OK(TIM2_OutputState));
      0001BB 0D 06            [ 1]  489 	tnz	(0x06, sp)
      0001BD 27 12            [ 1]  490 	jreq	00121$
      0001BF 7B 06            [ 1]  491 	ld	a, (0x06, sp)
      0001C1 A1 11            [ 1]  492 	cp	a, #0x11
      0001C3 27 0C            [ 1]  493 	jreq	00121$
                           0001C5   494 	Sstm8s_tim2$TIM2_OC3Init$119 ==.
      0001C5 4B BA            [ 1]  495 	push	#0xba
                           0001C7   496 	Sstm8s_tim2$TIM2_OC3Init$120 ==.
      0001C7 5F               [ 1]  497 	clrw	x
      0001C8 89               [ 2]  498 	pushw	x
                           0001C9   499 	Sstm8s_tim2$TIM2_OC3Init$121 ==.
      0001C9 4B 00            [ 1]  500 	push	#0x00
                           0001CB   501 	Sstm8s_tim2$TIM2_OC3Init$122 ==.
      0001CB AEr00r00         [ 2]  502 	ldw	x, #(___str_0+0)
      0001CE CDr00r00         [ 4]  503 	call	_assert_failed
                           0001D1   504 	Sstm8s_tim2$TIM2_OC3Init$123 ==.
      0001D1                        505 00121$:
                           0001D1   506 	Sstm8s_tim2$TIM2_OC3Init$124 ==.
                                    507 ;	./STM8S_StdPeriph_Lib/Libraries/STM8S_StdPeriph_Driver/src/stm8s_tim2.c: 187: assert_param(IS_TIM2_OC_POLARITY_OK(TIM2_OCPolarity));
      0001D1 0D 09            [ 1]  508 	tnz	(0x09, sp)
      0001D3 27 12            [ 1]  509 	jreq	00126$
      0001D5 7B 09            [ 1]  510 	ld	a, (0x09, sp)
      0001D7 A1 22            [ 1]  511 	cp	a, #0x22
      0001D9 27 0C            [ 1]  512 	jreq	00126$
                           0001DB   513 	Sstm8s_tim2$TIM2_OC3Init$125 ==.
      0001DB 4B BB            [ 1]  514 	push	#0xbb
                           0001DD   515 	Sstm8s_tim2$TIM2_OC3Init$126 ==.
      0001DD 5F               [ 1]  516 	clrw	x
      0001DE 89               [ 2]  517 	pushw	x
                           0001DF   518 	Sstm8s_tim2$TIM2_OC3Init$127 ==.
      0001DF 4B 00            [ 1]  519 	push	#0x00
                           0001E1   520 	Sstm8s_tim2$TIM2_OC3Init$128 ==.
      0001E1 AEr00r00         [ 2]  521 	ldw	x, #(___str_0+0)
      0001E4 CDr00r00         [ 4]  522 	call	_assert_failed
                           0001E7   523 	Sstm8s_tim2$TIM2_OC3Init$129 ==.
      0001E7                        524 00126$:
                           0001E7   525 	Sstm8s_tim2$TIM2_OC3Init$130 ==.
                                    526 ;	./STM8S_StdPeriph_Lib/Libraries/STM8S_StdPeriph_Driver/src/stm8s_tim2.c: 189: TIM2->CCER2 &= (uint8_t)(~( TIM2_CCER2_CC3E  | TIM2_CCER2_CC3P));
      0001E7 C6 53 0B         [ 1]  527 	ld	a, 0x530b
      0001EA A4 FC            [ 1]  528 	and	a, #0xfc
      0001EC C7 53 0B         [ 1]  529 	ld	0x530b, a
                           0001EF   530 	Sstm8s_tim2$TIM2_OC3Init$131 ==.
                                    531 ;	./STM8S_StdPeriph_Lib/Libraries/STM8S_StdPeriph_Driver/src/stm8s_tim2.c: 191: TIM2->CCER2 |= (uint8_t)((uint8_t)(TIM2_OutputState & TIM2_CCER2_CC3E) |  
      0001EF C6 53 0B         [ 1]  532 	ld	a, 0x530b
      0001F2 6B 01            [ 1]  533 	ld	(0x01, sp), a
      0001F4 7B 06            [ 1]  534 	ld	a, (0x06, sp)
      0001F6 A4 01            [ 1]  535 	and	a, #0x01
      0001F8 6B 02            [ 1]  536 	ld	(0x02, sp), a
                           0001FA   537 	Sstm8s_tim2$TIM2_OC3Init$132 ==.
                                    538 ;	./STM8S_StdPeriph_Lib/Libraries/STM8S_StdPeriph_Driver/src/stm8s_tim2.c: 192: (uint8_t)(TIM2_OCPolarity & TIM2_CCER2_CC3P));
      0001FA 7B 09            [ 1]  539 	ld	a, (0x09, sp)
      0001FC A4 02            [ 1]  540 	and	a, #0x02
      0001FE 1A 02            [ 1]  541 	or	a, (0x02, sp)
      000200 1A 01            [ 1]  542 	or	a, (0x01, sp)
      000202 C7 53 0B         [ 1]  543 	ld	0x530b, a
                           000205   544 	Sstm8s_tim2$TIM2_OC3Init$133 ==.
                                    545 ;	./STM8S_StdPeriph_Lib/Libraries/STM8S_StdPeriph_Driver/src/stm8s_tim2.c: 195: TIM2->CCMR3 = (uint8_t)((uint8_t)(TIM2->CCMR3 & (uint8_t)(~TIM2_CCMR_OCM)) |
      000205 C6 53 09         [ 1]  546 	ld	a, 0x5309
      000208 A4 8F            [ 1]  547 	and	a, #0x8f
                           00020A   548 	Sstm8s_tim2$TIM2_OC3Init$134 ==.
                                    549 ;	./STM8S_StdPeriph_Lib/Libraries/STM8S_StdPeriph_Driver/src/stm8s_tim2.c: 196: (uint8_t)TIM2_OCMode);
      00020A 1A 03            [ 1]  550 	or	a, (0x03, sp)
      00020C C7 53 09         [ 1]  551 	ld	0x5309, a
                           00020F   552 	Sstm8s_tim2$TIM2_OC3Init$135 ==.
                                    553 ;	./STM8S_StdPeriph_Lib/Libraries/STM8S_StdPeriph_Driver/src/stm8s_tim2.c: 199: TIM2->CCR3H = (uint8_t)(TIM2_Pulse >> 8);
      00020F 7B 07            [ 1]  554 	ld	a, (0x07, sp)
      000211 C7 53 15         [ 1]  555 	ld	0x5315, a
                           000214   556 	Sstm8s_tim2$TIM2_OC3Init$136 ==.
                                    557 ;	./STM8S_StdPeriph_Lib/Libraries/STM8S_StdPeriph_Driver/src/stm8s_tim2.c: 200: TIM2->CCR3L = (uint8_t)(TIM2_Pulse);
      000214 7B 08            [ 1]  558 	ld	a, (0x08, sp)
      000216 C7 53 16         [ 1]  559 	ld	0x5316, a
                           000219   560 	Sstm8s_tim2$TIM2_OC3Init$137 ==.
                                    561 ;	./STM8S_StdPeriph_Lib/Libraries/STM8S_StdPeriph_Driver/src/stm8s_tim2.c: 201: }
      000219 1E 04            [ 2]  562 	ldw	x, (4, sp)
      00021B 5B 09            [ 2]  563 	addw	sp, #9
                           00021D   564 	Sstm8s_tim2$TIM2_OC3Init$138 ==.
      00021D FC               [ 2]  565 	jp	(x)
                           00021E   566 	Sstm8s_tim2$TIM2_OC3Init$139 ==.
                           00021E   567 	Sstm8s_tim2$TIM2_ICInit$140 ==.
                                    568 ;	./STM8S_StdPeriph_Lib/Libraries/STM8S_StdPeriph_Driver/src/stm8s_tim2.c: 212: void TIM2_ICInit(TIM2_Channel_TypeDef TIM2_Channel,
                                    569 ;	-----------------------------------------
                                    570 ;	 function TIM2_ICInit
                                    571 ;	-----------------------------------------
      00021E                        572 _TIM2_ICInit:
                           00021E   573 	Sstm8s_tim2$TIM2_ICInit$141 ==.
      00021E 89               [ 2]  574 	pushw	x
                           00021F   575 	Sstm8s_tim2$TIM2_ICInit$142 ==.
                           00021F   576 	Sstm8s_tim2$TIM2_ICInit$143 ==.
                                    577 ;	./STM8S_StdPeriph_Lib/Libraries/STM8S_StdPeriph_Driver/src/stm8s_tim2.c: 219: assert_param(IS_TIM2_CHANNEL_OK(TIM2_Channel));
      00021F 6B 02            [ 1]  578 	ld	(0x02, sp), a
      000221 4A               [ 1]  579 	dec	a
      000222 26 05            [ 1]  580 	jrne	00219$
      000224 A6 01            [ 1]  581 	ld	a, #0x01
      000226 6B 01            [ 1]  582 	ld	(0x01, sp), a
      000228 C5                     583 	.byte 0xc5
      000229                        584 00219$:
      000229 0F 01            [ 1]  585 	clr	(0x01, sp)
      00022B                        586 00220$:
                           00022B   587 	Sstm8s_tim2$TIM2_ICInit$144 ==.
      00022B 0D 02            [ 1]  588 	tnz	(0x02, sp)
      00022D 27 16            [ 1]  589 	jreq	00110$
      00022F 0D 01            [ 1]  590 	tnz	(0x01, sp)
      000231 26 12            [ 1]  591 	jrne	00110$
      000233 7B 02            [ 1]  592 	ld	a, (0x02, sp)
      000235 A1 02            [ 1]  593 	cp	a, #0x02
      000237 27 0C            [ 1]  594 	jreq	00110$
                           000239   595 	Sstm8s_tim2$TIM2_ICInit$145 ==.
      000239 4B DB            [ 1]  596 	push	#0xdb
                           00023B   597 	Sstm8s_tim2$TIM2_ICInit$146 ==.
      00023B 5F               [ 1]  598 	clrw	x
      00023C 89               [ 2]  599 	pushw	x
                           00023D   600 	Sstm8s_tim2$TIM2_ICInit$147 ==.
      00023D 4B 00            [ 1]  601 	push	#0x00
                           00023F   602 	Sstm8s_tim2$TIM2_ICInit$148 ==.
      00023F AEr00r00         [ 2]  603 	ldw	x, #(___str_0+0)
      000242 CDr00r00         [ 4]  604 	call	_assert_failed
                           000245   605 	Sstm8s_tim2$TIM2_ICInit$149 ==.
      000245                        606 00110$:
                           000245   607 	Sstm8s_tim2$TIM2_ICInit$150 ==.
                                    608 ;	./STM8S_StdPeriph_Lib/Libraries/STM8S_StdPeriph_Driver/src/stm8s_tim2.c: 220: assert_param(IS_TIM2_IC_POLARITY_OK(TIM2_ICPolarity));
      000245 0D 05            [ 1]  609 	tnz	(0x05, sp)
      000247 27 12            [ 1]  610 	jreq	00118$
      000249 7B 05            [ 1]  611 	ld	a, (0x05, sp)
      00024B A1 44            [ 1]  612 	cp	a, #0x44
      00024D 27 0C            [ 1]  613 	jreq	00118$
                           00024F   614 	Sstm8s_tim2$TIM2_ICInit$151 ==.
      00024F 4B DC            [ 1]  615 	push	#0xdc
                           000251   616 	Sstm8s_tim2$TIM2_ICInit$152 ==.
      000251 5F               [ 1]  617 	clrw	x
      000252 89               [ 2]  618 	pushw	x
                           000253   619 	Sstm8s_tim2$TIM2_ICInit$153 ==.
      000253 4B 00            [ 1]  620 	push	#0x00
                           000255   621 	Sstm8s_tim2$TIM2_ICInit$154 ==.
      000255 AEr00r00         [ 2]  622 	ldw	x, #(___str_0+0)
      000258 CDr00r00         [ 4]  623 	call	_assert_failed
                           00025B   624 	Sstm8s_tim2$TIM2_ICInit$155 ==.
      00025B                        625 00118$:
                           00025B   626 	Sstm8s_tim2$TIM2_ICInit$156 ==.
                                    627 ;	./STM8S_StdPeriph_Lib/Libraries/STM8S_StdPeriph_Driver/src/stm8s_tim2.c: 221: assert_param(IS_TIM2_IC_SELECTION_OK(TIM2_ICSelection));
      00025B 7B 06            [ 1]  628 	ld	a, (0x06, sp)
      00025D 4A               [ 1]  629 	dec	a
      00025E 27 18            [ 1]  630 	jreq	00123$
                           000260   631 	Sstm8s_tim2$TIM2_ICInit$157 ==.
      000260 7B 06            [ 1]  632 	ld	a, (0x06, sp)
      000262 A1 02            [ 1]  633 	cp	a, #0x02
      000264 27 12            [ 1]  634 	jreq	00123$
                           000266   635 	Sstm8s_tim2$TIM2_ICInit$158 ==.
      000266 7B 06            [ 1]  636 	ld	a, (0x06, sp)
      000268 A1 03            [ 1]  637 	cp	a, #0x03
      00026A 27 0C            [ 1]  638 	jreq	00123$
                           00026C   639 	Sstm8s_tim2$TIM2_ICInit$159 ==.
      00026C 4B DD            [ 1]  640 	push	#0xdd
                           00026E   641 	Sstm8s_tim2$TIM2_ICInit$160 ==.
      00026E 5F               [ 1]  642 	clrw	x
      00026F 89               [ 2]  643 	pushw	x
                           000270   644 	Sstm8s_tim2$TIM2_ICInit$161 ==.
      000270 4B 00            [ 1]  645 	push	#0x00
                           000272   646 	Sstm8s_tim2$TIM2_ICInit$162 ==.
      000272 AEr00r00         [ 2]  647 	ldw	x, #(___str_0+0)
      000275 CDr00r00         [ 4]  648 	call	_assert_failed
                           000278   649 	Sstm8s_tim2$TIM2_ICInit$163 ==.
      000278                        650 00123$:
                           000278   651 	Sstm8s_tim2$TIM2_ICInit$164 ==.
                                    652 ;	./STM8S_StdPeriph_Lib/Libraries/STM8S_StdPeriph_Driver/src/stm8s_tim2.c: 222: assert_param(IS_TIM2_IC_PRESCALER_OK(TIM2_ICPrescaler));
      000278 0D 07            [ 1]  653 	tnz	(0x07, sp)
      00027A 27 1E            [ 1]  654 	jreq	00131$
      00027C 7B 07            [ 1]  655 	ld	a, (0x07, sp)
      00027E A1 04            [ 1]  656 	cp	a, #0x04
      000280 27 18            [ 1]  657 	jreq	00131$
                           000282   658 	Sstm8s_tim2$TIM2_ICInit$165 ==.
      000282 7B 07            [ 1]  659 	ld	a, (0x07, sp)
      000284 A1 08            [ 1]  660 	cp	a, #0x08
      000286 27 12            [ 1]  661 	jreq	00131$
                           000288   662 	Sstm8s_tim2$TIM2_ICInit$166 ==.
      000288 7B 07            [ 1]  663 	ld	a, (0x07, sp)
      00028A A1 0C            [ 1]  664 	cp	a, #0x0c
      00028C 27 0C            [ 1]  665 	jreq	00131$
                           00028E   666 	Sstm8s_tim2$TIM2_ICInit$167 ==.
      00028E 4B DE            [ 1]  667 	push	#0xde
                           000290   668 	Sstm8s_tim2$TIM2_ICInit$168 ==.
      000290 5F               [ 1]  669 	clrw	x
      000291 89               [ 2]  670 	pushw	x
                           000292   671 	Sstm8s_tim2$TIM2_ICInit$169 ==.
      000292 4B 00            [ 1]  672 	push	#0x00
                           000294   673 	Sstm8s_tim2$TIM2_ICInit$170 ==.
      000294 AEr00r00         [ 2]  674 	ldw	x, #(___str_0+0)
      000297 CDr00r00         [ 4]  675 	call	_assert_failed
                           00029A   676 	Sstm8s_tim2$TIM2_ICInit$171 ==.
      00029A                        677 00131$:
                           00029A   678 	Sstm8s_tim2$TIM2_ICInit$172 ==.
                                    679 ;	./STM8S_StdPeriph_Lib/Libraries/STM8S_StdPeriph_Driver/src/stm8s_tim2.c: 223: assert_param(IS_TIM2_IC_FILTER_OK(TIM2_ICFilter));
      00029A 7B 08            [ 1]  680 	ld	a, (0x08, sp)
      00029C A1 0F            [ 1]  681 	cp	a, #0x0f
      00029E 23 0C            [ 2]  682 	jrule	00142$
      0002A0 4B DF            [ 1]  683 	push	#0xdf
                           0002A2   684 	Sstm8s_tim2$TIM2_ICInit$173 ==.
      0002A2 5F               [ 1]  685 	clrw	x
      0002A3 89               [ 2]  686 	pushw	x
                           0002A4   687 	Sstm8s_tim2$TIM2_ICInit$174 ==.
      0002A4 4B 00            [ 1]  688 	push	#0x00
                           0002A6   689 	Sstm8s_tim2$TIM2_ICInit$175 ==.
      0002A6 AEr00r00         [ 2]  690 	ldw	x, #(___str_0+0)
      0002A9 CDr00r00         [ 4]  691 	call	_assert_failed
                           0002AC   692 	Sstm8s_tim2$TIM2_ICInit$176 ==.
      0002AC                        693 00142$:
                           0002AC   694 	Sstm8s_tim2$TIM2_ICInit$177 ==.
                                    695 ;	./STM8S_StdPeriph_Lib/Libraries/STM8S_StdPeriph_Driver/src/stm8s_tim2.c: 225: if (TIM2_Channel == TIM2_CHANNEL_1)
      0002AC 0D 02            [ 1]  696 	tnz	(0x02, sp)
      0002AE 26 12            [ 1]  697 	jrne	00105$
                           0002B0   698 	Sstm8s_tim2$TIM2_ICInit$178 ==.
                           0002B0   699 	Sstm8s_tim2$TIM2_ICInit$179 ==.
                                    700 ;	./STM8S_StdPeriph_Lib/Libraries/STM8S_StdPeriph_Driver/src/stm8s_tim2.c: 228: TI1_Config((uint8_t)TIM2_ICPolarity,
      0002B0 7B 08            [ 1]  701 	ld	a, (0x08, sp)
      0002B2 88               [ 1]  702 	push	a
                           0002B3   703 	Sstm8s_tim2$TIM2_ICInit$180 ==.
      0002B3 7B 07            [ 1]  704 	ld	a, (0x07, sp)
      0002B5 88               [ 1]  705 	push	a
                           0002B6   706 	Sstm8s_tim2$TIM2_ICInit$181 ==.
      0002B6 7B 07            [ 1]  707 	ld	a, (0x07, sp)
      0002B8 CDr09rEB         [ 4]  708 	call	_TI1_Config
                           0002BB   709 	Sstm8s_tim2$TIM2_ICInit$182 ==.
                           0002BB   710 	Sstm8s_tim2$TIM2_ICInit$183 ==.
                                    711 ;	./STM8S_StdPeriph_Lib/Libraries/STM8S_StdPeriph_Driver/src/stm8s_tim2.c: 233: TIM2_SetIC1Prescaler(TIM2_ICPrescaler);
      0002BB 7B 07            [ 1]  712 	ld	a, (0x07, sp)
      0002BD CDr08r2E         [ 4]  713 	call	_TIM2_SetIC1Prescaler
                           0002C0   714 	Sstm8s_tim2$TIM2_ICInit$184 ==.
      0002C0 20 26            [ 2]  715 	jra	00107$
      0002C2                        716 00105$:
                           0002C2   717 	Sstm8s_tim2$TIM2_ICInit$185 ==.
                                    718 ;	./STM8S_StdPeriph_Lib/Libraries/STM8S_StdPeriph_Driver/src/stm8s_tim2.c: 235: else if (TIM2_Channel == TIM2_CHANNEL_2)
      0002C2 7B 01            [ 1]  719 	ld	a, (0x01, sp)
      0002C4 27 12            [ 1]  720 	jreq	00102$
                           0002C6   721 	Sstm8s_tim2$TIM2_ICInit$186 ==.
                           0002C6   722 	Sstm8s_tim2$TIM2_ICInit$187 ==.
                                    723 ;	./STM8S_StdPeriph_Lib/Libraries/STM8S_StdPeriph_Driver/src/stm8s_tim2.c: 238: TI2_Config((uint8_t)TIM2_ICPolarity,
      0002C6 7B 08            [ 1]  724 	ld	a, (0x08, sp)
      0002C8 88               [ 1]  725 	push	a
                           0002C9   726 	Sstm8s_tim2$TIM2_ICInit$188 ==.
      0002C9 7B 07            [ 1]  727 	ld	a, (0x07, sp)
      0002CB 88               [ 1]  728 	push	a
                           0002CC   729 	Sstm8s_tim2$TIM2_ICInit$189 ==.
      0002CC 7B 07            [ 1]  730 	ld	a, (0x07, sp)
      0002CE CDr0Ar25         [ 4]  731 	call	_TI2_Config
                           0002D1   732 	Sstm8s_tim2$TIM2_ICInit$190 ==.
                           0002D1   733 	Sstm8s_tim2$TIM2_ICInit$191 ==.
                                    734 ;	./STM8S_StdPeriph_Lib/Libraries/STM8S_StdPeriph_Driver/src/stm8s_tim2.c: 243: TIM2_SetIC2Prescaler(TIM2_ICPrescaler);
      0002D1 7B 07            [ 1]  735 	ld	a, (0x07, sp)
      0002D3 CDr08r5D         [ 4]  736 	call	_TIM2_SetIC2Prescaler
                           0002D6   737 	Sstm8s_tim2$TIM2_ICInit$192 ==.
      0002D6 20 10            [ 2]  738 	jra	00107$
      0002D8                        739 00102$:
                           0002D8   740 	Sstm8s_tim2$TIM2_ICInit$193 ==.
                           0002D8   741 	Sstm8s_tim2$TIM2_ICInit$194 ==.
                                    742 ;	./STM8S_StdPeriph_Lib/Libraries/STM8S_StdPeriph_Driver/src/stm8s_tim2.c: 248: TI3_Config((uint8_t)TIM2_ICPolarity,
      0002D8 7B 08            [ 1]  743 	ld	a, (0x08, sp)
      0002DA 88               [ 1]  744 	push	a
                           0002DB   745 	Sstm8s_tim2$TIM2_ICInit$195 ==.
      0002DB 7B 07            [ 1]  746 	ld	a, (0x07, sp)
      0002DD 88               [ 1]  747 	push	a
                           0002DE   748 	Sstm8s_tim2$TIM2_ICInit$196 ==.
      0002DE 7B 07            [ 1]  749 	ld	a, (0x07, sp)
      0002E0 CDr0Ar5F         [ 4]  750 	call	_TI3_Config
                           0002E3   751 	Sstm8s_tim2$TIM2_ICInit$197 ==.
                           0002E3   752 	Sstm8s_tim2$TIM2_ICInit$198 ==.
                                    753 ;	./STM8S_StdPeriph_Lib/Libraries/STM8S_StdPeriph_Driver/src/stm8s_tim2.c: 253: TIM2_SetIC3Prescaler(TIM2_ICPrescaler);
      0002E3 7B 07            [ 1]  754 	ld	a, (0x07, sp)
      0002E5 CDr08r8C         [ 4]  755 	call	_TIM2_SetIC3Prescaler
                           0002E8   756 	Sstm8s_tim2$TIM2_ICInit$199 ==.
      0002E8                        757 00107$:
                           0002E8   758 	Sstm8s_tim2$TIM2_ICInit$200 ==.
                                    759 ;	./STM8S_StdPeriph_Lib/Libraries/STM8S_StdPeriph_Driver/src/stm8s_tim2.c: 255: }
      0002E8 1E 03            [ 2]  760 	ldw	x, (3, sp)
      0002EA 5B 08            [ 2]  761 	addw	sp, #8
                           0002EC   762 	Sstm8s_tim2$TIM2_ICInit$201 ==.
      0002EC FC               [ 2]  763 	jp	(x)
                           0002ED   764 	Sstm8s_tim2$TIM2_ICInit$202 ==.
                           0002ED   765 	Sstm8s_tim2$TIM2_PWMIConfig$203 ==.
                                    766 ;	./STM8S_StdPeriph_Lib/Libraries/STM8S_StdPeriph_Driver/src/stm8s_tim2.c: 266: void TIM2_PWMIConfig(TIM2_Channel_TypeDef TIM2_Channel,
                                    767 ;	-----------------------------------------
                                    768 ;	 function TIM2_PWMIConfig
                                    769 ;	-----------------------------------------
      0002ED                        770 _TIM2_PWMIConfig:
                           0002ED   771 	Sstm8s_tim2$TIM2_PWMIConfig$204 ==.
      0002ED 52 03            [ 2]  772 	sub	sp, #3
                           0002EF   773 	Sstm8s_tim2$TIM2_PWMIConfig$205 ==.
                           0002EF   774 	Sstm8s_tim2$TIM2_PWMIConfig$206 ==.
                                    775 ;	./STM8S_StdPeriph_Lib/Libraries/STM8S_StdPeriph_Driver/src/stm8s_tim2.c: 276: assert_param(IS_TIM2_PWMI_CHANNEL_OK(TIM2_Channel));
      0002EF 6B 03            [ 1]  776 	ld	(0x03, sp), a
      0002F1 27 11            [ 1]  777 	jreq	00113$
      0002F3 7B 03            [ 1]  778 	ld	a, (0x03, sp)
      0002F5 4A               [ 1]  779 	dec	a
      0002F6 27 0C            [ 1]  780 	jreq	00113$
                           0002F8   781 	Sstm8s_tim2$TIM2_PWMIConfig$207 ==.
      0002F8 4B 14            [ 1]  782 	push	#0x14
                           0002FA   783 	Sstm8s_tim2$TIM2_PWMIConfig$208 ==.
      0002FA 4B 01            [ 1]  784 	push	#0x01
                           0002FC   785 	Sstm8s_tim2$TIM2_PWMIConfig$209 ==.
      0002FC 5F               [ 1]  786 	clrw	x
      0002FD 89               [ 2]  787 	pushw	x
                           0002FE   788 	Sstm8s_tim2$TIM2_PWMIConfig$210 ==.
      0002FE AEr00r00         [ 2]  789 	ldw	x, #(___str_0+0)
      000301 CDr00r00         [ 4]  790 	call	_assert_failed
                           000304   791 	Sstm8s_tim2$TIM2_PWMIConfig$211 ==.
      000304                        792 00113$:
                           000304   793 	Sstm8s_tim2$TIM2_PWMIConfig$212 ==.
                                    794 ;	./STM8S_StdPeriph_Lib/Libraries/STM8S_StdPeriph_Driver/src/stm8s_tim2.c: 277: assert_param(IS_TIM2_IC_POLARITY_OK(TIM2_ICPolarity));
      000304 7B 06            [ 1]  795 	ld	a, (0x06, sp)
      000306 A0 44            [ 1]  796 	sub	a, #0x44
      000308 26 04            [ 1]  797 	jrne	00216$
      00030A 4C               [ 1]  798 	inc	a
      00030B 6B 01            [ 1]  799 	ld	(0x01, sp), a
      00030D C5                     800 	.byte 0xc5
      00030E                        801 00216$:
      00030E 0F 01            [ 1]  802 	clr	(0x01, sp)
      000310                        803 00217$:
                           000310   804 	Sstm8s_tim2$TIM2_PWMIConfig$213 ==.
      000310 0D 06            [ 1]  805 	tnz	(0x06, sp)
      000312 27 10            [ 1]  806 	jreq	00118$
      000314 0D 01            [ 1]  807 	tnz	(0x01, sp)
      000316 26 0C            [ 1]  808 	jrne	00118$
      000318 4B 15            [ 1]  809 	push	#0x15
                           00031A   810 	Sstm8s_tim2$TIM2_PWMIConfig$214 ==.
      00031A 4B 01            [ 1]  811 	push	#0x01
                           00031C   812 	Sstm8s_tim2$TIM2_PWMIConfig$215 ==.
      00031C 5F               [ 1]  813 	clrw	x
      00031D 89               [ 2]  814 	pushw	x
                           00031E   815 	Sstm8s_tim2$TIM2_PWMIConfig$216 ==.
      00031E AEr00r00         [ 2]  816 	ldw	x, #(___str_0+0)
      000321 CDr00r00         [ 4]  817 	call	_assert_failed
                           000324   818 	Sstm8s_tim2$TIM2_PWMIConfig$217 ==.
      000324                        819 00118$:
                           000324   820 	Sstm8s_tim2$TIM2_PWMIConfig$218 ==.
                                    821 ;	./STM8S_StdPeriph_Lib/Libraries/STM8S_StdPeriph_Driver/src/stm8s_tim2.c: 278: assert_param(IS_TIM2_IC_SELECTION_OK(TIM2_ICSelection));
      000324 7B 07            [ 1]  822 	ld	a, (0x07, sp)
      000326 4A               [ 1]  823 	dec	a
      000327 26 05            [ 1]  824 	jrne	00221$
      000329 A6 01            [ 1]  825 	ld	a, #0x01
      00032B 6B 02            [ 1]  826 	ld	(0x02, sp), a
      00032D C5                     827 	.byte 0xc5
      00032E                        828 00221$:
      00032E 0F 02            [ 1]  829 	clr	(0x02, sp)
      000330                        830 00222$:
                           000330   831 	Sstm8s_tim2$TIM2_PWMIConfig$219 ==.
      000330 0D 02            [ 1]  832 	tnz	(0x02, sp)
      000332 26 18            [ 1]  833 	jrne	00123$
      000334 7B 07            [ 1]  834 	ld	a, (0x07, sp)
      000336 A1 02            [ 1]  835 	cp	a, #0x02
      000338 27 12            [ 1]  836 	jreq	00123$
                           00033A   837 	Sstm8s_tim2$TIM2_PWMIConfig$220 ==.
      00033A 7B 07            [ 1]  838 	ld	a, (0x07, sp)
      00033C A1 03            [ 1]  839 	cp	a, #0x03
      00033E 27 0C            [ 1]  840 	jreq	00123$
                           000340   841 	Sstm8s_tim2$TIM2_PWMIConfig$221 ==.
      000340 4B 16            [ 1]  842 	push	#0x16
                           000342   843 	Sstm8s_tim2$TIM2_PWMIConfig$222 ==.
      000342 4B 01            [ 1]  844 	push	#0x01
                           000344   845 	Sstm8s_tim2$TIM2_PWMIConfig$223 ==.
      000344 5F               [ 1]  846 	clrw	x
      000345 89               [ 2]  847 	pushw	x
                           000346   848 	Sstm8s_tim2$TIM2_PWMIConfig$224 ==.
      000346 AEr00r00         [ 2]  849 	ldw	x, #(___str_0+0)
      000349 CDr00r00         [ 4]  850 	call	_assert_failed
                           00034C   851 	Sstm8s_tim2$TIM2_PWMIConfig$225 ==.
      00034C                        852 00123$:
                           00034C   853 	Sstm8s_tim2$TIM2_PWMIConfig$226 ==.
                                    854 ;	./STM8S_StdPeriph_Lib/Libraries/STM8S_StdPeriph_Driver/src/stm8s_tim2.c: 279: assert_param(IS_TIM2_IC_PRESCALER_OK(TIM2_ICPrescaler));
      00034C 0D 08            [ 1]  855 	tnz	(0x08, sp)
      00034E 27 1E            [ 1]  856 	jreq	00131$
      000350 7B 08            [ 1]  857 	ld	a, (0x08, sp)
      000352 A1 04            [ 1]  858 	cp	a, #0x04
      000354 27 18            [ 1]  859 	jreq	00131$
                           000356   860 	Sstm8s_tim2$TIM2_PWMIConfig$227 ==.
      000356 7B 08            [ 1]  861 	ld	a, (0x08, sp)
      000358 A1 08            [ 1]  862 	cp	a, #0x08
      00035A 27 12            [ 1]  863 	jreq	00131$
                           00035C   864 	Sstm8s_tim2$TIM2_PWMIConfig$228 ==.
      00035C 7B 08            [ 1]  865 	ld	a, (0x08, sp)
      00035E A1 0C            [ 1]  866 	cp	a, #0x0c
      000360 27 0C            [ 1]  867 	jreq	00131$
                           000362   868 	Sstm8s_tim2$TIM2_PWMIConfig$229 ==.
      000362 4B 17            [ 1]  869 	push	#0x17
                           000364   870 	Sstm8s_tim2$TIM2_PWMIConfig$230 ==.
      000364 4B 01            [ 1]  871 	push	#0x01
                           000366   872 	Sstm8s_tim2$TIM2_PWMIConfig$231 ==.
      000366 5F               [ 1]  873 	clrw	x
      000367 89               [ 2]  874 	pushw	x
                           000368   875 	Sstm8s_tim2$TIM2_PWMIConfig$232 ==.
      000368 AEr00r00         [ 2]  876 	ldw	x, #(___str_0+0)
      00036B CDr00r00         [ 4]  877 	call	_assert_failed
                           00036E   878 	Sstm8s_tim2$TIM2_PWMIConfig$233 ==.
      00036E                        879 00131$:
                           00036E   880 	Sstm8s_tim2$TIM2_PWMIConfig$234 ==.
                                    881 ;	./STM8S_StdPeriph_Lib/Libraries/STM8S_StdPeriph_Driver/src/stm8s_tim2.c: 282: if (TIM2_ICPolarity != TIM2_ICPOLARITY_FALLING)
      00036E 0D 01            [ 1]  882 	tnz	(0x01, sp)
      000370 26 05            [ 1]  883 	jrne	00102$
                           000372   884 	Sstm8s_tim2$TIM2_PWMIConfig$235 ==.
                           000372   885 	Sstm8s_tim2$TIM2_PWMIConfig$236 ==.
                                    886 ;	./STM8S_StdPeriph_Lib/Libraries/STM8S_StdPeriph_Driver/src/stm8s_tim2.c: 284: icpolarity = (uint8_t)TIM2_ICPOLARITY_FALLING;
      000372 A6 44            [ 1]  887 	ld	a, #0x44
      000374 6B 01            [ 1]  888 	ld	(0x01, sp), a
                           000376   889 	Sstm8s_tim2$TIM2_PWMIConfig$237 ==.
                           000376   890 	Sstm8s_tim2$TIM2_PWMIConfig$238 ==.
                           000376   891 	Sstm8s_tim2$TIM2_PWMIConfig$239 ==.
                                    892 ;	./STM8S_StdPeriph_Lib/Libraries/STM8S_StdPeriph_Driver/src/stm8s_tim2.c: 288: icpolarity = (uint8_t)TIM2_ICPOLARITY_RISING;
                           000376   893 	Sstm8s_tim2$TIM2_PWMIConfig$240 ==.
      000376 C5                     894 	.byte 0xc5
      000377                        895 00102$:
      000377 0F 01            [ 1]  896 	clr	(0x01, sp)
      000379                        897 00103$:
                           000379   898 	Sstm8s_tim2$TIM2_PWMIConfig$241 ==.
                                    899 ;	./STM8S_StdPeriph_Lib/Libraries/STM8S_StdPeriph_Driver/src/stm8s_tim2.c: 292: if (TIM2_ICSelection == TIM2_ICSELECTION_DIRECTTI)
      000379 7B 02            [ 1]  900 	ld	a, (0x02, sp)
      00037B 27 06            [ 1]  901 	jreq	00105$
                           00037D   902 	Sstm8s_tim2$TIM2_PWMIConfig$242 ==.
                           00037D   903 	Sstm8s_tim2$TIM2_PWMIConfig$243 ==.
                                    904 ;	./STM8S_StdPeriph_Lib/Libraries/STM8S_StdPeriph_Driver/src/stm8s_tim2.c: 294: icselection = (uint8_t)TIM2_ICSELECTION_INDIRECTTI;
      00037D A6 02            [ 1]  905 	ld	a, #0x02
      00037F 6B 02            [ 1]  906 	ld	(0x02, sp), a
                           000381   907 	Sstm8s_tim2$TIM2_PWMIConfig$244 ==.
      000381 20 04            [ 2]  908 	jra	00106$
      000383                        909 00105$:
                           000383   910 	Sstm8s_tim2$TIM2_PWMIConfig$245 ==.
                           000383   911 	Sstm8s_tim2$TIM2_PWMIConfig$246 ==.
                                    912 ;	./STM8S_StdPeriph_Lib/Libraries/STM8S_StdPeriph_Driver/src/stm8s_tim2.c: 298: icselection = (uint8_t)TIM2_ICSELECTION_DIRECTTI;
      000383 A6 01            [ 1]  913 	ld	a, #0x01
      000385 6B 02            [ 1]  914 	ld	(0x02, sp), a
                           000387   915 	Sstm8s_tim2$TIM2_PWMIConfig$247 ==.
      000387                        916 00106$:
                           000387   917 	Sstm8s_tim2$TIM2_PWMIConfig$248 ==.
                                    918 ;	./STM8S_StdPeriph_Lib/Libraries/STM8S_StdPeriph_Driver/src/stm8s_tim2.c: 301: if (TIM2_Channel == TIM2_CHANNEL_1)
      000387 0D 03            [ 1]  919 	tnz	(0x03, sp)
      000389 26 22            [ 1]  920 	jrne	00108$
                           00038B   921 	Sstm8s_tim2$TIM2_PWMIConfig$249 ==.
                           00038B   922 	Sstm8s_tim2$TIM2_PWMIConfig$250 ==.
                                    923 ;	./STM8S_StdPeriph_Lib/Libraries/STM8S_StdPeriph_Driver/src/stm8s_tim2.c: 304: TI1_Config((uint8_t)TIM2_ICPolarity, (uint8_t)TIM2_ICSelection,
      00038B 7B 09            [ 1]  924 	ld	a, (0x09, sp)
      00038D 88               [ 1]  925 	push	a
                           00038E   926 	Sstm8s_tim2$TIM2_PWMIConfig$251 ==.
      00038E 7B 08            [ 1]  927 	ld	a, (0x08, sp)
      000390 88               [ 1]  928 	push	a
                           000391   929 	Sstm8s_tim2$TIM2_PWMIConfig$252 ==.
      000391 7B 08            [ 1]  930 	ld	a, (0x08, sp)
      000393 CDr09rEB         [ 4]  931 	call	_TI1_Config
                           000396   932 	Sstm8s_tim2$TIM2_PWMIConfig$253 ==.
                           000396   933 	Sstm8s_tim2$TIM2_PWMIConfig$254 ==.
                                    934 ;	./STM8S_StdPeriph_Lib/Libraries/STM8S_StdPeriph_Driver/src/stm8s_tim2.c: 308: TIM2_SetIC1Prescaler(TIM2_ICPrescaler);
      000396 7B 08            [ 1]  935 	ld	a, (0x08, sp)
      000398 CDr08r2E         [ 4]  936 	call	_TIM2_SetIC1Prescaler
                           00039B   937 	Sstm8s_tim2$TIM2_PWMIConfig$255 ==.
                                    938 ;	./STM8S_StdPeriph_Lib/Libraries/STM8S_StdPeriph_Driver/src/stm8s_tim2.c: 311: TI2_Config(icpolarity, icselection, TIM2_ICFilter);
      00039B 7B 09            [ 1]  939 	ld	a, (0x09, sp)
      00039D 88               [ 1]  940 	push	a
                           00039E   941 	Sstm8s_tim2$TIM2_PWMIConfig$256 ==.
      00039E 7B 03            [ 1]  942 	ld	a, (0x03, sp)
      0003A0 88               [ 1]  943 	push	a
                           0003A1   944 	Sstm8s_tim2$TIM2_PWMIConfig$257 ==.
      0003A1 7B 03            [ 1]  945 	ld	a, (0x03, sp)
      0003A3 CDr0Ar25         [ 4]  946 	call	_TI2_Config
                           0003A6   947 	Sstm8s_tim2$TIM2_PWMIConfig$258 ==.
                           0003A6   948 	Sstm8s_tim2$TIM2_PWMIConfig$259 ==.
                                    949 ;	./STM8S_StdPeriph_Lib/Libraries/STM8S_StdPeriph_Driver/src/stm8s_tim2.c: 314: TIM2_SetIC2Prescaler(TIM2_ICPrescaler);
      0003A6 7B 08            [ 1]  950 	ld	a, (0x08, sp)
      0003A8 CDr08r5D         [ 4]  951 	call	_TIM2_SetIC2Prescaler
                           0003AB   952 	Sstm8s_tim2$TIM2_PWMIConfig$260 ==.
      0003AB 20 20            [ 2]  953 	jra	00110$
      0003AD                        954 00108$:
                           0003AD   955 	Sstm8s_tim2$TIM2_PWMIConfig$261 ==.
                           0003AD   956 	Sstm8s_tim2$TIM2_PWMIConfig$262 ==.
                                    957 ;	./STM8S_StdPeriph_Lib/Libraries/STM8S_StdPeriph_Driver/src/stm8s_tim2.c: 319: TI2_Config((uint8_t)TIM2_ICPolarity, (uint8_t)TIM2_ICSelection,
      0003AD 7B 09            [ 1]  958 	ld	a, (0x09, sp)
      0003AF 88               [ 1]  959 	push	a
                           0003B0   960 	Sstm8s_tim2$TIM2_PWMIConfig$263 ==.
      0003B0 7B 08            [ 1]  961 	ld	a, (0x08, sp)
      0003B2 88               [ 1]  962 	push	a
                           0003B3   963 	Sstm8s_tim2$TIM2_PWMIConfig$264 ==.
      0003B3 7B 08            [ 1]  964 	ld	a, (0x08, sp)
      0003B5 CDr0Ar25         [ 4]  965 	call	_TI2_Config
                           0003B8   966 	Sstm8s_tim2$TIM2_PWMIConfig$265 ==.
                           0003B8   967 	Sstm8s_tim2$TIM2_PWMIConfig$266 ==.
                                    968 ;	./STM8S_StdPeriph_Lib/Libraries/STM8S_StdPeriph_Driver/src/stm8s_tim2.c: 323: TIM2_SetIC2Prescaler(TIM2_ICPrescaler);
      0003B8 7B 08            [ 1]  969 	ld	a, (0x08, sp)
      0003BA CDr08r5D         [ 4]  970 	call	_TIM2_SetIC2Prescaler
                           0003BD   971 	Sstm8s_tim2$TIM2_PWMIConfig$267 ==.
                                    972 ;	./STM8S_StdPeriph_Lib/Libraries/STM8S_StdPeriph_Driver/src/stm8s_tim2.c: 326: TI1_Config((uint8_t)icpolarity, icselection, (uint8_t)TIM2_ICFilter);
      0003BD 7B 09            [ 1]  973 	ld	a, (0x09, sp)
      0003BF 88               [ 1]  974 	push	a
                           0003C0   975 	Sstm8s_tim2$TIM2_PWMIConfig$268 ==.
      0003C0 7B 03            [ 1]  976 	ld	a, (0x03, sp)
      0003C2 88               [ 1]  977 	push	a
                           0003C3   978 	Sstm8s_tim2$TIM2_PWMIConfig$269 ==.
      0003C3 7B 03            [ 1]  979 	ld	a, (0x03, sp)
      0003C5 CDr09rEB         [ 4]  980 	call	_TI1_Config
                           0003C8   981 	Sstm8s_tim2$TIM2_PWMIConfig$270 ==.
                           0003C8   982 	Sstm8s_tim2$TIM2_PWMIConfig$271 ==.
                                    983 ;	./STM8S_StdPeriph_Lib/Libraries/STM8S_StdPeriph_Driver/src/stm8s_tim2.c: 329: TIM2_SetIC1Prescaler(TIM2_ICPrescaler);
      0003C8 7B 08            [ 1]  984 	ld	a, (0x08, sp)
      0003CA CDr08r2E         [ 4]  985 	call	_TIM2_SetIC1Prescaler
                           0003CD   986 	Sstm8s_tim2$TIM2_PWMIConfig$272 ==.
      0003CD                        987 00110$:
                           0003CD   988 	Sstm8s_tim2$TIM2_PWMIConfig$273 ==.
                                    989 ;	./STM8S_StdPeriph_Lib/Libraries/STM8S_StdPeriph_Driver/src/stm8s_tim2.c: 331: }
      0003CD 1E 04            [ 2]  990 	ldw	x, (4, sp)
      0003CF 5B 09            [ 2]  991 	addw	sp, #9
                           0003D1   992 	Sstm8s_tim2$TIM2_PWMIConfig$274 ==.
      0003D1 FC               [ 2]  993 	jp	(x)
                           0003D2   994 	Sstm8s_tim2$TIM2_PWMIConfig$275 ==.
                           0003D2   995 	Sstm8s_tim2$TIM2_Cmd$276 ==.
                                    996 ;	./STM8S_StdPeriph_Lib/Libraries/STM8S_StdPeriph_Driver/src/stm8s_tim2.c: 339: void TIM2_Cmd(FunctionalState NewState)
                                    997 ;	-----------------------------------------
                                    998 ;	 function TIM2_Cmd
                                    999 ;	-----------------------------------------
      0003D2                       1000 _TIM2_Cmd:
                           0003D2  1001 	Sstm8s_tim2$TIM2_Cmd$277 ==.
      0003D2 88               [ 1] 1002 	push	a
                           0003D3  1003 	Sstm8s_tim2$TIM2_Cmd$278 ==.
                           0003D3  1004 	Sstm8s_tim2$TIM2_Cmd$279 ==.
                                   1005 ;	./STM8S_StdPeriph_Lib/Libraries/STM8S_StdPeriph_Driver/src/stm8s_tim2.c: 342: assert_param(IS_FUNCTIONALSTATE_OK(NewState));
      0003D3 6B 01            [ 1] 1006 	ld	(0x01, sp), a
      0003D5 27 10            [ 1] 1007 	jreq	00107$
      0003D7 0D 01            [ 1] 1008 	tnz	(0x01, sp)
      0003D9 26 0C            [ 1] 1009 	jrne	00107$
      0003DB 4B 56            [ 1] 1010 	push	#0x56
                           0003DD  1011 	Sstm8s_tim2$TIM2_Cmd$280 ==.
      0003DD 4B 01            [ 1] 1012 	push	#0x01
                           0003DF  1013 	Sstm8s_tim2$TIM2_Cmd$281 ==.
      0003DF 5F               [ 1] 1014 	clrw	x
      0003E0 89               [ 2] 1015 	pushw	x
                           0003E1  1016 	Sstm8s_tim2$TIM2_Cmd$282 ==.
      0003E1 AEr00r00         [ 2] 1017 	ldw	x, #(___str_0+0)
      0003E4 CDr00r00         [ 4] 1018 	call	_assert_failed
                           0003E7  1019 	Sstm8s_tim2$TIM2_Cmd$283 ==.
      0003E7                       1020 00107$:
                           0003E7  1021 	Sstm8s_tim2$TIM2_Cmd$284 ==.
                                   1022 ;	./STM8S_StdPeriph_Lib/Libraries/STM8S_StdPeriph_Driver/src/stm8s_tim2.c: 347: TIM2->CR1 |= (uint8_t)TIM2_CR1_CEN;
      0003E7 C6 53 00         [ 1] 1023 	ld	a, 0x5300
                           0003EA  1024 	Sstm8s_tim2$TIM2_Cmd$285 ==.
                                   1025 ;	./STM8S_StdPeriph_Lib/Libraries/STM8S_StdPeriph_Driver/src/stm8s_tim2.c: 345: if (NewState != DISABLE)
      0003EA 0D 01            [ 1] 1026 	tnz	(0x01, sp)
      0003EC 27 07            [ 1] 1027 	jreq	00102$
                           0003EE  1028 	Sstm8s_tim2$TIM2_Cmd$286 ==.
                           0003EE  1029 	Sstm8s_tim2$TIM2_Cmd$287 ==.
                                   1030 ;	./STM8S_StdPeriph_Lib/Libraries/STM8S_StdPeriph_Driver/src/stm8s_tim2.c: 347: TIM2->CR1 |= (uint8_t)TIM2_CR1_CEN;
      0003EE AA 01            [ 1] 1031 	or	a, #0x01
      0003F0 C7 53 00         [ 1] 1032 	ld	0x5300, a
                           0003F3  1033 	Sstm8s_tim2$TIM2_Cmd$288 ==.
      0003F3 20 05            [ 2] 1034 	jra	00104$
      0003F5                       1035 00102$:
                           0003F5  1036 	Sstm8s_tim2$TIM2_Cmd$289 ==.
                           0003F5  1037 	Sstm8s_tim2$TIM2_Cmd$290 ==.
                                   1038 ;	./STM8S_StdPeriph_Lib/Libraries/STM8S_StdPeriph_Driver/src/stm8s_tim2.c: 351: TIM2->CR1 &= (uint8_t)(~TIM2_CR1_CEN);
      0003F5 A4 FE            [ 1] 1039 	and	a, #0xfe
      0003F7 C7 53 00         [ 1] 1040 	ld	0x5300, a
                           0003FA  1041 	Sstm8s_tim2$TIM2_Cmd$291 ==.
      0003FA                       1042 00104$:
                           0003FA  1043 	Sstm8s_tim2$TIM2_Cmd$292 ==.
                                   1044 ;	./STM8S_StdPeriph_Lib/Libraries/STM8S_StdPeriph_Driver/src/stm8s_tim2.c: 353: }
      0003FA 84               [ 1] 1045 	pop	a
                           0003FB  1046 	Sstm8s_tim2$TIM2_Cmd$293 ==.
                           0003FB  1047 	Sstm8s_tim2$TIM2_Cmd$294 ==.
                           0003FB  1048 	XG$TIM2_Cmd$0$0 ==.
      0003FB 81               [ 4] 1049 	ret
                           0003FC  1050 	Sstm8s_tim2$TIM2_Cmd$295 ==.
                           0003FC  1051 	Sstm8s_tim2$TIM2_ITConfig$296 ==.
                                   1052 ;	./STM8S_StdPeriph_Lib/Libraries/STM8S_StdPeriph_Driver/src/stm8s_tim2.c: 368: void TIM2_ITConfig(TIM2_IT_TypeDef TIM2_IT, FunctionalState NewState)
                                   1053 ;	-----------------------------------------
                                   1054 ;	 function TIM2_ITConfig
                                   1055 ;	-----------------------------------------
      0003FC                       1056 _TIM2_ITConfig:
                           0003FC  1057 	Sstm8s_tim2$TIM2_ITConfig$297 ==.
      0003FC 88               [ 1] 1058 	push	a
                           0003FD  1059 	Sstm8s_tim2$TIM2_ITConfig$298 ==.
                           0003FD  1060 	Sstm8s_tim2$TIM2_ITConfig$299 ==.
                                   1061 ;	./STM8S_StdPeriph_Lib/Libraries/STM8S_StdPeriph_Driver/src/stm8s_tim2.c: 371: assert_param(IS_TIM2_IT_OK(TIM2_IT));
      0003FD 4D               [ 1] 1062 	tnz	a
      0003FE 27 04            [ 1] 1063 	jreq	00106$
      000400 A1 0F            [ 1] 1064 	cp	a, #0x0f
      000402 23 0E            [ 2] 1065 	jrule	00107$
      000404                       1066 00106$:
      000404 88               [ 1] 1067 	push	a
                           000405  1068 	Sstm8s_tim2$TIM2_ITConfig$300 ==.
      000405 4B 73            [ 1] 1069 	push	#0x73
                           000407  1070 	Sstm8s_tim2$TIM2_ITConfig$301 ==.
      000407 4B 01            [ 1] 1071 	push	#0x01
                           000409  1072 	Sstm8s_tim2$TIM2_ITConfig$302 ==.
      000409 5F               [ 1] 1073 	clrw	x
      00040A 89               [ 2] 1074 	pushw	x
                           00040B  1075 	Sstm8s_tim2$TIM2_ITConfig$303 ==.
      00040B AEr00r00         [ 2] 1076 	ldw	x, #(___str_0+0)
      00040E CDr00r00         [ 4] 1077 	call	_assert_failed
                           000411  1078 	Sstm8s_tim2$TIM2_ITConfig$304 ==.
      000411 84               [ 1] 1079 	pop	a
                           000412  1080 	Sstm8s_tim2$TIM2_ITConfig$305 ==.
      000412                       1081 00107$:
                           000412  1082 	Sstm8s_tim2$TIM2_ITConfig$306 ==.
                                   1083 ;	./STM8S_StdPeriph_Lib/Libraries/STM8S_StdPeriph_Driver/src/stm8s_tim2.c: 372: assert_param(IS_FUNCTIONALSTATE_OK(NewState));
      000412 0D 04            [ 1] 1084 	tnz	(0x04, sp)
      000414 27 12            [ 1] 1085 	jreq	00112$
      000416 0D 04            [ 1] 1086 	tnz	(0x04, sp)
      000418 26 0E            [ 1] 1087 	jrne	00112$
      00041A 88               [ 1] 1088 	push	a
                           00041B  1089 	Sstm8s_tim2$TIM2_ITConfig$307 ==.
      00041B 4B 74            [ 1] 1090 	push	#0x74
                           00041D  1091 	Sstm8s_tim2$TIM2_ITConfig$308 ==.
      00041D 4B 01            [ 1] 1092 	push	#0x01
                           00041F  1093 	Sstm8s_tim2$TIM2_ITConfig$309 ==.
      00041F 5F               [ 1] 1094 	clrw	x
      000420 89               [ 2] 1095 	pushw	x
                           000421  1096 	Sstm8s_tim2$TIM2_ITConfig$310 ==.
      000421 AEr00r00         [ 2] 1097 	ldw	x, #(___str_0+0)
      000424 CDr00r00         [ 4] 1098 	call	_assert_failed
                           000427  1099 	Sstm8s_tim2$TIM2_ITConfig$311 ==.
      000427 84               [ 1] 1100 	pop	a
                           000428  1101 	Sstm8s_tim2$TIM2_ITConfig$312 ==.
      000428                       1102 00112$:
                           000428  1103 	Sstm8s_tim2$TIM2_ITConfig$313 ==.
                                   1104 ;	./STM8S_StdPeriph_Lib/Libraries/STM8S_StdPeriph_Driver/src/stm8s_tim2.c: 377: TIM2->IER |= (uint8_t)TIM2_IT;
      000428 AE 53 03         [ 2] 1105 	ldw	x, #0x5303
      00042B 88               [ 1] 1106 	push	a
                           00042C  1107 	Sstm8s_tim2$TIM2_ITConfig$314 ==.
      00042C F6               [ 1] 1108 	ld	a, (x)
      00042D 6B 02            [ 1] 1109 	ld	(0x02, sp), a
      00042F 84               [ 1] 1110 	pop	a
                           000430  1111 	Sstm8s_tim2$TIM2_ITConfig$315 ==.
                           000430  1112 	Sstm8s_tim2$TIM2_ITConfig$316 ==.
                                   1113 ;	./STM8S_StdPeriph_Lib/Libraries/STM8S_StdPeriph_Driver/src/stm8s_tim2.c: 374: if (NewState != DISABLE)
      000430 0D 04            [ 1] 1114 	tnz	(0x04, sp)
      000432 27 07            [ 1] 1115 	jreq	00102$
                           000434  1116 	Sstm8s_tim2$TIM2_ITConfig$317 ==.
                           000434  1117 	Sstm8s_tim2$TIM2_ITConfig$318 ==.
                                   1118 ;	./STM8S_StdPeriph_Lib/Libraries/STM8S_StdPeriph_Driver/src/stm8s_tim2.c: 377: TIM2->IER |= (uint8_t)TIM2_IT;
      000434 1A 01            [ 1] 1119 	or	a, (0x01, sp)
      000436 C7 53 03         [ 1] 1120 	ld	0x5303, a
                           000439  1121 	Sstm8s_tim2$TIM2_ITConfig$319 ==.
      000439 20 06            [ 2] 1122 	jra	00104$
      00043B                       1123 00102$:
                           00043B  1124 	Sstm8s_tim2$TIM2_ITConfig$320 ==.
                           00043B  1125 	Sstm8s_tim2$TIM2_ITConfig$321 ==.
                                   1126 ;	./STM8S_StdPeriph_Lib/Libraries/STM8S_StdPeriph_Driver/src/stm8s_tim2.c: 382: TIM2->IER &= (uint8_t)(~TIM2_IT);
      00043B 43               [ 1] 1127 	cpl	a
      00043C 14 01            [ 1] 1128 	and	a, (0x01, sp)
      00043E C7 53 03         [ 1] 1129 	ld	0x5303, a
                           000441  1130 	Sstm8s_tim2$TIM2_ITConfig$322 ==.
      000441                       1131 00104$:
                           000441  1132 	Sstm8s_tim2$TIM2_ITConfig$323 ==.
                                   1133 ;	./STM8S_StdPeriph_Lib/Libraries/STM8S_StdPeriph_Driver/src/stm8s_tim2.c: 384: }
      000441 84               [ 1] 1134 	pop	a
                           000442  1135 	Sstm8s_tim2$TIM2_ITConfig$324 ==.
      000442 85               [ 2] 1136 	popw	x
                           000443  1137 	Sstm8s_tim2$TIM2_ITConfig$325 ==.
      000443 84               [ 1] 1138 	pop	a
                           000444  1139 	Sstm8s_tim2$TIM2_ITConfig$326 ==.
      000444 FC               [ 2] 1140 	jp	(x)
                           000445  1141 	Sstm8s_tim2$TIM2_ITConfig$327 ==.
                           000445  1142 	Sstm8s_tim2$TIM2_UpdateDisableConfig$328 ==.
                                   1143 ;	./STM8S_StdPeriph_Lib/Libraries/STM8S_StdPeriph_Driver/src/stm8s_tim2.c: 392: void TIM2_UpdateDisableConfig(FunctionalState NewState)
                                   1144 ;	-----------------------------------------
                                   1145 ;	 function TIM2_UpdateDisableConfig
                                   1146 ;	-----------------------------------------
      000445                       1147 _TIM2_UpdateDisableConfig:
                           000445  1148 	Sstm8s_tim2$TIM2_UpdateDisableConfig$329 ==.
      000445 88               [ 1] 1149 	push	a
                           000446  1150 	Sstm8s_tim2$TIM2_UpdateDisableConfig$330 ==.
                           000446  1151 	Sstm8s_tim2$TIM2_UpdateDisableConfig$331 ==.
                                   1152 ;	./STM8S_StdPeriph_Lib/Libraries/STM8S_StdPeriph_Driver/src/stm8s_tim2.c: 395: assert_param(IS_FUNCTIONALSTATE_OK(NewState));
      000446 6B 01            [ 1] 1153 	ld	(0x01, sp), a
      000448 27 10            [ 1] 1154 	jreq	00107$
      00044A 0D 01            [ 1] 1155 	tnz	(0x01, sp)
      00044C 26 0C            [ 1] 1156 	jrne	00107$
      00044E 4B 8B            [ 1] 1157 	push	#0x8b
                           000450  1158 	Sstm8s_tim2$TIM2_UpdateDisableConfig$332 ==.
      000450 4B 01            [ 1] 1159 	push	#0x01
                           000452  1160 	Sstm8s_tim2$TIM2_UpdateDisableConfig$333 ==.
      000452 5F               [ 1] 1161 	clrw	x
      000453 89               [ 2] 1162 	pushw	x
                           000454  1163 	Sstm8s_tim2$TIM2_UpdateDisableConfig$334 ==.
      000454 AEr00r00         [ 2] 1164 	ldw	x, #(___str_0+0)
      000457 CDr00r00         [ 4] 1165 	call	_assert_failed
                           00045A  1166 	Sstm8s_tim2$TIM2_UpdateDisableConfig$335 ==.
      00045A                       1167 00107$:
                           00045A  1168 	Sstm8s_tim2$TIM2_UpdateDisableConfig$336 ==.
                                   1169 ;	./STM8S_StdPeriph_Lib/Libraries/STM8S_StdPeriph_Driver/src/stm8s_tim2.c: 400: TIM2->CR1 |= (uint8_t)TIM2_CR1_UDIS;
      00045A C6 53 00         [ 1] 1170 	ld	a, 0x5300
                           00045D  1171 	Sstm8s_tim2$TIM2_UpdateDisableConfig$337 ==.
                                   1172 ;	./STM8S_StdPeriph_Lib/Libraries/STM8S_StdPeriph_Driver/src/stm8s_tim2.c: 398: if (NewState != DISABLE)
      00045D 0D 01            [ 1] 1173 	tnz	(0x01, sp)
      00045F 27 07            [ 1] 1174 	jreq	00102$
                           000461  1175 	Sstm8s_tim2$TIM2_UpdateDisableConfig$338 ==.
                           000461  1176 	Sstm8s_tim2$TIM2_UpdateDisableConfig$339 ==.
                                   1177 ;	./STM8S_StdPeriph_Lib/Libraries/STM8S_StdPeriph_Driver/src/stm8s_tim2.c: 400: TIM2->CR1 |= (uint8_t)TIM2_CR1_UDIS;
      000461 AA 02            [ 1] 1178 	or	a, #0x02
      000463 C7 53 00         [ 1] 1179 	ld	0x5300, a
                           000466  1180 	Sstm8s_tim2$TIM2_UpdateDisableConfig$340 ==.
      000466 20 05            [ 2] 1181 	jra	00104$
      000468                       1182 00102$:
                           000468  1183 	Sstm8s_tim2$TIM2_UpdateDisableConfig$341 ==.
                           000468  1184 	Sstm8s_tim2$TIM2_UpdateDisableConfig$342 ==.
                                   1185 ;	./STM8S_StdPeriph_Lib/Libraries/STM8S_StdPeriph_Driver/src/stm8s_tim2.c: 404: TIM2->CR1 &= (uint8_t)(~TIM2_CR1_UDIS);
      000468 A4 FD            [ 1] 1186 	and	a, #0xfd
      00046A C7 53 00         [ 1] 1187 	ld	0x5300, a
                           00046D  1188 	Sstm8s_tim2$TIM2_UpdateDisableConfig$343 ==.
      00046D                       1189 00104$:
                           00046D  1190 	Sstm8s_tim2$TIM2_UpdateDisableConfig$344 ==.
                                   1191 ;	./STM8S_StdPeriph_Lib/Libraries/STM8S_StdPeriph_Driver/src/stm8s_tim2.c: 406: }
      00046D 84               [ 1] 1192 	pop	a
                           00046E  1193 	Sstm8s_tim2$TIM2_UpdateDisableConfig$345 ==.
                           00046E  1194 	Sstm8s_tim2$TIM2_UpdateDisableConfig$346 ==.
                           00046E  1195 	XG$TIM2_UpdateDisableConfig$0$0 ==.
      00046E 81               [ 4] 1196 	ret
                           00046F  1197 	Sstm8s_tim2$TIM2_UpdateDisableConfig$347 ==.
                           00046F  1198 	Sstm8s_tim2$TIM2_UpdateRequestConfig$348 ==.
                                   1199 ;	./STM8S_StdPeriph_Lib/Libraries/STM8S_StdPeriph_Driver/src/stm8s_tim2.c: 416: void TIM2_UpdateRequestConfig(TIM2_UpdateSource_TypeDef TIM2_UpdateSource)
                                   1200 ;	-----------------------------------------
                                   1201 ;	 function TIM2_UpdateRequestConfig
                                   1202 ;	-----------------------------------------
      00046F                       1203 _TIM2_UpdateRequestConfig:
                           00046F  1204 	Sstm8s_tim2$TIM2_UpdateRequestConfig$349 ==.
      00046F 88               [ 1] 1205 	push	a
                           000470  1206 	Sstm8s_tim2$TIM2_UpdateRequestConfig$350 ==.
                           000470  1207 	Sstm8s_tim2$TIM2_UpdateRequestConfig$351 ==.
                                   1208 ;	./STM8S_StdPeriph_Lib/Libraries/STM8S_StdPeriph_Driver/src/stm8s_tim2.c: 419: assert_param(IS_TIM2_UPDATE_SOURCE_OK(TIM2_UpdateSource));
      000470 6B 01            [ 1] 1209 	ld	(0x01, sp), a
      000472 27 10            [ 1] 1210 	jreq	00107$
      000474 0D 01            [ 1] 1211 	tnz	(0x01, sp)
      000476 26 0C            [ 1] 1212 	jrne	00107$
      000478 4B A3            [ 1] 1213 	push	#0xa3
                           00047A  1214 	Sstm8s_tim2$TIM2_UpdateRequestConfig$352 ==.
      00047A 4B 01            [ 1] 1215 	push	#0x01
                           00047C  1216 	Sstm8s_tim2$TIM2_UpdateRequestConfig$353 ==.
      00047C 5F               [ 1] 1217 	clrw	x
      00047D 89               [ 2] 1218 	pushw	x
                           00047E  1219 	Sstm8s_tim2$TIM2_UpdateRequestConfig$354 ==.
      00047E AEr00r00         [ 2] 1220 	ldw	x, #(___str_0+0)
      000481 CDr00r00         [ 4] 1221 	call	_assert_failed
                           000484  1222 	Sstm8s_tim2$TIM2_UpdateRequestConfig$355 ==.
      000484                       1223 00107$:
                           000484  1224 	Sstm8s_tim2$TIM2_UpdateRequestConfig$356 ==.
                                   1225 ;	./STM8S_StdPeriph_Lib/Libraries/STM8S_StdPeriph_Driver/src/stm8s_tim2.c: 424: TIM2->CR1 |= (uint8_t)TIM2_CR1_URS;
      000484 C6 53 00         [ 1] 1226 	ld	a, 0x5300
                           000487  1227 	Sstm8s_tim2$TIM2_UpdateRequestConfig$357 ==.
                                   1228 ;	./STM8S_StdPeriph_Lib/Libraries/STM8S_StdPeriph_Driver/src/stm8s_tim2.c: 422: if (TIM2_UpdateSource != TIM2_UPDATESOURCE_GLOBAL)
      000487 0D 01            [ 1] 1229 	tnz	(0x01, sp)
      000489 27 07            [ 1] 1230 	jreq	00102$
                           00048B  1231 	Sstm8s_tim2$TIM2_UpdateRequestConfig$358 ==.
                           00048B  1232 	Sstm8s_tim2$TIM2_UpdateRequestConfig$359 ==.
                                   1233 ;	./STM8S_StdPeriph_Lib/Libraries/STM8S_StdPeriph_Driver/src/stm8s_tim2.c: 424: TIM2->CR1 |= (uint8_t)TIM2_CR1_URS;
      00048B AA 04            [ 1] 1234 	or	a, #0x04
      00048D C7 53 00         [ 1] 1235 	ld	0x5300, a
                           000490  1236 	Sstm8s_tim2$TIM2_UpdateRequestConfig$360 ==.
      000490 20 05            [ 2] 1237 	jra	00104$
      000492                       1238 00102$:
                           000492  1239 	Sstm8s_tim2$TIM2_UpdateRequestConfig$361 ==.
                           000492  1240 	Sstm8s_tim2$TIM2_UpdateRequestConfig$362 ==.
                                   1241 ;	./STM8S_StdPeriph_Lib/Libraries/STM8S_StdPeriph_Driver/src/stm8s_tim2.c: 428: TIM2->CR1 &= (uint8_t)(~TIM2_CR1_URS);
      000492 A4 FB            [ 1] 1242 	and	a, #0xfb
      000494 C7 53 00         [ 1] 1243 	ld	0x5300, a
                           000497  1244 	Sstm8s_tim2$TIM2_UpdateRequestConfig$363 ==.
      000497                       1245 00104$:
                           000497  1246 	Sstm8s_tim2$TIM2_UpdateRequestConfig$364 ==.
                                   1247 ;	./STM8S_StdPeriph_Lib/Libraries/STM8S_StdPeriph_Driver/src/stm8s_tim2.c: 430: }
      000497 84               [ 1] 1248 	pop	a
                           000498  1249 	Sstm8s_tim2$TIM2_UpdateRequestConfig$365 ==.
                           000498  1250 	Sstm8s_tim2$TIM2_UpdateRequestConfig$366 ==.
                           000498  1251 	XG$TIM2_UpdateRequestConfig$0$0 ==.
      000498 81               [ 4] 1252 	ret
                           000499  1253 	Sstm8s_tim2$TIM2_UpdateRequestConfig$367 ==.
                           000499  1254 	Sstm8s_tim2$TIM2_SelectOnePulseMode$368 ==.
                                   1255 ;	./STM8S_StdPeriph_Lib/Libraries/STM8S_StdPeriph_Driver/src/stm8s_tim2.c: 440: void TIM2_SelectOnePulseMode(TIM2_OPMode_TypeDef TIM2_OPMode)
                                   1256 ;	-----------------------------------------
                                   1257 ;	 function TIM2_SelectOnePulseMode
                                   1258 ;	-----------------------------------------
      000499                       1259 _TIM2_SelectOnePulseMode:
                           000499  1260 	Sstm8s_tim2$TIM2_SelectOnePulseMode$369 ==.
      000499 88               [ 1] 1261 	push	a
                           00049A  1262 	Sstm8s_tim2$TIM2_SelectOnePulseMode$370 ==.
                           00049A  1263 	Sstm8s_tim2$TIM2_SelectOnePulseMode$371 ==.
                                   1264 ;	./STM8S_StdPeriph_Lib/Libraries/STM8S_StdPeriph_Driver/src/stm8s_tim2.c: 443: assert_param(IS_TIM2_OPM_MODE_OK(TIM2_OPMode));
      00049A 6B 01            [ 1] 1265 	ld	(0x01, sp), a
      00049C 26 10            [ 1] 1266 	jrne	00107$
      00049E 0D 01            [ 1] 1267 	tnz	(0x01, sp)
      0004A0 27 0C            [ 1] 1268 	jreq	00107$
      0004A2 4B BB            [ 1] 1269 	push	#0xbb
                           0004A4  1270 	Sstm8s_tim2$TIM2_SelectOnePulseMode$372 ==.
      0004A4 4B 01            [ 1] 1271 	push	#0x01
                           0004A6  1272 	Sstm8s_tim2$TIM2_SelectOnePulseMode$373 ==.
      0004A6 5F               [ 1] 1273 	clrw	x
      0004A7 89               [ 2] 1274 	pushw	x
                           0004A8  1275 	Sstm8s_tim2$TIM2_SelectOnePulseMode$374 ==.
      0004A8 AEr00r00         [ 2] 1276 	ldw	x, #(___str_0+0)
      0004AB CDr00r00         [ 4] 1277 	call	_assert_failed
                           0004AE  1278 	Sstm8s_tim2$TIM2_SelectOnePulseMode$375 ==.
      0004AE                       1279 00107$:
                           0004AE  1280 	Sstm8s_tim2$TIM2_SelectOnePulseMode$376 ==.
                                   1281 ;	./STM8S_StdPeriph_Lib/Libraries/STM8S_StdPeriph_Driver/src/stm8s_tim2.c: 448: TIM2->CR1 |= (uint8_t)TIM2_CR1_OPM;
      0004AE C6 53 00         [ 1] 1282 	ld	a, 0x5300
                           0004B1  1283 	Sstm8s_tim2$TIM2_SelectOnePulseMode$377 ==.
                                   1284 ;	./STM8S_StdPeriph_Lib/Libraries/STM8S_StdPeriph_Driver/src/stm8s_tim2.c: 446: if (TIM2_OPMode != TIM2_OPMODE_REPETITIVE)
      0004B1 0D 01            [ 1] 1285 	tnz	(0x01, sp)
      0004B3 27 07            [ 1] 1286 	jreq	00102$
                           0004B5  1287 	Sstm8s_tim2$TIM2_SelectOnePulseMode$378 ==.
                           0004B5  1288 	Sstm8s_tim2$TIM2_SelectOnePulseMode$379 ==.
                                   1289 ;	./STM8S_StdPeriph_Lib/Libraries/STM8S_StdPeriph_Driver/src/stm8s_tim2.c: 448: TIM2->CR1 |= (uint8_t)TIM2_CR1_OPM;
      0004B5 AA 08            [ 1] 1290 	or	a, #0x08
      0004B7 C7 53 00         [ 1] 1291 	ld	0x5300, a
                           0004BA  1292 	Sstm8s_tim2$TIM2_SelectOnePulseMode$380 ==.
      0004BA 20 05            [ 2] 1293 	jra	00104$
      0004BC                       1294 00102$:
                           0004BC  1295 	Sstm8s_tim2$TIM2_SelectOnePulseMode$381 ==.
                           0004BC  1296 	Sstm8s_tim2$TIM2_SelectOnePulseMode$382 ==.
                                   1297 ;	./STM8S_StdPeriph_Lib/Libraries/STM8S_StdPeriph_Driver/src/stm8s_tim2.c: 452: TIM2->CR1 &= (uint8_t)(~TIM2_CR1_OPM);
      0004BC A4 F7            [ 1] 1298 	and	a, #0xf7
      0004BE C7 53 00         [ 1] 1299 	ld	0x5300, a
                           0004C1  1300 	Sstm8s_tim2$TIM2_SelectOnePulseMode$383 ==.
      0004C1                       1301 00104$:
                           0004C1  1302 	Sstm8s_tim2$TIM2_SelectOnePulseMode$384 ==.
                                   1303 ;	./STM8S_StdPeriph_Lib/Libraries/STM8S_StdPeriph_Driver/src/stm8s_tim2.c: 454: }
      0004C1 84               [ 1] 1304 	pop	a
                           0004C2  1305 	Sstm8s_tim2$TIM2_SelectOnePulseMode$385 ==.
                           0004C2  1306 	Sstm8s_tim2$TIM2_SelectOnePulseMode$386 ==.
                           0004C2  1307 	XG$TIM2_SelectOnePulseMode$0$0 ==.
      0004C2 81               [ 4] 1308 	ret
                           0004C3  1309 	Sstm8s_tim2$TIM2_SelectOnePulseMode$387 ==.
                           0004C3  1310 	Sstm8s_tim2$TIM2_PrescalerConfig$388 ==.
                                   1311 ;	./STM8S_StdPeriph_Lib/Libraries/STM8S_StdPeriph_Driver/src/stm8s_tim2.c: 484: void TIM2_PrescalerConfig(TIM2_Prescaler_TypeDef Prescaler,
                                   1312 ;	-----------------------------------------
                                   1313 ;	 function TIM2_PrescalerConfig
                                   1314 ;	-----------------------------------------
      0004C3                       1315 _TIM2_PrescalerConfig:
                           0004C3  1316 	Sstm8s_tim2$TIM2_PrescalerConfig$389 ==.
                           0004C3  1317 	Sstm8s_tim2$TIM2_PrescalerConfig$390 ==.
                                   1318 ;	./STM8S_StdPeriph_Lib/Libraries/STM8S_StdPeriph_Driver/src/stm8s_tim2.c: 488: assert_param(IS_TIM2_PRESCALER_RELOAD_OK(TIM2_PSCReloadMode));
      0004C3 0D 03            [ 1] 1319 	tnz	(0x03, sp)
      0004C5 27 12            [ 1] 1320 	jreq	00104$
      0004C7 0D 03            [ 1] 1321 	tnz	(0x03, sp)
      0004C9 26 0E            [ 1] 1322 	jrne	00104$
      0004CB 88               [ 1] 1323 	push	a
                           0004CC  1324 	Sstm8s_tim2$TIM2_PrescalerConfig$391 ==.
      0004CC 4B E8            [ 1] 1325 	push	#0xe8
                           0004CE  1326 	Sstm8s_tim2$TIM2_PrescalerConfig$392 ==.
      0004CE 4B 01            [ 1] 1327 	push	#0x01
                           0004D0  1328 	Sstm8s_tim2$TIM2_PrescalerConfig$393 ==.
      0004D0 5F               [ 1] 1329 	clrw	x
      0004D1 89               [ 2] 1330 	pushw	x
                           0004D2  1331 	Sstm8s_tim2$TIM2_PrescalerConfig$394 ==.
      0004D2 AEr00r00         [ 2] 1332 	ldw	x, #(___str_0+0)
      0004D5 CDr00r00         [ 4] 1333 	call	_assert_failed
                           0004D8  1334 	Sstm8s_tim2$TIM2_PrescalerConfig$395 ==.
      0004D8 84               [ 1] 1335 	pop	a
                           0004D9  1336 	Sstm8s_tim2$TIM2_PrescalerConfig$396 ==.
      0004D9                       1337 00104$:
                           0004D9  1338 	Sstm8s_tim2$TIM2_PrescalerConfig$397 ==.
                                   1339 ;	./STM8S_StdPeriph_Lib/Libraries/STM8S_StdPeriph_Driver/src/stm8s_tim2.c: 489: assert_param(IS_TIM2_PRESCALER_OK(Prescaler));
      0004D9 4D               [ 1] 1340 	tnz	a
      0004DA 27 4A            [ 1] 1341 	jreq	00109$
      0004DC A1 01            [ 1] 1342 	cp	a, #0x01
      0004DE 27 46            [ 1] 1343 	jreq	00109$
                           0004E0  1344 	Sstm8s_tim2$TIM2_PrescalerConfig$398 ==.
      0004E0 A1 02            [ 1] 1345 	cp	a, #0x02
      0004E2 27 42            [ 1] 1346 	jreq	00109$
                           0004E4  1347 	Sstm8s_tim2$TIM2_PrescalerConfig$399 ==.
      0004E4 A1 03            [ 1] 1348 	cp	a, #0x03
      0004E6 27 3E            [ 1] 1349 	jreq	00109$
                           0004E8  1350 	Sstm8s_tim2$TIM2_PrescalerConfig$400 ==.
      0004E8 A1 04            [ 1] 1351 	cp	a, #0x04
      0004EA 27 3A            [ 1] 1352 	jreq	00109$
                           0004EC  1353 	Sstm8s_tim2$TIM2_PrescalerConfig$401 ==.
      0004EC A1 05            [ 1] 1354 	cp	a, #0x05
      0004EE 27 36            [ 1] 1355 	jreq	00109$
                           0004F0  1356 	Sstm8s_tim2$TIM2_PrescalerConfig$402 ==.
      0004F0 A1 06            [ 1] 1357 	cp	a, #0x06
      0004F2 27 32            [ 1] 1358 	jreq	00109$
                           0004F4  1359 	Sstm8s_tim2$TIM2_PrescalerConfig$403 ==.
      0004F4 A1 07            [ 1] 1360 	cp	a, #0x07
      0004F6 27 2E            [ 1] 1361 	jreq	00109$
                           0004F8  1362 	Sstm8s_tim2$TIM2_PrescalerConfig$404 ==.
      0004F8 A1 08            [ 1] 1363 	cp	a, #0x08
      0004FA 27 2A            [ 1] 1364 	jreq	00109$
                           0004FC  1365 	Sstm8s_tim2$TIM2_PrescalerConfig$405 ==.
      0004FC A1 09            [ 1] 1366 	cp	a, #0x09
      0004FE 27 26            [ 1] 1367 	jreq	00109$
                           000500  1368 	Sstm8s_tim2$TIM2_PrescalerConfig$406 ==.
      000500 A1 0A            [ 1] 1369 	cp	a, #0x0a
      000502 27 22            [ 1] 1370 	jreq	00109$
                           000504  1371 	Sstm8s_tim2$TIM2_PrescalerConfig$407 ==.
      000504 A1 0B            [ 1] 1372 	cp	a, #0x0b
      000506 27 1E            [ 1] 1373 	jreq	00109$
                           000508  1374 	Sstm8s_tim2$TIM2_PrescalerConfig$408 ==.
      000508 A1 0C            [ 1] 1375 	cp	a, #0x0c
      00050A 27 1A            [ 1] 1376 	jreq	00109$
                           00050C  1377 	Sstm8s_tim2$TIM2_PrescalerConfig$409 ==.
      00050C A1 0D            [ 1] 1378 	cp	a, #0x0d
      00050E 27 16            [ 1] 1379 	jreq	00109$
                           000510  1380 	Sstm8s_tim2$TIM2_PrescalerConfig$410 ==.
      000510 A1 0E            [ 1] 1381 	cp	a, #0x0e
      000512 27 12            [ 1] 1382 	jreq	00109$
                           000514  1383 	Sstm8s_tim2$TIM2_PrescalerConfig$411 ==.
      000514 A1 0F            [ 1] 1384 	cp	a, #0x0f
      000516 27 0E            [ 1] 1385 	jreq	00109$
                           000518  1386 	Sstm8s_tim2$TIM2_PrescalerConfig$412 ==.
      000518 88               [ 1] 1387 	push	a
                           000519  1388 	Sstm8s_tim2$TIM2_PrescalerConfig$413 ==.
      000519 4B E9            [ 1] 1389 	push	#0xe9
                           00051B  1390 	Sstm8s_tim2$TIM2_PrescalerConfig$414 ==.
      00051B 4B 01            [ 1] 1391 	push	#0x01
                           00051D  1392 	Sstm8s_tim2$TIM2_PrescalerConfig$415 ==.
      00051D 5F               [ 1] 1393 	clrw	x
      00051E 89               [ 2] 1394 	pushw	x
                           00051F  1395 	Sstm8s_tim2$TIM2_PrescalerConfig$416 ==.
      00051F AEr00r00         [ 2] 1396 	ldw	x, #(___str_0+0)
      000522 CDr00r00         [ 4] 1397 	call	_assert_failed
                           000525  1398 	Sstm8s_tim2$TIM2_PrescalerConfig$417 ==.
      000525 84               [ 1] 1399 	pop	a
                           000526  1400 	Sstm8s_tim2$TIM2_PrescalerConfig$418 ==.
      000526                       1401 00109$:
                           000526  1402 	Sstm8s_tim2$TIM2_PrescalerConfig$419 ==.
                                   1403 ;	./STM8S_StdPeriph_Lib/Libraries/STM8S_StdPeriph_Driver/src/stm8s_tim2.c: 492: TIM2->PSCR = (uint8_t)Prescaler;
      000526 C7 53 0E         [ 1] 1404 	ld	0x530e, a
                           000529  1405 	Sstm8s_tim2$TIM2_PrescalerConfig$420 ==.
                                   1406 ;	./STM8S_StdPeriph_Lib/Libraries/STM8S_StdPeriph_Driver/src/stm8s_tim2.c: 495: TIM2->EGR = (uint8_t)TIM2_PSCReloadMode;
      000529 7B 03            [ 1] 1407 	ld	a, (0x03, sp)
      00052B C7 53 06         [ 1] 1408 	ld	0x5306, a
                           00052E  1409 	Sstm8s_tim2$TIM2_PrescalerConfig$421 ==.
                                   1410 ;	./STM8S_StdPeriph_Lib/Libraries/STM8S_StdPeriph_Driver/src/stm8s_tim2.c: 496: }
      00052E 85               [ 2] 1411 	popw	x
                           00052F  1412 	Sstm8s_tim2$TIM2_PrescalerConfig$422 ==.
      00052F 84               [ 1] 1413 	pop	a
                           000530  1414 	Sstm8s_tim2$TIM2_PrescalerConfig$423 ==.
      000530 FC               [ 2] 1415 	jp	(x)
                           000531  1416 	Sstm8s_tim2$TIM2_PrescalerConfig$424 ==.
                           000531  1417 	Sstm8s_tim2$TIM2_ForcedOC1Config$425 ==.
                                   1418 ;	./STM8S_StdPeriph_Lib/Libraries/STM8S_StdPeriph_Driver/src/stm8s_tim2.c: 507: void TIM2_ForcedOC1Config(TIM2_ForcedAction_TypeDef TIM2_ForcedAction)
                                   1419 ;	-----------------------------------------
                                   1420 ;	 function TIM2_ForcedOC1Config
                                   1421 ;	-----------------------------------------
      000531                       1422 _TIM2_ForcedOC1Config:
                           000531  1423 	Sstm8s_tim2$TIM2_ForcedOC1Config$426 ==.
      000531 88               [ 1] 1424 	push	a
                           000532  1425 	Sstm8s_tim2$TIM2_ForcedOC1Config$427 ==.
                           000532  1426 	Sstm8s_tim2$TIM2_ForcedOC1Config$428 ==.
                                   1427 ;	./STM8S_StdPeriph_Lib/Libraries/STM8S_StdPeriph_Driver/src/stm8s_tim2.c: 510: assert_param(IS_TIM2_FORCED_ACTION_OK(TIM2_ForcedAction));
      000532 6B 01            [ 1] 1428 	ld	(0x01, sp), a
      000534 A1 50            [ 1] 1429 	cp	a, #0x50
      000536 27 12            [ 1] 1430 	jreq	00104$
                           000538  1431 	Sstm8s_tim2$TIM2_ForcedOC1Config$429 ==.
      000538 7B 01            [ 1] 1432 	ld	a, (0x01, sp)
      00053A A1 40            [ 1] 1433 	cp	a, #0x40
      00053C 27 0C            [ 1] 1434 	jreq	00104$
                           00053E  1435 	Sstm8s_tim2$TIM2_ForcedOC1Config$430 ==.
      00053E 4B FE            [ 1] 1436 	push	#0xfe
                           000540  1437 	Sstm8s_tim2$TIM2_ForcedOC1Config$431 ==.
      000540 4B 01            [ 1] 1438 	push	#0x01
                           000542  1439 	Sstm8s_tim2$TIM2_ForcedOC1Config$432 ==.
      000542 5F               [ 1] 1440 	clrw	x
      000543 89               [ 2] 1441 	pushw	x
                           000544  1442 	Sstm8s_tim2$TIM2_ForcedOC1Config$433 ==.
      000544 AEr00r00         [ 2] 1443 	ldw	x, #(___str_0+0)
      000547 CDr00r00         [ 4] 1444 	call	_assert_failed
                           00054A  1445 	Sstm8s_tim2$TIM2_ForcedOC1Config$434 ==.
      00054A                       1446 00104$:
                           00054A  1447 	Sstm8s_tim2$TIM2_ForcedOC1Config$435 ==.
                                   1448 ;	./STM8S_StdPeriph_Lib/Libraries/STM8S_StdPeriph_Driver/src/stm8s_tim2.c: 513: TIM2->CCMR1  =  (uint8_t)((uint8_t)(TIM2->CCMR1 & (uint8_t)(~TIM2_CCMR_OCM))  
      00054A C6 53 07         [ 1] 1449 	ld	a, 0x5307
      00054D A4 8F            [ 1] 1450 	and	a, #0x8f
                           00054F  1451 	Sstm8s_tim2$TIM2_ForcedOC1Config$436 ==.
                                   1452 ;	./STM8S_StdPeriph_Lib/Libraries/STM8S_StdPeriph_Driver/src/stm8s_tim2.c: 514: | (uint8_t)TIM2_ForcedAction);
      00054F 1A 01            [ 1] 1453 	or	a, (0x01, sp)
      000551 C7 53 07         [ 1] 1454 	ld	0x5307, a
                           000554  1455 	Sstm8s_tim2$TIM2_ForcedOC1Config$437 ==.
                                   1456 ;	./STM8S_StdPeriph_Lib/Libraries/STM8S_StdPeriph_Driver/src/stm8s_tim2.c: 515: }
      000554 84               [ 1] 1457 	pop	a
                           000555  1458 	Sstm8s_tim2$TIM2_ForcedOC1Config$438 ==.
                           000555  1459 	Sstm8s_tim2$TIM2_ForcedOC1Config$439 ==.
                           000555  1460 	XG$TIM2_ForcedOC1Config$0$0 ==.
      000555 81               [ 4] 1461 	ret
                           000556  1462 	Sstm8s_tim2$TIM2_ForcedOC1Config$440 ==.
                           000556  1463 	Sstm8s_tim2$TIM2_ForcedOC2Config$441 ==.
                                   1464 ;	./STM8S_StdPeriph_Lib/Libraries/STM8S_StdPeriph_Driver/src/stm8s_tim2.c: 526: void TIM2_ForcedOC2Config(TIM2_ForcedAction_TypeDef TIM2_ForcedAction)
                                   1465 ;	-----------------------------------------
                                   1466 ;	 function TIM2_ForcedOC2Config
                                   1467 ;	-----------------------------------------
      000556                       1468 _TIM2_ForcedOC2Config:
                           000556  1469 	Sstm8s_tim2$TIM2_ForcedOC2Config$442 ==.
      000556 88               [ 1] 1470 	push	a
                           000557  1471 	Sstm8s_tim2$TIM2_ForcedOC2Config$443 ==.
                           000557  1472 	Sstm8s_tim2$TIM2_ForcedOC2Config$444 ==.
                                   1473 ;	./STM8S_StdPeriph_Lib/Libraries/STM8S_StdPeriph_Driver/src/stm8s_tim2.c: 529: assert_param(IS_TIM2_FORCED_ACTION_OK(TIM2_ForcedAction));
      000557 6B 01            [ 1] 1474 	ld	(0x01, sp), a
      000559 A1 50            [ 1] 1475 	cp	a, #0x50
      00055B 27 12            [ 1] 1476 	jreq	00104$
                           00055D  1477 	Sstm8s_tim2$TIM2_ForcedOC2Config$445 ==.
      00055D 7B 01            [ 1] 1478 	ld	a, (0x01, sp)
      00055F A1 40            [ 1] 1479 	cp	a, #0x40
      000561 27 0C            [ 1] 1480 	jreq	00104$
                           000563  1481 	Sstm8s_tim2$TIM2_ForcedOC2Config$446 ==.
      000563 4B 11            [ 1] 1482 	push	#0x11
                           000565  1483 	Sstm8s_tim2$TIM2_ForcedOC2Config$447 ==.
      000565 4B 02            [ 1] 1484 	push	#0x02
                           000567  1485 	Sstm8s_tim2$TIM2_ForcedOC2Config$448 ==.
      000567 5F               [ 1] 1486 	clrw	x
      000568 89               [ 2] 1487 	pushw	x
                           000569  1488 	Sstm8s_tim2$TIM2_ForcedOC2Config$449 ==.
      000569 AEr00r00         [ 2] 1489 	ldw	x, #(___str_0+0)
      00056C CDr00r00         [ 4] 1490 	call	_assert_failed
                           00056F  1491 	Sstm8s_tim2$TIM2_ForcedOC2Config$450 ==.
      00056F                       1492 00104$:
                           00056F  1493 	Sstm8s_tim2$TIM2_ForcedOC2Config$451 ==.
                                   1494 ;	./STM8S_StdPeriph_Lib/Libraries/STM8S_StdPeriph_Driver/src/stm8s_tim2.c: 532: TIM2->CCMR2 = (uint8_t)((uint8_t)(TIM2->CCMR2 & (uint8_t)(~TIM2_CCMR_OCM))  
      00056F C6 53 08         [ 1] 1495 	ld	a, 0x5308
      000572 A4 8F            [ 1] 1496 	and	a, #0x8f
                           000574  1497 	Sstm8s_tim2$TIM2_ForcedOC2Config$452 ==.
                                   1498 ;	./STM8S_StdPeriph_Lib/Libraries/STM8S_StdPeriph_Driver/src/stm8s_tim2.c: 533: | (uint8_t)TIM2_ForcedAction);
      000574 1A 01            [ 1] 1499 	or	a, (0x01, sp)
      000576 C7 53 08         [ 1] 1500 	ld	0x5308, a
                           000579  1501 	Sstm8s_tim2$TIM2_ForcedOC2Config$453 ==.
                                   1502 ;	./STM8S_StdPeriph_Lib/Libraries/STM8S_StdPeriph_Driver/src/stm8s_tim2.c: 534: }
      000579 84               [ 1] 1503 	pop	a
                           00057A  1504 	Sstm8s_tim2$TIM2_ForcedOC2Config$454 ==.
                           00057A  1505 	Sstm8s_tim2$TIM2_ForcedOC2Config$455 ==.
                           00057A  1506 	XG$TIM2_ForcedOC2Config$0$0 ==.
      00057A 81               [ 4] 1507 	ret
                           00057B  1508 	Sstm8s_tim2$TIM2_ForcedOC2Config$456 ==.
                           00057B  1509 	Sstm8s_tim2$TIM2_ForcedOC3Config$457 ==.
                                   1510 ;	./STM8S_StdPeriph_Lib/Libraries/STM8S_StdPeriph_Driver/src/stm8s_tim2.c: 545: void TIM2_ForcedOC3Config(TIM2_ForcedAction_TypeDef TIM2_ForcedAction)
                                   1511 ;	-----------------------------------------
                                   1512 ;	 function TIM2_ForcedOC3Config
                                   1513 ;	-----------------------------------------
      00057B                       1514 _TIM2_ForcedOC3Config:
                           00057B  1515 	Sstm8s_tim2$TIM2_ForcedOC3Config$458 ==.
      00057B 88               [ 1] 1516 	push	a
                           00057C  1517 	Sstm8s_tim2$TIM2_ForcedOC3Config$459 ==.
                           00057C  1518 	Sstm8s_tim2$TIM2_ForcedOC3Config$460 ==.
                                   1519 ;	./STM8S_StdPeriph_Lib/Libraries/STM8S_StdPeriph_Driver/src/stm8s_tim2.c: 548: assert_param(IS_TIM2_FORCED_ACTION_OK(TIM2_ForcedAction));
      00057C 6B 01            [ 1] 1520 	ld	(0x01, sp), a
      00057E A1 50            [ 1] 1521 	cp	a, #0x50
      000580 27 12            [ 1] 1522 	jreq	00104$
                           000582  1523 	Sstm8s_tim2$TIM2_ForcedOC3Config$461 ==.
      000582 7B 01            [ 1] 1524 	ld	a, (0x01, sp)
      000584 A1 40            [ 1] 1525 	cp	a, #0x40
      000586 27 0C            [ 1] 1526 	jreq	00104$
                           000588  1527 	Sstm8s_tim2$TIM2_ForcedOC3Config$462 ==.
      000588 4B 24            [ 1] 1528 	push	#0x24
                           00058A  1529 	Sstm8s_tim2$TIM2_ForcedOC3Config$463 ==.
      00058A 4B 02            [ 1] 1530 	push	#0x02
                           00058C  1531 	Sstm8s_tim2$TIM2_ForcedOC3Config$464 ==.
      00058C 5F               [ 1] 1532 	clrw	x
      00058D 89               [ 2] 1533 	pushw	x
                           00058E  1534 	Sstm8s_tim2$TIM2_ForcedOC3Config$465 ==.
      00058E AEr00r00         [ 2] 1535 	ldw	x, #(___str_0+0)
      000591 CDr00r00         [ 4] 1536 	call	_assert_failed
                           000594  1537 	Sstm8s_tim2$TIM2_ForcedOC3Config$466 ==.
      000594                       1538 00104$:
                           000594  1539 	Sstm8s_tim2$TIM2_ForcedOC3Config$467 ==.
                                   1540 ;	./STM8S_StdPeriph_Lib/Libraries/STM8S_StdPeriph_Driver/src/stm8s_tim2.c: 551: TIM2->CCMR3  =  (uint8_t)((uint8_t)(TIM2->CCMR3 & (uint8_t)(~TIM2_CCMR_OCM))
      000594 C6 53 09         [ 1] 1541 	ld	a, 0x5309
      000597 A4 8F            [ 1] 1542 	and	a, #0x8f
                           000599  1543 	Sstm8s_tim2$TIM2_ForcedOC3Config$468 ==.
                                   1544 ;	./STM8S_StdPeriph_Lib/Libraries/STM8S_StdPeriph_Driver/src/stm8s_tim2.c: 552: | (uint8_t)TIM2_ForcedAction);
      000599 1A 01            [ 1] 1545 	or	a, (0x01, sp)
      00059B C7 53 09         [ 1] 1546 	ld	0x5309, a
                           00059E  1547 	Sstm8s_tim2$TIM2_ForcedOC3Config$469 ==.
                                   1548 ;	./STM8S_StdPeriph_Lib/Libraries/STM8S_StdPeriph_Driver/src/stm8s_tim2.c: 553: }
      00059E 84               [ 1] 1549 	pop	a
                           00059F  1550 	Sstm8s_tim2$TIM2_ForcedOC3Config$470 ==.
                           00059F  1551 	Sstm8s_tim2$TIM2_ForcedOC3Config$471 ==.
                           00059F  1552 	XG$TIM2_ForcedOC3Config$0$0 ==.
      00059F 81               [ 4] 1553 	ret
                           0005A0  1554 	Sstm8s_tim2$TIM2_ForcedOC3Config$472 ==.
                           0005A0  1555 	Sstm8s_tim2$TIM2_ARRPreloadConfig$473 ==.
                                   1556 ;	./STM8S_StdPeriph_Lib/Libraries/STM8S_StdPeriph_Driver/src/stm8s_tim2.c: 561: void TIM2_ARRPreloadConfig(FunctionalState NewState)
                                   1557 ;	-----------------------------------------
                                   1558 ;	 function TIM2_ARRPreloadConfig
                                   1559 ;	-----------------------------------------
      0005A0                       1560 _TIM2_ARRPreloadConfig:
                           0005A0  1561 	Sstm8s_tim2$TIM2_ARRPreloadConfig$474 ==.
      0005A0 88               [ 1] 1562 	push	a
                           0005A1  1563 	Sstm8s_tim2$TIM2_ARRPreloadConfig$475 ==.
                           0005A1  1564 	Sstm8s_tim2$TIM2_ARRPreloadConfig$476 ==.
                                   1565 ;	./STM8S_StdPeriph_Lib/Libraries/STM8S_StdPeriph_Driver/src/stm8s_tim2.c: 564: assert_param(IS_FUNCTIONALSTATE_OK(NewState));
      0005A1 6B 01            [ 1] 1566 	ld	(0x01, sp), a
      0005A3 27 10            [ 1] 1567 	jreq	00107$
      0005A5 0D 01            [ 1] 1568 	tnz	(0x01, sp)
      0005A7 26 0C            [ 1] 1569 	jrne	00107$
      0005A9 4B 34            [ 1] 1570 	push	#0x34
                           0005AB  1571 	Sstm8s_tim2$TIM2_ARRPreloadConfig$477 ==.
      0005AB 4B 02            [ 1] 1572 	push	#0x02
                           0005AD  1573 	Sstm8s_tim2$TIM2_ARRPreloadConfig$478 ==.
      0005AD 5F               [ 1] 1574 	clrw	x
      0005AE 89               [ 2] 1575 	pushw	x
                           0005AF  1576 	Sstm8s_tim2$TIM2_ARRPreloadConfig$479 ==.
      0005AF AEr00r00         [ 2] 1577 	ldw	x, #(___str_0+0)
      0005B2 CDr00r00         [ 4] 1578 	call	_assert_failed
                           0005B5  1579 	Sstm8s_tim2$TIM2_ARRPreloadConfig$480 ==.
      0005B5                       1580 00107$:
                           0005B5  1581 	Sstm8s_tim2$TIM2_ARRPreloadConfig$481 ==.
                                   1582 ;	./STM8S_StdPeriph_Lib/Libraries/STM8S_StdPeriph_Driver/src/stm8s_tim2.c: 569: TIM2->CR1 |= (uint8_t)TIM2_CR1_ARPE;
      0005B5 C6 53 00         [ 1] 1583 	ld	a, 0x5300
                           0005B8  1584 	Sstm8s_tim2$TIM2_ARRPreloadConfig$482 ==.
                                   1585 ;	./STM8S_StdPeriph_Lib/Libraries/STM8S_StdPeriph_Driver/src/stm8s_tim2.c: 567: if (NewState != DISABLE)
      0005B8 0D 01            [ 1] 1586 	tnz	(0x01, sp)
      0005BA 27 07            [ 1] 1587 	jreq	00102$
                           0005BC  1588 	Sstm8s_tim2$TIM2_ARRPreloadConfig$483 ==.
                           0005BC  1589 	Sstm8s_tim2$TIM2_ARRPreloadConfig$484 ==.
                                   1590 ;	./STM8S_StdPeriph_Lib/Libraries/STM8S_StdPeriph_Driver/src/stm8s_tim2.c: 569: TIM2->CR1 |= (uint8_t)TIM2_CR1_ARPE;
      0005BC AA 80            [ 1] 1591 	or	a, #0x80
      0005BE C7 53 00         [ 1] 1592 	ld	0x5300, a
                           0005C1  1593 	Sstm8s_tim2$TIM2_ARRPreloadConfig$485 ==.
      0005C1 20 05            [ 2] 1594 	jra	00104$
      0005C3                       1595 00102$:
                           0005C3  1596 	Sstm8s_tim2$TIM2_ARRPreloadConfig$486 ==.
                           0005C3  1597 	Sstm8s_tim2$TIM2_ARRPreloadConfig$487 ==.
                                   1598 ;	./STM8S_StdPeriph_Lib/Libraries/STM8S_StdPeriph_Driver/src/stm8s_tim2.c: 573: TIM2->CR1 &= (uint8_t)(~TIM2_CR1_ARPE);
      0005C3 A4 7F            [ 1] 1599 	and	a, #0x7f
      0005C5 C7 53 00         [ 1] 1600 	ld	0x5300, a
                           0005C8  1601 	Sstm8s_tim2$TIM2_ARRPreloadConfig$488 ==.
      0005C8                       1602 00104$:
                           0005C8  1603 	Sstm8s_tim2$TIM2_ARRPreloadConfig$489 ==.
                                   1604 ;	./STM8S_StdPeriph_Lib/Libraries/STM8S_StdPeriph_Driver/src/stm8s_tim2.c: 575: }
      0005C8 84               [ 1] 1605 	pop	a
                           0005C9  1606 	Sstm8s_tim2$TIM2_ARRPreloadConfig$490 ==.
                           0005C9  1607 	Sstm8s_tim2$TIM2_ARRPreloadConfig$491 ==.
                           0005C9  1608 	XG$TIM2_ARRPreloadConfig$0$0 ==.
      0005C9 81               [ 4] 1609 	ret
                           0005CA  1610 	Sstm8s_tim2$TIM2_ARRPreloadConfig$492 ==.
                           0005CA  1611 	Sstm8s_tim2$TIM2_OC1PreloadConfig$493 ==.
                                   1612 ;	./STM8S_StdPeriph_Lib/Libraries/STM8S_StdPeriph_Driver/src/stm8s_tim2.c: 583: void TIM2_OC1PreloadConfig(FunctionalState NewState)
                                   1613 ;	-----------------------------------------
                                   1614 ;	 function TIM2_OC1PreloadConfig
                                   1615 ;	-----------------------------------------
      0005CA                       1616 _TIM2_OC1PreloadConfig:
                           0005CA  1617 	Sstm8s_tim2$TIM2_OC1PreloadConfig$494 ==.
      0005CA 88               [ 1] 1618 	push	a
                           0005CB  1619 	Sstm8s_tim2$TIM2_OC1PreloadConfig$495 ==.
                           0005CB  1620 	Sstm8s_tim2$TIM2_OC1PreloadConfig$496 ==.
                                   1621 ;	./STM8S_StdPeriph_Lib/Libraries/STM8S_StdPeriph_Driver/src/stm8s_tim2.c: 586: assert_param(IS_FUNCTIONALSTATE_OK(NewState));
      0005CB 6B 01            [ 1] 1622 	ld	(0x01, sp), a
      0005CD 27 10            [ 1] 1623 	jreq	00107$
      0005CF 0D 01            [ 1] 1624 	tnz	(0x01, sp)
      0005D1 26 0C            [ 1] 1625 	jrne	00107$
      0005D3 4B 4A            [ 1] 1626 	push	#0x4a
                           0005D5  1627 	Sstm8s_tim2$TIM2_OC1PreloadConfig$497 ==.
      0005D5 4B 02            [ 1] 1628 	push	#0x02
                           0005D7  1629 	Sstm8s_tim2$TIM2_OC1PreloadConfig$498 ==.
      0005D7 5F               [ 1] 1630 	clrw	x
      0005D8 89               [ 2] 1631 	pushw	x
                           0005D9  1632 	Sstm8s_tim2$TIM2_OC1PreloadConfig$499 ==.
      0005D9 AEr00r00         [ 2] 1633 	ldw	x, #(___str_0+0)
      0005DC CDr00r00         [ 4] 1634 	call	_assert_failed
                           0005DF  1635 	Sstm8s_tim2$TIM2_OC1PreloadConfig$500 ==.
      0005DF                       1636 00107$:
                           0005DF  1637 	Sstm8s_tim2$TIM2_OC1PreloadConfig$501 ==.
                                   1638 ;	./STM8S_StdPeriph_Lib/Libraries/STM8S_StdPeriph_Driver/src/stm8s_tim2.c: 591: TIM2->CCMR1 |= (uint8_t)TIM2_CCMR_OCxPE;
      0005DF C6 53 07         [ 1] 1639 	ld	a, 0x5307
                           0005E2  1640 	Sstm8s_tim2$TIM2_OC1PreloadConfig$502 ==.
                                   1641 ;	./STM8S_StdPeriph_Lib/Libraries/STM8S_StdPeriph_Driver/src/stm8s_tim2.c: 589: if (NewState != DISABLE)
      0005E2 0D 01            [ 1] 1642 	tnz	(0x01, sp)
      0005E4 27 07            [ 1] 1643 	jreq	00102$
                           0005E6  1644 	Sstm8s_tim2$TIM2_OC1PreloadConfig$503 ==.
                           0005E6  1645 	Sstm8s_tim2$TIM2_OC1PreloadConfig$504 ==.
                                   1646 ;	./STM8S_StdPeriph_Lib/Libraries/STM8S_StdPeriph_Driver/src/stm8s_tim2.c: 591: TIM2->CCMR1 |= (uint8_t)TIM2_CCMR_OCxPE;
      0005E6 AA 08            [ 1] 1647 	or	a, #0x08
      0005E8 C7 53 07         [ 1] 1648 	ld	0x5307, a
                           0005EB  1649 	Sstm8s_tim2$TIM2_OC1PreloadConfig$505 ==.
      0005EB 20 05            [ 2] 1650 	jra	00104$
      0005ED                       1651 00102$:
                           0005ED  1652 	Sstm8s_tim2$TIM2_OC1PreloadConfig$506 ==.
                           0005ED  1653 	Sstm8s_tim2$TIM2_OC1PreloadConfig$507 ==.
                                   1654 ;	./STM8S_StdPeriph_Lib/Libraries/STM8S_StdPeriph_Driver/src/stm8s_tim2.c: 595: TIM2->CCMR1 &= (uint8_t)(~TIM2_CCMR_OCxPE);
      0005ED A4 F7            [ 1] 1655 	and	a, #0xf7
      0005EF C7 53 07         [ 1] 1656 	ld	0x5307, a
                           0005F2  1657 	Sstm8s_tim2$TIM2_OC1PreloadConfig$508 ==.
      0005F2                       1658 00104$:
                           0005F2  1659 	Sstm8s_tim2$TIM2_OC1PreloadConfig$509 ==.
                                   1660 ;	./STM8S_StdPeriph_Lib/Libraries/STM8S_StdPeriph_Driver/src/stm8s_tim2.c: 597: }
      0005F2 84               [ 1] 1661 	pop	a
                           0005F3  1662 	Sstm8s_tim2$TIM2_OC1PreloadConfig$510 ==.
                           0005F3  1663 	Sstm8s_tim2$TIM2_OC1PreloadConfig$511 ==.
                           0005F3  1664 	XG$TIM2_OC1PreloadConfig$0$0 ==.
      0005F3 81               [ 4] 1665 	ret
                           0005F4  1666 	Sstm8s_tim2$TIM2_OC1PreloadConfig$512 ==.
                           0005F4  1667 	Sstm8s_tim2$TIM2_OC2PreloadConfig$513 ==.
                                   1668 ;	./STM8S_StdPeriph_Lib/Libraries/STM8S_StdPeriph_Driver/src/stm8s_tim2.c: 605: void TIM2_OC2PreloadConfig(FunctionalState NewState)
                                   1669 ;	-----------------------------------------
                                   1670 ;	 function TIM2_OC2PreloadConfig
                                   1671 ;	-----------------------------------------
      0005F4                       1672 _TIM2_OC2PreloadConfig:
                           0005F4  1673 	Sstm8s_tim2$TIM2_OC2PreloadConfig$514 ==.
      0005F4 88               [ 1] 1674 	push	a
                           0005F5  1675 	Sstm8s_tim2$TIM2_OC2PreloadConfig$515 ==.
                           0005F5  1676 	Sstm8s_tim2$TIM2_OC2PreloadConfig$516 ==.
                                   1677 ;	./STM8S_StdPeriph_Lib/Libraries/STM8S_StdPeriph_Driver/src/stm8s_tim2.c: 608: assert_param(IS_FUNCTIONALSTATE_OK(NewState));
      0005F5 6B 01            [ 1] 1678 	ld	(0x01, sp), a
      0005F7 27 10            [ 1] 1679 	jreq	00107$
      0005F9 0D 01            [ 1] 1680 	tnz	(0x01, sp)
      0005FB 26 0C            [ 1] 1681 	jrne	00107$
      0005FD 4B 60            [ 1] 1682 	push	#0x60
                           0005FF  1683 	Sstm8s_tim2$TIM2_OC2PreloadConfig$517 ==.
      0005FF 4B 02            [ 1] 1684 	push	#0x02
                           000601  1685 	Sstm8s_tim2$TIM2_OC2PreloadConfig$518 ==.
      000601 5F               [ 1] 1686 	clrw	x
      000602 89               [ 2] 1687 	pushw	x
                           000603  1688 	Sstm8s_tim2$TIM2_OC2PreloadConfig$519 ==.
      000603 AEr00r00         [ 2] 1689 	ldw	x, #(___str_0+0)
      000606 CDr00r00         [ 4] 1690 	call	_assert_failed
                           000609  1691 	Sstm8s_tim2$TIM2_OC2PreloadConfig$520 ==.
      000609                       1692 00107$:
                           000609  1693 	Sstm8s_tim2$TIM2_OC2PreloadConfig$521 ==.
                                   1694 ;	./STM8S_StdPeriph_Lib/Libraries/STM8S_StdPeriph_Driver/src/stm8s_tim2.c: 613: TIM2->CCMR2 |= (uint8_t)TIM2_CCMR_OCxPE;
      000609 C6 53 08         [ 1] 1695 	ld	a, 0x5308
                           00060C  1696 	Sstm8s_tim2$TIM2_OC2PreloadConfig$522 ==.
                                   1697 ;	./STM8S_StdPeriph_Lib/Libraries/STM8S_StdPeriph_Driver/src/stm8s_tim2.c: 611: if (NewState != DISABLE)
      00060C 0D 01            [ 1] 1698 	tnz	(0x01, sp)
      00060E 27 07            [ 1] 1699 	jreq	00102$
                           000610  1700 	Sstm8s_tim2$TIM2_OC2PreloadConfig$523 ==.
                           000610  1701 	Sstm8s_tim2$TIM2_OC2PreloadConfig$524 ==.
                                   1702 ;	./STM8S_StdPeriph_Lib/Libraries/STM8S_StdPeriph_Driver/src/stm8s_tim2.c: 613: TIM2->CCMR2 |= (uint8_t)TIM2_CCMR_OCxPE;
      000610 AA 08            [ 1] 1703 	or	a, #0x08
      000612 C7 53 08         [ 1] 1704 	ld	0x5308, a
                           000615  1705 	Sstm8s_tim2$TIM2_OC2PreloadConfig$525 ==.
      000615 20 05            [ 2] 1706 	jra	00104$
      000617                       1707 00102$:
                           000617  1708 	Sstm8s_tim2$TIM2_OC2PreloadConfig$526 ==.
                           000617  1709 	Sstm8s_tim2$TIM2_OC2PreloadConfig$527 ==.
                                   1710 ;	./STM8S_StdPeriph_Lib/Libraries/STM8S_StdPeriph_Driver/src/stm8s_tim2.c: 617: TIM2->CCMR2 &= (uint8_t)(~TIM2_CCMR_OCxPE);
      000617 A4 F7            [ 1] 1711 	and	a, #0xf7
      000619 C7 53 08         [ 1] 1712 	ld	0x5308, a
                           00061C  1713 	Sstm8s_tim2$TIM2_OC2PreloadConfig$528 ==.
      00061C                       1714 00104$:
                           00061C  1715 	Sstm8s_tim2$TIM2_OC2PreloadConfig$529 ==.
                                   1716 ;	./STM8S_StdPeriph_Lib/Libraries/STM8S_StdPeriph_Driver/src/stm8s_tim2.c: 619: }
      00061C 84               [ 1] 1717 	pop	a
                           00061D  1718 	Sstm8s_tim2$TIM2_OC2PreloadConfig$530 ==.
                           00061D  1719 	Sstm8s_tim2$TIM2_OC2PreloadConfig$531 ==.
                           00061D  1720 	XG$TIM2_OC2PreloadConfig$0$0 ==.
      00061D 81               [ 4] 1721 	ret
                           00061E  1722 	Sstm8s_tim2$TIM2_OC2PreloadConfig$532 ==.
                           00061E  1723 	Sstm8s_tim2$TIM2_OC3PreloadConfig$533 ==.
                                   1724 ;	./STM8S_StdPeriph_Lib/Libraries/STM8S_StdPeriph_Driver/src/stm8s_tim2.c: 627: void TIM2_OC3PreloadConfig(FunctionalState NewState)
                                   1725 ;	-----------------------------------------
                                   1726 ;	 function TIM2_OC3PreloadConfig
                                   1727 ;	-----------------------------------------
      00061E                       1728 _TIM2_OC3PreloadConfig:
                           00061E  1729 	Sstm8s_tim2$TIM2_OC3PreloadConfig$534 ==.
      00061E 88               [ 1] 1730 	push	a
                           00061F  1731 	Sstm8s_tim2$TIM2_OC3PreloadConfig$535 ==.
                           00061F  1732 	Sstm8s_tim2$TIM2_OC3PreloadConfig$536 ==.
                                   1733 ;	./STM8S_StdPeriph_Lib/Libraries/STM8S_StdPeriph_Driver/src/stm8s_tim2.c: 630: assert_param(IS_FUNCTIONALSTATE_OK(NewState));
      00061F 6B 01            [ 1] 1734 	ld	(0x01, sp), a
      000621 27 10            [ 1] 1735 	jreq	00107$
      000623 0D 01            [ 1] 1736 	tnz	(0x01, sp)
      000625 26 0C            [ 1] 1737 	jrne	00107$
      000627 4B 76            [ 1] 1738 	push	#0x76
                           000629  1739 	Sstm8s_tim2$TIM2_OC3PreloadConfig$537 ==.
      000629 4B 02            [ 1] 1740 	push	#0x02
                           00062B  1741 	Sstm8s_tim2$TIM2_OC3PreloadConfig$538 ==.
      00062B 5F               [ 1] 1742 	clrw	x
      00062C 89               [ 2] 1743 	pushw	x
                           00062D  1744 	Sstm8s_tim2$TIM2_OC3PreloadConfig$539 ==.
      00062D AEr00r00         [ 2] 1745 	ldw	x, #(___str_0+0)
      000630 CDr00r00         [ 4] 1746 	call	_assert_failed
                           000633  1747 	Sstm8s_tim2$TIM2_OC3PreloadConfig$540 ==.
      000633                       1748 00107$:
                           000633  1749 	Sstm8s_tim2$TIM2_OC3PreloadConfig$541 ==.
                                   1750 ;	./STM8S_StdPeriph_Lib/Libraries/STM8S_StdPeriph_Driver/src/stm8s_tim2.c: 635: TIM2->CCMR3 |= (uint8_t)TIM2_CCMR_OCxPE;
      000633 C6 53 09         [ 1] 1751 	ld	a, 0x5309
                           000636  1752 	Sstm8s_tim2$TIM2_OC3PreloadConfig$542 ==.
                                   1753 ;	./STM8S_StdPeriph_Lib/Libraries/STM8S_StdPeriph_Driver/src/stm8s_tim2.c: 633: if (NewState != DISABLE)
      000636 0D 01            [ 1] 1754 	tnz	(0x01, sp)
      000638 27 07            [ 1] 1755 	jreq	00102$
                           00063A  1756 	Sstm8s_tim2$TIM2_OC3PreloadConfig$543 ==.
                           00063A  1757 	Sstm8s_tim2$TIM2_OC3PreloadConfig$544 ==.
                                   1758 ;	./STM8S_StdPeriph_Lib/Libraries/STM8S_StdPeriph_Driver/src/stm8s_tim2.c: 635: TIM2->CCMR3 |= (uint8_t)TIM2_CCMR_OCxPE;
      00063A AA 08            [ 1] 1759 	or	a, #0x08
      00063C C7 53 09         [ 1] 1760 	ld	0x5309, a
                           00063F  1761 	Sstm8s_tim2$TIM2_OC3PreloadConfig$545 ==.
      00063F 20 05            [ 2] 1762 	jra	00104$
      000641                       1763 00102$:
                           000641  1764 	Sstm8s_tim2$TIM2_OC3PreloadConfig$546 ==.
                           000641  1765 	Sstm8s_tim2$TIM2_OC3PreloadConfig$547 ==.
                                   1766 ;	./STM8S_StdPeriph_Lib/Libraries/STM8S_StdPeriph_Driver/src/stm8s_tim2.c: 639: TIM2->CCMR3 &= (uint8_t)(~TIM2_CCMR_OCxPE);
      000641 A4 F7            [ 1] 1767 	and	a, #0xf7
      000643 C7 53 09         [ 1] 1768 	ld	0x5309, a
                           000646  1769 	Sstm8s_tim2$TIM2_OC3PreloadConfig$548 ==.
      000646                       1770 00104$:
                           000646  1771 	Sstm8s_tim2$TIM2_OC3PreloadConfig$549 ==.
                                   1772 ;	./STM8S_StdPeriph_Lib/Libraries/STM8S_StdPeriph_Driver/src/stm8s_tim2.c: 641: }
      000646 84               [ 1] 1773 	pop	a
                           000647  1774 	Sstm8s_tim2$TIM2_OC3PreloadConfig$550 ==.
                           000647  1775 	Sstm8s_tim2$TIM2_OC3PreloadConfig$551 ==.
                           000647  1776 	XG$TIM2_OC3PreloadConfig$0$0 ==.
      000647 81               [ 4] 1777 	ret
                           000648  1778 	Sstm8s_tim2$TIM2_OC3PreloadConfig$552 ==.
                           000648  1779 	Sstm8s_tim2$TIM2_GenerateEvent$553 ==.
                                   1780 ;	./STM8S_StdPeriph_Lib/Libraries/STM8S_StdPeriph_Driver/src/stm8s_tim2.c: 653: void TIM2_GenerateEvent(TIM2_EventSource_TypeDef TIM2_EventSource)
                                   1781 ;	-----------------------------------------
                                   1782 ;	 function TIM2_GenerateEvent
                                   1783 ;	-----------------------------------------
      000648                       1784 _TIM2_GenerateEvent:
                           000648  1785 	Sstm8s_tim2$TIM2_GenerateEvent$554 ==.
                           000648  1786 	Sstm8s_tim2$TIM2_GenerateEvent$555 ==.
                                   1787 ;	./STM8S_StdPeriph_Lib/Libraries/STM8S_StdPeriph_Driver/src/stm8s_tim2.c: 656: assert_param(IS_TIM2_EVENT_SOURCE_OK(TIM2_EventSource));
      000648 4D               [ 1] 1788 	tnz	a
      000649 26 0E            [ 1] 1789 	jrne	00104$
      00064B 88               [ 1] 1790 	push	a
                           00064C  1791 	Sstm8s_tim2$TIM2_GenerateEvent$556 ==.
      00064C 4B 90            [ 1] 1792 	push	#0x90
                           00064E  1793 	Sstm8s_tim2$TIM2_GenerateEvent$557 ==.
      00064E 4B 02            [ 1] 1794 	push	#0x02
                           000650  1795 	Sstm8s_tim2$TIM2_GenerateEvent$558 ==.
      000650 5F               [ 1] 1796 	clrw	x
      000651 89               [ 2] 1797 	pushw	x
                           000652  1798 	Sstm8s_tim2$TIM2_GenerateEvent$559 ==.
      000652 AEr00r00         [ 2] 1799 	ldw	x, #(___str_0+0)
      000655 CDr00r00         [ 4] 1800 	call	_assert_failed
                           000658  1801 	Sstm8s_tim2$TIM2_GenerateEvent$560 ==.
      000658 84               [ 1] 1802 	pop	a
                           000659  1803 	Sstm8s_tim2$TIM2_GenerateEvent$561 ==.
      000659                       1804 00104$:
                           000659  1805 	Sstm8s_tim2$TIM2_GenerateEvent$562 ==.
                                   1806 ;	./STM8S_StdPeriph_Lib/Libraries/STM8S_StdPeriph_Driver/src/stm8s_tim2.c: 659: TIM2->EGR = (uint8_t)TIM2_EventSource;
      000659 C7 53 06         [ 1] 1807 	ld	0x5306, a
                           00065C  1808 	Sstm8s_tim2$TIM2_GenerateEvent$563 ==.
                                   1809 ;	./STM8S_StdPeriph_Lib/Libraries/STM8S_StdPeriph_Driver/src/stm8s_tim2.c: 660: }
                           00065C  1810 	Sstm8s_tim2$TIM2_GenerateEvent$564 ==.
                           00065C  1811 	XG$TIM2_GenerateEvent$0$0 ==.
      00065C 81               [ 4] 1812 	ret
                           00065D  1813 	Sstm8s_tim2$TIM2_GenerateEvent$565 ==.
                           00065D  1814 	Sstm8s_tim2$TIM2_OC1PolarityConfig$566 ==.
                                   1815 ;	./STM8S_StdPeriph_Lib/Libraries/STM8S_StdPeriph_Driver/src/stm8s_tim2.c: 670: void TIM2_OC1PolarityConfig(TIM2_OCPolarity_TypeDef TIM2_OCPolarity)
                                   1816 ;	-----------------------------------------
                                   1817 ;	 function TIM2_OC1PolarityConfig
                                   1818 ;	-----------------------------------------
      00065D                       1819 _TIM2_OC1PolarityConfig:
                           00065D  1820 	Sstm8s_tim2$TIM2_OC1PolarityConfig$567 ==.
      00065D 88               [ 1] 1821 	push	a
                           00065E  1822 	Sstm8s_tim2$TIM2_OC1PolarityConfig$568 ==.
                           00065E  1823 	Sstm8s_tim2$TIM2_OC1PolarityConfig$569 ==.
                                   1824 ;	./STM8S_StdPeriph_Lib/Libraries/STM8S_StdPeriph_Driver/src/stm8s_tim2.c: 673: assert_param(IS_TIM2_OC_POLARITY_OK(TIM2_OCPolarity));
      00065E 6B 01            [ 1] 1825 	ld	(0x01, sp), a
      000660 27 12            [ 1] 1826 	jreq	00107$
      000662 7B 01            [ 1] 1827 	ld	a, (0x01, sp)
      000664 A1 22            [ 1] 1828 	cp	a, #0x22
      000666 27 0C            [ 1] 1829 	jreq	00107$
                           000668  1830 	Sstm8s_tim2$TIM2_OC1PolarityConfig$570 ==.
      000668 4B A1            [ 1] 1831 	push	#0xa1
                           00066A  1832 	Sstm8s_tim2$TIM2_OC1PolarityConfig$571 ==.
      00066A 4B 02            [ 1] 1833 	push	#0x02
                           00066C  1834 	Sstm8s_tim2$TIM2_OC1PolarityConfig$572 ==.
      00066C 5F               [ 1] 1835 	clrw	x
      00066D 89               [ 2] 1836 	pushw	x
                           00066E  1837 	Sstm8s_tim2$TIM2_OC1PolarityConfig$573 ==.
      00066E AEr00r00         [ 2] 1838 	ldw	x, #(___str_0+0)
      000671 CDr00r00         [ 4] 1839 	call	_assert_failed
                           000674  1840 	Sstm8s_tim2$TIM2_OC1PolarityConfig$574 ==.
      000674                       1841 00107$:
                           000674  1842 	Sstm8s_tim2$TIM2_OC1PolarityConfig$575 ==.
                                   1843 ;	./STM8S_StdPeriph_Lib/Libraries/STM8S_StdPeriph_Driver/src/stm8s_tim2.c: 678: TIM2->CCER1 |= (uint8_t)TIM2_CCER1_CC1P;
      000674 C6 53 0A         [ 1] 1844 	ld	a, 0x530a
                           000677  1845 	Sstm8s_tim2$TIM2_OC1PolarityConfig$576 ==.
                                   1846 ;	./STM8S_StdPeriph_Lib/Libraries/STM8S_StdPeriph_Driver/src/stm8s_tim2.c: 676: if (TIM2_OCPolarity != TIM2_OCPOLARITY_HIGH)
      000677 0D 01            [ 1] 1847 	tnz	(0x01, sp)
      000679 27 07            [ 1] 1848 	jreq	00102$
                           00067B  1849 	Sstm8s_tim2$TIM2_OC1PolarityConfig$577 ==.
                           00067B  1850 	Sstm8s_tim2$TIM2_OC1PolarityConfig$578 ==.
                                   1851 ;	./STM8S_StdPeriph_Lib/Libraries/STM8S_StdPeriph_Driver/src/stm8s_tim2.c: 678: TIM2->CCER1 |= (uint8_t)TIM2_CCER1_CC1P;
      00067B AA 02            [ 1] 1852 	or	a, #0x02
      00067D C7 53 0A         [ 1] 1853 	ld	0x530a, a
                           000680  1854 	Sstm8s_tim2$TIM2_OC1PolarityConfig$579 ==.
      000680 20 05            [ 2] 1855 	jra	00104$
      000682                       1856 00102$:
                           000682  1857 	Sstm8s_tim2$TIM2_OC1PolarityConfig$580 ==.
                           000682  1858 	Sstm8s_tim2$TIM2_OC1PolarityConfig$581 ==.
                                   1859 ;	./STM8S_StdPeriph_Lib/Libraries/STM8S_StdPeriph_Driver/src/stm8s_tim2.c: 682: TIM2->CCER1 &= (uint8_t)(~TIM2_CCER1_CC1P);
      000682 A4 FD            [ 1] 1860 	and	a, #0xfd
      000684 C7 53 0A         [ 1] 1861 	ld	0x530a, a
                           000687  1862 	Sstm8s_tim2$TIM2_OC1PolarityConfig$582 ==.
      000687                       1863 00104$:
                           000687  1864 	Sstm8s_tim2$TIM2_OC1PolarityConfig$583 ==.
                                   1865 ;	./STM8S_StdPeriph_Lib/Libraries/STM8S_StdPeriph_Driver/src/stm8s_tim2.c: 684: }
      000687 84               [ 1] 1866 	pop	a
                           000688  1867 	Sstm8s_tim2$TIM2_OC1PolarityConfig$584 ==.
                           000688  1868 	Sstm8s_tim2$TIM2_OC1PolarityConfig$585 ==.
                           000688  1869 	XG$TIM2_OC1PolarityConfig$0$0 ==.
      000688 81               [ 4] 1870 	ret
                           000689  1871 	Sstm8s_tim2$TIM2_OC1PolarityConfig$586 ==.
                           000689  1872 	Sstm8s_tim2$TIM2_OC2PolarityConfig$587 ==.
                                   1873 ;	./STM8S_StdPeriph_Lib/Libraries/STM8S_StdPeriph_Driver/src/stm8s_tim2.c: 694: void TIM2_OC2PolarityConfig(TIM2_OCPolarity_TypeDef TIM2_OCPolarity)
                                   1874 ;	-----------------------------------------
                                   1875 ;	 function TIM2_OC2PolarityConfig
                                   1876 ;	-----------------------------------------
      000689                       1877 _TIM2_OC2PolarityConfig:
                           000689  1878 	Sstm8s_tim2$TIM2_OC2PolarityConfig$588 ==.
      000689 88               [ 1] 1879 	push	a
                           00068A  1880 	Sstm8s_tim2$TIM2_OC2PolarityConfig$589 ==.
                           00068A  1881 	Sstm8s_tim2$TIM2_OC2PolarityConfig$590 ==.
                                   1882 ;	./STM8S_StdPeriph_Lib/Libraries/STM8S_StdPeriph_Driver/src/stm8s_tim2.c: 697: assert_param(IS_TIM2_OC_POLARITY_OK(TIM2_OCPolarity));
      00068A 6B 01            [ 1] 1883 	ld	(0x01, sp), a
      00068C 27 12            [ 1] 1884 	jreq	00107$
      00068E 7B 01            [ 1] 1885 	ld	a, (0x01, sp)
      000690 A1 22            [ 1] 1886 	cp	a, #0x22
      000692 27 0C            [ 1] 1887 	jreq	00107$
                           000694  1888 	Sstm8s_tim2$TIM2_OC2PolarityConfig$591 ==.
      000694 4B B9            [ 1] 1889 	push	#0xb9
                           000696  1890 	Sstm8s_tim2$TIM2_OC2PolarityConfig$592 ==.
      000696 4B 02            [ 1] 1891 	push	#0x02
                           000698  1892 	Sstm8s_tim2$TIM2_OC2PolarityConfig$593 ==.
      000698 5F               [ 1] 1893 	clrw	x
      000699 89               [ 2] 1894 	pushw	x
                           00069A  1895 	Sstm8s_tim2$TIM2_OC2PolarityConfig$594 ==.
      00069A AEr00r00         [ 2] 1896 	ldw	x, #(___str_0+0)
      00069D CDr00r00         [ 4] 1897 	call	_assert_failed
                           0006A0  1898 	Sstm8s_tim2$TIM2_OC2PolarityConfig$595 ==.
      0006A0                       1899 00107$:
                           0006A0  1900 	Sstm8s_tim2$TIM2_OC2PolarityConfig$596 ==.
                                   1901 ;	./STM8S_StdPeriph_Lib/Libraries/STM8S_StdPeriph_Driver/src/stm8s_tim2.c: 702: TIM2->CCER1 |= TIM2_CCER1_CC2P;
      0006A0 C6 53 0A         [ 1] 1902 	ld	a, 0x530a
                           0006A3  1903 	Sstm8s_tim2$TIM2_OC2PolarityConfig$597 ==.
                                   1904 ;	./STM8S_StdPeriph_Lib/Libraries/STM8S_StdPeriph_Driver/src/stm8s_tim2.c: 700: if (TIM2_OCPolarity != TIM2_OCPOLARITY_HIGH)
      0006A3 0D 01            [ 1] 1905 	tnz	(0x01, sp)
      0006A5 27 07            [ 1] 1906 	jreq	00102$
                           0006A7  1907 	Sstm8s_tim2$TIM2_OC2PolarityConfig$598 ==.
                           0006A7  1908 	Sstm8s_tim2$TIM2_OC2PolarityConfig$599 ==.
                                   1909 ;	./STM8S_StdPeriph_Lib/Libraries/STM8S_StdPeriph_Driver/src/stm8s_tim2.c: 702: TIM2->CCER1 |= TIM2_CCER1_CC2P;
      0006A7 AA 20            [ 1] 1910 	or	a, #0x20
      0006A9 C7 53 0A         [ 1] 1911 	ld	0x530a, a
                           0006AC  1912 	Sstm8s_tim2$TIM2_OC2PolarityConfig$600 ==.
      0006AC 20 05            [ 2] 1913 	jra	00104$
      0006AE                       1914 00102$:
                           0006AE  1915 	Sstm8s_tim2$TIM2_OC2PolarityConfig$601 ==.
                           0006AE  1916 	Sstm8s_tim2$TIM2_OC2PolarityConfig$602 ==.
                                   1917 ;	./STM8S_StdPeriph_Lib/Libraries/STM8S_StdPeriph_Driver/src/stm8s_tim2.c: 706: TIM2->CCER1 &= (uint8_t)(~TIM2_CCER1_CC2P);
      0006AE A4 DF            [ 1] 1918 	and	a, #0xdf
      0006B0 C7 53 0A         [ 1] 1919 	ld	0x530a, a
                           0006B3  1920 	Sstm8s_tim2$TIM2_OC2PolarityConfig$603 ==.
      0006B3                       1921 00104$:
                           0006B3  1922 	Sstm8s_tim2$TIM2_OC2PolarityConfig$604 ==.
                                   1923 ;	./STM8S_StdPeriph_Lib/Libraries/STM8S_StdPeriph_Driver/src/stm8s_tim2.c: 708: }
      0006B3 84               [ 1] 1924 	pop	a
                           0006B4  1925 	Sstm8s_tim2$TIM2_OC2PolarityConfig$605 ==.
                           0006B4  1926 	Sstm8s_tim2$TIM2_OC2PolarityConfig$606 ==.
                           0006B4  1927 	XG$TIM2_OC2PolarityConfig$0$0 ==.
      0006B4 81               [ 4] 1928 	ret
                           0006B5  1929 	Sstm8s_tim2$TIM2_OC2PolarityConfig$607 ==.
                           0006B5  1930 	Sstm8s_tim2$TIM2_OC3PolarityConfig$608 ==.
                                   1931 ;	./STM8S_StdPeriph_Lib/Libraries/STM8S_StdPeriph_Driver/src/stm8s_tim2.c: 718: void TIM2_OC3PolarityConfig(TIM2_OCPolarity_TypeDef TIM2_OCPolarity)
                                   1932 ;	-----------------------------------------
                                   1933 ;	 function TIM2_OC3PolarityConfig
                                   1934 ;	-----------------------------------------
      0006B5                       1935 _TIM2_OC3PolarityConfig:
                           0006B5  1936 	Sstm8s_tim2$TIM2_OC3PolarityConfig$609 ==.
      0006B5 88               [ 1] 1937 	push	a
                           0006B6  1938 	Sstm8s_tim2$TIM2_OC3PolarityConfig$610 ==.
                           0006B6  1939 	Sstm8s_tim2$TIM2_OC3PolarityConfig$611 ==.
                                   1940 ;	./STM8S_StdPeriph_Lib/Libraries/STM8S_StdPeriph_Driver/src/stm8s_tim2.c: 721: assert_param(IS_TIM2_OC_POLARITY_OK(TIM2_OCPolarity));
      0006B6 6B 01            [ 1] 1941 	ld	(0x01, sp), a
      0006B8 27 12            [ 1] 1942 	jreq	00107$
      0006BA 7B 01            [ 1] 1943 	ld	a, (0x01, sp)
      0006BC A1 22            [ 1] 1944 	cp	a, #0x22
      0006BE 27 0C            [ 1] 1945 	jreq	00107$
                           0006C0  1946 	Sstm8s_tim2$TIM2_OC3PolarityConfig$612 ==.
      0006C0 4B D1            [ 1] 1947 	push	#0xd1
                           0006C2  1948 	Sstm8s_tim2$TIM2_OC3PolarityConfig$613 ==.
      0006C2 4B 02            [ 1] 1949 	push	#0x02
                           0006C4  1950 	Sstm8s_tim2$TIM2_OC3PolarityConfig$614 ==.
      0006C4 5F               [ 1] 1951 	clrw	x
      0006C5 89               [ 2] 1952 	pushw	x
                           0006C6  1953 	Sstm8s_tim2$TIM2_OC3PolarityConfig$615 ==.
      0006C6 AEr00r00         [ 2] 1954 	ldw	x, #(___str_0+0)
      0006C9 CDr00r00         [ 4] 1955 	call	_assert_failed
                           0006CC  1956 	Sstm8s_tim2$TIM2_OC3PolarityConfig$616 ==.
      0006CC                       1957 00107$:
                           0006CC  1958 	Sstm8s_tim2$TIM2_OC3PolarityConfig$617 ==.
                                   1959 ;	./STM8S_StdPeriph_Lib/Libraries/STM8S_StdPeriph_Driver/src/stm8s_tim2.c: 726: TIM2->CCER2 |= (uint8_t)TIM2_CCER2_CC3P;
      0006CC C6 53 0B         [ 1] 1960 	ld	a, 0x530b
                           0006CF  1961 	Sstm8s_tim2$TIM2_OC3PolarityConfig$618 ==.
                                   1962 ;	./STM8S_StdPeriph_Lib/Libraries/STM8S_StdPeriph_Driver/src/stm8s_tim2.c: 724: if (TIM2_OCPolarity != TIM2_OCPOLARITY_HIGH)
      0006CF 0D 01            [ 1] 1963 	tnz	(0x01, sp)
      0006D1 27 07            [ 1] 1964 	jreq	00102$
                           0006D3  1965 	Sstm8s_tim2$TIM2_OC3PolarityConfig$619 ==.
                           0006D3  1966 	Sstm8s_tim2$TIM2_OC3PolarityConfig$620 ==.
                                   1967 ;	./STM8S_StdPeriph_Lib/Libraries/STM8S_StdPeriph_Driver/src/stm8s_tim2.c: 726: TIM2->CCER2 |= (uint8_t)TIM2_CCER2_CC3P;
      0006D3 AA 02            [ 1] 1968 	or	a, #0x02
      0006D5 C7 53 0B         [ 1] 1969 	ld	0x530b, a
                           0006D8  1970 	Sstm8s_tim2$TIM2_OC3PolarityConfig$621 ==.
      0006D8 20 05            [ 2] 1971 	jra	00104$
      0006DA                       1972 00102$:
                           0006DA  1973 	Sstm8s_tim2$TIM2_OC3PolarityConfig$622 ==.
                           0006DA  1974 	Sstm8s_tim2$TIM2_OC3PolarityConfig$623 ==.
                                   1975 ;	./STM8S_StdPeriph_Lib/Libraries/STM8S_StdPeriph_Driver/src/stm8s_tim2.c: 730: TIM2->CCER2 &= (uint8_t)(~TIM2_CCER2_CC3P);
      0006DA A4 FD            [ 1] 1976 	and	a, #0xfd
      0006DC C7 53 0B         [ 1] 1977 	ld	0x530b, a
                           0006DF  1978 	Sstm8s_tim2$TIM2_OC3PolarityConfig$624 ==.
      0006DF                       1979 00104$:
                           0006DF  1980 	Sstm8s_tim2$TIM2_OC3PolarityConfig$625 ==.
                                   1981 ;	./STM8S_StdPeriph_Lib/Libraries/STM8S_StdPeriph_Driver/src/stm8s_tim2.c: 732: }
      0006DF 84               [ 1] 1982 	pop	a
                           0006E0  1983 	Sstm8s_tim2$TIM2_OC3PolarityConfig$626 ==.
                           0006E0  1984 	Sstm8s_tim2$TIM2_OC3PolarityConfig$627 ==.
                           0006E0  1985 	XG$TIM2_OC3PolarityConfig$0$0 ==.
      0006E0 81               [ 4] 1986 	ret
                           0006E1  1987 	Sstm8s_tim2$TIM2_OC3PolarityConfig$628 ==.
                           0006E1  1988 	Sstm8s_tim2$TIM2_CCxCmd$629 ==.
                                   1989 ;	./STM8S_StdPeriph_Lib/Libraries/STM8S_StdPeriph_Driver/src/stm8s_tim2.c: 745: void TIM2_CCxCmd(TIM2_Channel_TypeDef TIM2_Channel, FunctionalState NewState)
                                   1990 ;	-----------------------------------------
                                   1991 ;	 function TIM2_CCxCmd
                                   1992 ;	-----------------------------------------
      0006E1                       1993 _TIM2_CCxCmd:
                           0006E1  1994 	Sstm8s_tim2$TIM2_CCxCmd$630 ==.
      0006E1 88               [ 1] 1995 	push	a
                           0006E2  1996 	Sstm8s_tim2$TIM2_CCxCmd$631 ==.
                           0006E2  1997 	Sstm8s_tim2$TIM2_CCxCmd$632 ==.
                                   1998 ;	./STM8S_StdPeriph_Lib/Libraries/STM8S_StdPeriph_Driver/src/stm8s_tim2.c: 748: assert_param(IS_TIM2_CHANNEL_OK(TIM2_Channel));
      0006E2 A1 01            [ 1] 1999 	cp	a, #0x01
      0006E4 26 07            [ 1] 2000 	jrne	00182$
      0006E6 88               [ 1] 2001 	push	a
                           0006E7  2002 	Sstm8s_tim2$TIM2_CCxCmd$633 ==.
      0006E7 A6 01            [ 1] 2003 	ld	a, #0x01
      0006E9 6B 02            [ 1] 2004 	ld	(0x02, sp), a
      0006EB 84               [ 1] 2005 	pop	a
                           0006EC  2006 	Sstm8s_tim2$TIM2_CCxCmd$634 ==.
      0006EC C5                    2007 	.byte 0xc5
      0006ED                       2008 00182$:
      0006ED 0F 01            [ 1] 2009 	clr	(0x01, sp)
      0006EF                       2010 00183$:
                           0006EF  2011 	Sstm8s_tim2$TIM2_CCxCmd$635 ==.
      0006EF 4D               [ 1] 2012 	tnz	a
      0006F0 27 16            [ 1] 2013 	jreq	00119$
      0006F2 0D 01            [ 1] 2014 	tnz	(0x01, sp)
      0006F4 26 12            [ 1] 2015 	jrne	00119$
      0006F6 A1 02            [ 1] 2016 	cp	a, #0x02
      0006F8 27 0E            [ 1] 2017 	jreq	00119$
                           0006FA  2018 	Sstm8s_tim2$TIM2_CCxCmd$636 ==.
      0006FA 88               [ 1] 2019 	push	a
                           0006FB  2020 	Sstm8s_tim2$TIM2_CCxCmd$637 ==.
      0006FB 4B EC            [ 1] 2021 	push	#0xec
                           0006FD  2022 	Sstm8s_tim2$TIM2_CCxCmd$638 ==.
      0006FD 4B 02            [ 1] 2023 	push	#0x02
                           0006FF  2024 	Sstm8s_tim2$TIM2_CCxCmd$639 ==.
      0006FF 5F               [ 1] 2025 	clrw	x
      000700 89               [ 2] 2026 	pushw	x
                           000701  2027 	Sstm8s_tim2$TIM2_CCxCmd$640 ==.
      000701 AEr00r00         [ 2] 2028 	ldw	x, #(___str_0+0)
      000704 CDr00r00         [ 4] 2029 	call	_assert_failed
                           000707  2030 	Sstm8s_tim2$TIM2_CCxCmd$641 ==.
      000707 84               [ 1] 2031 	pop	a
                           000708  2032 	Sstm8s_tim2$TIM2_CCxCmd$642 ==.
      000708                       2033 00119$:
                           000708  2034 	Sstm8s_tim2$TIM2_CCxCmd$643 ==.
                                   2035 ;	./STM8S_StdPeriph_Lib/Libraries/STM8S_StdPeriph_Driver/src/stm8s_tim2.c: 749: assert_param(IS_FUNCTIONALSTATE_OK(NewState));
      000708 0D 04            [ 1] 2036 	tnz	(0x04, sp)
      00070A 27 12            [ 1] 2037 	jreq	00127$
      00070C 0D 04            [ 1] 2038 	tnz	(0x04, sp)
      00070E 26 0E            [ 1] 2039 	jrne	00127$
      000710 88               [ 1] 2040 	push	a
                           000711  2041 	Sstm8s_tim2$TIM2_CCxCmd$644 ==.
      000711 4B ED            [ 1] 2042 	push	#0xed
                           000713  2043 	Sstm8s_tim2$TIM2_CCxCmd$645 ==.
      000713 4B 02            [ 1] 2044 	push	#0x02
                           000715  2045 	Sstm8s_tim2$TIM2_CCxCmd$646 ==.
      000715 5F               [ 1] 2046 	clrw	x
      000716 89               [ 2] 2047 	pushw	x
                           000717  2048 	Sstm8s_tim2$TIM2_CCxCmd$647 ==.
      000717 AEr00r00         [ 2] 2049 	ldw	x, #(___str_0+0)
      00071A CDr00r00         [ 4] 2050 	call	_assert_failed
                           00071D  2051 	Sstm8s_tim2$TIM2_CCxCmd$648 ==.
      00071D 84               [ 1] 2052 	pop	a
                           00071E  2053 	Sstm8s_tim2$TIM2_CCxCmd$649 ==.
      00071E                       2054 00127$:
                           00071E  2055 	Sstm8s_tim2$TIM2_CCxCmd$650 ==.
                                   2056 ;	./STM8S_StdPeriph_Lib/Libraries/STM8S_StdPeriph_Driver/src/stm8s_tim2.c: 751: if (TIM2_Channel == TIM2_CHANNEL_1)
      00071E 4D               [ 1] 2057 	tnz	a
      00071F 26 15            [ 1] 2058 	jrne	00114$
                           000721  2059 	Sstm8s_tim2$TIM2_CCxCmd$651 ==.
                                   2060 ;	./STM8S_StdPeriph_Lib/Libraries/STM8S_StdPeriph_Driver/src/stm8s_tim2.c: 756: TIM2->CCER1 |= (uint8_t)TIM2_CCER1_CC1E;
      000721 C6 53 0A         [ 1] 2061 	ld	a, 0x530a
                           000724  2062 	Sstm8s_tim2$TIM2_CCxCmd$652 ==.
                           000724  2063 	Sstm8s_tim2$TIM2_CCxCmd$653 ==.
                                   2064 ;	./STM8S_StdPeriph_Lib/Libraries/STM8S_StdPeriph_Driver/src/stm8s_tim2.c: 754: if (NewState != DISABLE)
      000724 0D 04            [ 1] 2065 	tnz	(0x04, sp)
      000726 27 07            [ 1] 2066 	jreq	00102$
                           000728  2067 	Sstm8s_tim2$TIM2_CCxCmd$654 ==.
                           000728  2068 	Sstm8s_tim2$TIM2_CCxCmd$655 ==.
                                   2069 ;	./STM8S_StdPeriph_Lib/Libraries/STM8S_StdPeriph_Driver/src/stm8s_tim2.c: 756: TIM2->CCER1 |= (uint8_t)TIM2_CCER1_CC1E;
      000728 AA 01            [ 1] 2070 	or	a, #0x01
      00072A C7 53 0A         [ 1] 2071 	ld	0x530a, a
                           00072D  2072 	Sstm8s_tim2$TIM2_CCxCmd$656 ==.
      00072D 20 33            [ 2] 2073 	jra	00116$
      00072F                       2074 00102$:
                           00072F  2075 	Sstm8s_tim2$TIM2_CCxCmd$657 ==.
                           00072F  2076 	Sstm8s_tim2$TIM2_CCxCmd$658 ==.
                                   2077 ;	./STM8S_StdPeriph_Lib/Libraries/STM8S_StdPeriph_Driver/src/stm8s_tim2.c: 760: TIM2->CCER1 &= (uint8_t)(~TIM2_CCER1_CC1E);
      00072F A4 FE            [ 1] 2078 	and	a, #0xfe
      000731 C7 53 0A         [ 1] 2079 	ld	0x530a, a
                           000734  2080 	Sstm8s_tim2$TIM2_CCxCmd$659 ==.
      000734 20 2C            [ 2] 2081 	jra	00116$
      000736                       2082 00114$:
                           000736  2083 	Sstm8s_tim2$TIM2_CCxCmd$660 ==.
                                   2084 ;	./STM8S_StdPeriph_Lib/Libraries/STM8S_StdPeriph_Driver/src/stm8s_tim2.c: 764: else if (TIM2_Channel == TIM2_CHANNEL_2)
      000736 7B 01            [ 1] 2085 	ld	a, (0x01, sp)
      000738 27 15            [ 1] 2086 	jreq	00111$
                           00073A  2087 	Sstm8s_tim2$TIM2_CCxCmd$661 ==.
                                   2088 ;	./STM8S_StdPeriph_Lib/Libraries/STM8S_StdPeriph_Driver/src/stm8s_tim2.c: 756: TIM2->CCER1 |= (uint8_t)TIM2_CCER1_CC1E;
      00073A C6 53 0A         [ 1] 2089 	ld	a, 0x530a
                           00073D  2090 	Sstm8s_tim2$TIM2_CCxCmd$662 ==.
                           00073D  2091 	Sstm8s_tim2$TIM2_CCxCmd$663 ==.
                                   2092 ;	./STM8S_StdPeriph_Lib/Libraries/STM8S_StdPeriph_Driver/src/stm8s_tim2.c: 767: if (NewState != DISABLE)
      00073D 0D 04            [ 1] 2093 	tnz	(0x04, sp)
      00073F 27 07            [ 1] 2094 	jreq	00105$
                           000741  2095 	Sstm8s_tim2$TIM2_CCxCmd$664 ==.
                           000741  2096 	Sstm8s_tim2$TIM2_CCxCmd$665 ==.
                                   2097 ;	./STM8S_StdPeriph_Lib/Libraries/STM8S_StdPeriph_Driver/src/stm8s_tim2.c: 769: TIM2->CCER1 |= (uint8_t)TIM2_CCER1_CC2E;
      000741 AA 10            [ 1] 2098 	or	a, #0x10
      000743 C7 53 0A         [ 1] 2099 	ld	0x530a, a
                           000746  2100 	Sstm8s_tim2$TIM2_CCxCmd$666 ==.
      000746 20 1A            [ 2] 2101 	jra	00116$
      000748                       2102 00105$:
                           000748  2103 	Sstm8s_tim2$TIM2_CCxCmd$667 ==.
                           000748  2104 	Sstm8s_tim2$TIM2_CCxCmd$668 ==.
                                   2105 ;	./STM8S_StdPeriph_Lib/Libraries/STM8S_StdPeriph_Driver/src/stm8s_tim2.c: 773: TIM2->CCER1 &= (uint8_t)(~TIM2_CCER1_CC2E);
      000748 A4 EF            [ 1] 2106 	and	a, #0xef
      00074A C7 53 0A         [ 1] 2107 	ld	0x530a, a
                           00074D  2108 	Sstm8s_tim2$TIM2_CCxCmd$669 ==.
      00074D 20 13            [ 2] 2109 	jra	00116$
      00074F                       2110 00111$:
                           00074F  2111 	Sstm8s_tim2$TIM2_CCxCmd$670 ==.
                                   2112 ;	./STM8S_StdPeriph_Lib/Libraries/STM8S_StdPeriph_Driver/src/stm8s_tim2.c: 781: TIM2->CCER2 |= (uint8_t)TIM2_CCER2_CC3E;
      00074F C6 53 0B         [ 1] 2113 	ld	a, 0x530b
                           000752  2114 	Sstm8s_tim2$TIM2_CCxCmd$671 ==.
                           000752  2115 	Sstm8s_tim2$TIM2_CCxCmd$672 ==.
                                   2116 ;	./STM8S_StdPeriph_Lib/Libraries/STM8S_StdPeriph_Driver/src/stm8s_tim2.c: 779: if (NewState != DISABLE)
      000752 0D 04            [ 1] 2117 	tnz	(0x04, sp)
      000754 27 07            [ 1] 2118 	jreq	00108$
                           000756  2119 	Sstm8s_tim2$TIM2_CCxCmd$673 ==.
                           000756  2120 	Sstm8s_tim2$TIM2_CCxCmd$674 ==.
                                   2121 ;	./STM8S_StdPeriph_Lib/Libraries/STM8S_StdPeriph_Driver/src/stm8s_tim2.c: 781: TIM2->CCER2 |= (uint8_t)TIM2_CCER2_CC3E;
      000756 AA 01            [ 1] 2122 	or	a, #0x01
      000758 C7 53 0B         [ 1] 2123 	ld	0x530b, a
                           00075B  2124 	Sstm8s_tim2$TIM2_CCxCmd$675 ==.
      00075B 20 05            [ 2] 2125 	jra	00116$
      00075D                       2126 00108$:
                           00075D  2127 	Sstm8s_tim2$TIM2_CCxCmd$676 ==.
                           00075D  2128 	Sstm8s_tim2$TIM2_CCxCmd$677 ==.
                                   2129 ;	./STM8S_StdPeriph_Lib/Libraries/STM8S_StdPeriph_Driver/src/stm8s_tim2.c: 785: TIM2->CCER2 &= (uint8_t)(~TIM2_CCER2_CC3E);
      00075D A4 FE            [ 1] 2130 	and	a, #0xfe
      00075F C7 53 0B         [ 1] 2131 	ld	0x530b, a
                           000762  2132 	Sstm8s_tim2$TIM2_CCxCmd$678 ==.
      000762                       2133 00116$:
                           000762  2134 	Sstm8s_tim2$TIM2_CCxCmd$679 ==.
                                   2135 ;	./STM8S_StdPeriph_Lib/Libraries/STM8S_StdPeriph_Driver/src/stm8s_tim2.c: 788: }
      000762 84               [ 1] 2136 	pop	a
                           000763  2137 	Sstm8s_tim2$TIM2_CCxCmd$680 ==.
      000763 85               [ 2] 2138 	popw	x
                           000764  2139 	Sstm8s_tim2$TIM2_CCxCmd$681 ==.
      000764 84               [ 1] 2140 	pop	a
                           000765  2141 	Sstm8s_tim2$TIM2_CCxCmd$682 ==.
      000765 FC               [ 2] 2142 	jp	(x)
                           000766  2143 	Sstm8s_tim2$TIM2_CCxCmd$683 ==.
                           000766  2144 	Sstm8s_tim2$TIM2_SelectOCxM$684 ==.
                                   2145 ;	./STM8S_StdPeriph_Lib/Libraries/STM8S_StdPeriph_Driver/src/stm8s_tim2.c: 810: void TIM2_SelectOCxM(TIM2_Channel_TypeDef TIM2_Channel, TIM2_OCMode_TypeDef TIM2_OCMode)
                                   2146 ;	-----------------------------------------
                                   2147 ;	 function TIM2_SelectOCxM
                                   2148 ;	-----------------------------------------
      000766                       2149 _TIM2_SelectOCxM:
                           000766  2150 	Sstm8s_tim2$TIM2_SelectOCxM$685 ==.
      000766 89               [ 2] 2151 	pushw	x
                           000767  2152 	Sstm8s_tim2$TIM2_SelectOCxM$686 ==.
                           000767  2153 	Sstm8s_tim2$TIM2_SelectOCxM$687 ==.
                                   2154 ;	./STM8S_StdPeriph_Lib/Libraries/STM8S_StdPeriph_Driver/src/stm8s_tim2.c: 813: assert_param(IS_TIM2_CHANNEL_OK(TIM2_Channel));
      000767 6B 02            [ 1] 2155 	ld	(0x02, sp), a
      000769 4A               [ 1] 2156 	dec	a
      00076A 26 05            [ 1] 2157 	jrne	00206$
      00076C A6 01            [ 1] 2158 	ld	a, #0x01
      00076E 6B 01            [ 1] 2159 	ld	(0x01, sp), a
      000770 C5                    2160 	.byte 0xc5
      000771                       2161 00206$:
      000771 0F 01            [ 1] 2162 	clr	(0x01, sp)
      000773                       2163 00207$:
                           000773  2164 	Sstm8s_tim2$TIM2_SelectOCxM$688 ==.
      000773 0D 02            [ 1] 2165 	tnz	(0x02, sp)
      000775 27 16            [ 1] 2166 	jreq	00110$
      000777 0D 01            [ 1] 2167 	tnz	(0x01, sp)
      000779 26 12            [ 1] 2168 	jrne	00110$
      00077B 7B 02            [ 1] 2169 	ld	a, (0x02, sp)
      00077D A1 02            [ 1] 2170 	cp	a, #0x02
      00077F 27 0C            [ 1] 2171 	jreq	00110$
                           000781  2172 	Sstm8s_tim2$TIM2_SelectOCxM$689 ==.
      000781 4B 2D            [ 1] 2173 	push	#0x2d
                           000783  2174 	Sstm8s_tim2$TIM2_SelectOCxM$690 ==.
      000783 4B 03            [ 1] 2175 	push	#0x03
                           000785  2176 	Sstm8s_tim2$TIM2_SelectOCxM$691 ==.
      000785 5F               [ 1] 2177 	clrw	x
      000786 89               [ 2] 2178 	pushw	x
                           000787  2179 	Sstm8s_tim2$TIM2_SelectOCxM$692 ==.
      000787 AEr00r00         [ 2] 2180 	ldw	x, #(___str_0+0)
      00078A CDr00r00         [ 4] 2181 	call	_assert_failed
                           00078D  2182 	Sstm8s_tim2$TIM2_SelectOCxM$693 ==.
      00078D                       2183 00110$:
                           00078D  2184 	Sstm8s_tim2$TIM2_SelectOCxM$694 ==.
                                   2185 ;	./STM8S_StdPeriph_Lib/Libraries/STM8S_StdPeriph_Driver/src/stm8s_tim2.c: 814: assert_param(IS_TIM2_OCM_OK(TIM2_OCMode));
      00078D 0D 05            [ 1] 2186 	tnz	(0x05, sp)
      00078F 27 36            [ 1] 2187 	jreq	00118$
      000791 7B 05            [ 1] 2188 	ld	a, (0x05, sp)
      000793 A1 10            [ 1] 2189 	cp	a, #0x10
      000795 27 30            [ 1] 2190 	jreq	00118$
                           000797  2191 	Sstm8s_tim2$TIM2_SelectOCxM$695 ==.
      000797 7B 05            [ 1] 2192 	ld	a, (0x05, sp)
      000799 A1 20            [ 1] 2193 	cp	a, #0x20
      00079B 27 2A            [ 1] 2194 	jreq	00118$
                           00079D  2195 	Sstm8s_tim2$TIM2_SelectOCxM$696 ==.
      00079D 7B 05            [ 1] 2196 	ld	a, (0x05, sp)
      00079F A1 30            [ 1] 2197 	cp	a, #0x30
      0007A1 27 24            [ 1] 2198 	jreq	00118$
                           0007A3  2199 	Sstm8s_tim2$TIM2_SelectOCxM$697 ==.
      0007A3 7B 05            [ 1] 2200 	ld	a, (0x05, sp)
      0007A5 A1 60            [ 1] 2201 	cp	a, #0x60
      0007A7 27 1E            [ 1] 2202 	jreq	00118$
                           0007A9  2203 	Sstm8s_tim2$TIM2_SelectOCxM$698 ==.
      0007A9 7B 05            [ 1] 2204 	ld	a, (0x05, sp)
      0007AB A1 70            [ 1] 2205 	cp	a, #0x70
      0007AD 27 18            [ 1] 2206 	jreq	00118$
                           0007AF  2207 	Sstm8s_tim2$TIM2_SelectOCxM$699 ==.
      0007AF 7B 05            [ 1] 2208 	ld	a, (0x05, sp)
      0007B1 A1 50            [ 1] 2209 	cp	a, #0x50
      0007B3 27 12            [ 1] 2210 	jreq	00118$
                           0007B5  2211 	Sstm8s_tim2$TIM2_SelectOCxM$700 ==.
      0007B5 7B 05            [ 1] 2212 	ld	a, (0x05, sp)
      0007B7 A1 40            [ 1] 2213 	cp	a, #0x40
      0007B9 27 0C            [ 1] 2214 	jreq	00118$
                           0007BB  2215 	Sstm8s_tim2$TIM2_SelectOCxM$701 ==.
      0007BB 4B 2E            [ 1] 2216 	push	#0x2e
                           0007BD  2217 	Sstm8s_tim2$TIM2_SelectOCxM$702 ==.
      0007BD 4B 03            [ 1] 2218 	push	#0x03
                           0007BF  2219 	Sstm8s_tim2$TIM2_SelectOCxM$703 ==.
      0007BF 5F               [ 1] 2220 	clrw	x
      0007C0 89               [ 2] 2221 	pushw	x
                           0007C1  2222 	Sstm8s_tim2$TIM2_SelectOCxM$704 ==.
      0007C1 AEr00r00         [ 2] 2223 	ldw	x, #(___str_0+0)
      0007C4 CDr00r00         [ 4] 2224 	call	_assert_failed
                           0007C7  2225 	Sstm8s_tim2$TIM2_SelectOCxM$705 ==.
      0007C7                       2226 00118$:
                           0007C7  2227 	Sstm8s_tim2$TIM2_SelectOCxM$706 ==.
                                   2228 ;	./STM8S_StdPeriph_Lib/Libraries/STM8S_StdPeriph_Driver/src/stm8s_tim2.c: 816: if (TIM2_Channel == TIM2_CHANNEL_1)
      0007C7 0D 02            [ 1] 2229 	tnz	(0x02, sp)
      0007C9 26 10            [ 1] 2230 	jrne	00105$
                           0007CB  2231 	Sstm8s_tim2$TIM2_SelectOCxM$707 ==.
                           0007CB  2232 	Sstm8s_tim2$TIM2_SelectOCxM$708 ==.
                                   2233 ;	./STM8S_StdPeriph_Lib/Libraries/STM8S_StdPeriph_Driver/src/stm8s_tim2.c: 819: TIM2->CCER1 &= (uint8_t)(~TIM2_CCER1_CC1E);
      0007CB 72 11 53 0A      [ 1] 2234 	bres	0x530a, #0
                           0007CF  2235 	Sstm8s_tim2$TIM2_SelectOCxM$709 ==.
                                   2236 ;	./STM8S_StdPeriph_Lib/Libraries/STM8S_StdPeriph_Driver/src/stm8s_tim2.c: 822: TIM2->CCMR1 = (uint8_t)((uint8_t)(TIM2->CCMR1 & (uint8_t)(~TIM2_CCMR_OCM))
      0007CF C6 53 07         [ 1] 2237 	ld	a, 0x5307
      0007D2 A4 8F            [ 1] 2238 	and	a, #0x8f
                           0007D4  2239 	Sstm8s_tim2$TIM2_SelectOCxM$710 ==.
                                   2240 ;	./STM8S_StdPeriph_Lib/Libraries/STM8S_StdPeriph_Driver/src/stm8s_tim2.c: 823: | (uint8_t)TIM2_OCMode);
      0007D4 1A 05            [ 1] 2241 	or	a, (0x05, sp)
      0007D6 C7 53 07         [ 1] 2242 	ld	0x5307, a
                           0007D9  2243 	Sstm8s_tim2$TIM2_SelectOCxM$711 ==.
      0007D9 20 22            [ 2] 2244 	jra	00107$
      0007DB                       2245 00105$:
                           0007DB  2246 	Sstm8s_tim2$TIM2_SelectOCxM$712 ==.
                                   2247 ;	./STM8S_StdPeriph_Lib/Libraries/STM8S_StdPeriph_Driver/src/stm8s_tim2.c: 825: else if (TIM2_Channel == TIM2_CHANNEL_2)
      0007DB 7B 01            [ 1] 2248 	ld	a, (0x01, sp)
      0007DD 27 10            [ 1] 2249 	jreq	00102$
                           0007DF  2250 	Sstm8s_tim2$TIM2_SelectOCxM$713 ==.
                           0007DF  2251 	Sstm8s_tim2$TIM2_SelectOCxM$714 ==.
                                   2252 ;	./STM8S_StdPeriph_Lib/Libraries/STM8S_StdPeriph_Driver/src/stm8s_tim2.c: 828: TIM2->CCER1 &= (uint8_t)(~TIM2_CCER1_CC2E);
      0007DF 72 19 53 0A      [ 1] 2253 	bres	0x530a, #4
                           0007E3  2254 	Sstm8s_tim2$TIM2_SelectOCxM$715 ==.
                                   2255 ;	./STM8S_StdPeriph_Lib/Libraries/STM8S_StdPeriph_Driver/src/stm8s_tim2.c: 831: TIM2->CCMR2 = (uint8_t)((uint8_t)(TIM2->CCMR2 & (uint8_t)(~TIM2_CCMR_OCM))
      0007E3 C6 53 08         [ 1] 2256 	ld	a, 0x5308
      0007E6 A4 8F            [ 1] 2257 	and	a, #0x8f
                           0007E8  2258 	Sstm8s_tim2$TIM2_SelectOCxM$716 ==.
                                   2259 ;	./STM8S_StdPeriph_Lib/Libraries/STM8S_StdPeriph_Driver/src/stm8s_tim2.c: 832: | (uint8_t)TIM2_OCMode);
      0007E8 1A 05            [ 1] 2260 	or	a, (0x05, sp)
      0007EA C7 53 08         [ 1] 2261 	ld	0x5308, a
                           0007ED  2262 	Sstm8s_tim2$TIM2_SelectOCxM$717 ==.
      0007ED 20 0E            [ 2] 2263 	jra	00107$
      0007EF                       2264 00102$:
                           0007EF  2265 	Sstm8s_tim2$TIM2_SelectOCxM$718 ==.
                           0007EF  2266 	Sstm8s_tim2$TIM2_SelectOCxM$719 ==.
                                   2267 ;	./STM8S_StdPeriph_Lib/Libraries/STM8S_StdPeriph_Driver/src/stm8s_tim2.c: 837: TIM2->CCER2 &= (uint8_t)(~TIM2_CCER2_CC3E);
      0007EF 72 11 53 0B      [ 1] 2268 	bres	0x530b, #0
                           0007F3  2269 	Sstm8s_tim2$TIM2_SelectOCxM$720 ==.
                                   2270 ;	./STM8S_StdPeriph_Lib/Libraries/STM8S_StdPeriph_Driver/src/stm8s_tim2.c: 840: TIM2->CCMR3 = (uint8_t)((uint8_t)(TIM2->CCMR3 & (uint8_t)(~TIM2_CCMR_OCM))
      0007F3 C6 53 09         [ 1] 2271 	ld	a, 0x5309
      0007F6 A4 8F            [ 1] 2272 	and	a, #0x8f
                           0007F8  2273 	Sstm8s_tim2$TIM2_SelectOCxM$721 ==.
                                   2274 ;	./STM8S_StdPeriph_Lib/Libraries/STM8S_StdPeriph_Driver/src/stm8s_tim2.c: 841: | (uint8_t)TIM2_OCMode);
      0007F8 1A 05            [ 1] 2275 	or	a, (0x05, sp)
      0007FA C7 53 09         [ 1] 2276 	ld	0x5309, a
                           0007FD  2277 	Sstm8s_tim2$TIM2_SelectOCxM$722 ==.
      0007FD                       2278 00107$:
                           0007FD  2279 	Sstm8s_tim2$TIM2_SelectOCxM$723 ==.
                                   2280 ;	./STM8S_StdPeriph_Lib/Libraries/STM8S_StdPeriph_Driver/src/stm8s_tim2.c: 843: }
      0007FD 85               [ 2] 2281 	popw	x
                           0007FE  2282 	Sstm8s_tim2$TIM2_SelectOCxM$724 ==.
      0007FE 85               [ 2] 2283 	popw	x
                           0007FF  2284 	Sstm8s_tim2$TIM2_SelectOCxM$725 ==.
      0007FF 84               [ 1] 2285 	pop	a
                           000800  2286 	Sstm8s_tim2$TIM2_SelectOCxM$726 ==.
      000800 FC               [ 2] 2287 	jp	(x)
                           000801  2288 	Sstm8s_tim2$TIM2_SelectOCxM$727 ==.
                           000801  2289 	Sstm8s_tim2$TIM2_SetCounter$728 ==.
                                   2290 ;	./STM8S_StdPeriph_Lib/Libraries/STM8S_StdPeriph_Driver/src/stm8s_tim2.c: 851: void TIM2_SetCounter(uint16_t Counter)
                                   2291 ;	-----------------------------------------
                                   2292 ;	 function TIM2_SetCounter
                                   2293 ;	-----------------------------------------
      000801                       2294 _TIM2_SetCounter:
                           000801  2295 	Sstm8s_tim2$TIM2_SetCounter$729 ==.
                           000801  2296 	Sstm8s_tim2$TIM2_SetCounter$730 ==.
                                   2297 ;	./STM8S_StdPeriph_Lib/Libraries/STM8S_StdPeriph_Driver/src/stm8s_tim2.c: 854: TIM2->CNTRH = (uint8_t)(Counter >> 8);
      000801 9E               [ 1] 2298 	ld	a, xh
      000802 C7 53 0C         [ 1] 2299 	ld	0x530c, a
                           000805  2300 	Sstm8s_tim2$TIM2_SetCounter$731 ==.
                                   2301 ;	./STM8S_StdPeriph_Lib/Libraries/STM8S_StdPeriph_Driver/src/stm8s_tim2.c: 855: TIM2->CNTRL = (uint8_t)(Counter);
      000805 9F               [ 1] 2302 	ld	a, xl
      000806 C7 53 0D         [ 1] 2303 	ld	0x530d, a
                           000809  2304 	Sstm8s_tim2$TIM2_SetCounter$732 ==.
                                   2305 ;	./STM8S_StdPeriph_Lib/Libraries/STM8S_StdPeriph_Driver/src/stm8s_tim2.c: 856: }
                           000809  2306 	Sstm8s_tim2$TIM2_SetCounter$733 ==.
                           000809  2307 	XG$TIM2_SetCounter$0$0 ==.
      000809 81               [ 4] 2308 	ret
                           00080A  2309 	Sstm8s_tim2$TIM2_SetCounter$734 ==.
                           00080A  2310 	Sstm8s_tim2$TIM2_SetAutoreload$735 ==.
                                   2311 ;	./STM8S_StdPeriph_Lib/Libraries/STM8S_StdPeriph_Driver/src/stm8s_tim2.c: 864: void TIM2_SetAutoreload(uint16_t Autoreload)
                                   2312 ;	-----------------------------------------
                                   2313 ;	 function TIM2_SetAutoreload
                                   2314 ;	-----------------------------------------
      00080A                       2315 _TIM2_SetAutoreload:
                           00080A  2316 	Sstm8s_tim2$TIM2_SetAutoreload$736 ==.
                           00080A  2317 	Sstm8s_tim2$TIM2_SetAutoreload$737 ==.
                                   2318 ;	./STM8S_StdPeriph_Lib/Libraries/STM8S_StdPeriph_Driver/src/stm8s_tim2.c: 867: TIM2->ARRH = (uint8_t)(Autoreload >> 8);
      00080A 9E               [ 1] 2319 	ld	a, xh
      00080B C7 53 0F         [ 1] 2320 	ld	0x530f, a
                           00080E  2321 	Sstm8s_tim2$TIM2_SetAutoreload$738 ==.
                                   2322 ;	./STM8S_StdPeriph_Lib/Libraries/STM8S_StdPeriph_Driver/src/stm8s_tim2.c: 868: TIM2->ARRL = (uint8_t)(Autoreload);
      00080E 9F               [ 1] 2323 	ld	a, xl
      00080F C7 53 10         [ 1] 2324 	ld	0x5310, a
                           000812  2325 	Sstm8s_tim2$TIM2_SetAutoreload$739 ==.
                                   2326 ;	./STM8S_StdPeriph_Lib/Libraries/STM8S_StdPeriph_Driver/src/stm8s_tim2.c: 869: }
                           000812  2327 	Sstm8s_tim2$TIM2_SetAutoreload$740 ==.
                           000812  2328 	XG$TIM2_SetAutoreload$0$0 ==.
      000812 81               [ 4] 2329 	ret
                           000813  2330 	Sstm8s_tim2$TIM2_SetAutoreload$741 ==.
                           000813  2331 	Sstm8s_tim2$TIM2_SetCompare1$742 ==.
                                   2332 ;	./STM8S_StdPeriph_Lib/Libraries/STM8S_StdPeriph_Driver/src/stm8s_tim2.c: 877: void TIM2_SetCompare1(uint16_t Compare1)
                                   2333 ;	-----------------------------------------
                                   2334 ;	 function TIM2_SetCompare1
                                   2335 ;	-----------------------------------------
      000813                       2336 _TIM2_SetCompare1:
                           000813  2337 	Sstm8s_tim2$TIM2_SetCompare1$743 ==.
                           000813  2338 	Sstm8s_tim2$TIM2_SetCompare1$744 ==.
                                   2339 ;	./STM8S_StdPeriph_Lib/Libraries/STM8S_StdPeriph_Driver/src/stm8s_tim2.c: 880: TIM2->CCR1H = (uint8_t)(Compare1 >> 8);
      000813 9E               [ 1] 2340 	ld	a, xh
      000814 C7 53 11         [ 1] 2341 	ld	0x5311, a
                           000817  2342 	Sstm8s_tim2$TIM2_SetCompare1$745 ==.
                                   2343 ;	./STM8S_StdPeriph_Lib/Libraries/STM8S_StdPeriph_Driver/src/stm8s_tim2.c: 881: TIM2->CCR1L = (uint8_t)(Compare1);
      000817 9F               [ 1] 2344 	ld	a, xl
      000818 C7 53 12         [ 1] 2345 	ld	0x5312, a
                           00081B  2346 	Sstm8s_tim2$TIM2_SetCompare1$746 ==.
                                   2347 ;	./STM8S_StdPeriph_Lib/Libraries/STM8S_StdPeriph_Driver/src/stm8s_tim2.c: 882: }
                           00081B  2348 	Sstm8s_tim2$TIM2_SetCompare1$747 ==.
                           00081B  2349 	XG$TIM2_SetCompare1$0$0 ==.
      00081B 81               [ 4] 2350 	ret
                           00081C  2351 	Sstm8s_tim2$TIM2_SetCompare1$748 ==.
                           00081C  2352 	Sstm8s_tim2$TIM2_SetCompare2$749 ==.
                                   2353 ;	./STM8S_StdPeriph_Lib/Libraries/STM8S_StdPeriph_Driver/src/stm8s_tim2.c: 890: void TIM2_SetCompare2(uint16_t Compare2)
                                   2354 ;	-----------------------------------------
                                   2355 ;	 function TIM2_SetCompare2
                                   2356 ;	-----------------------------------------
      00081C                       2357 _TIM2_SetCompare2:
                           00081C  2358 	Sstm8s_tim2$TIM2_SetCompare2$750 ==.
                           00081C  2359 	Sstm8s_tim2$TIM2_SetCompare2$751 ==.
                                   2360 ;	./STM8S_StdPeriph_Lib/Libraries/STM8S_StdPeriph_Driver/src/stm8s_tim2.c: 893: TIM2->CCR2H = (uint8_t)(Compare2 >> 8);
      00081C 9E               [ 1] 2361 	ld	a, xh
      00081D C7 53 13         [ 1] 2362 	ld	0x5313, a
                           000820  2363 	Sstm8s_tim2$TIM2_SetCompare2$752 ==.
                                   2364 ;	./STM8S_StdPeriph_Lib/Libraries/STM8S_StdPeriph_Driver/src/stm8s_tim2.c: 894: TIM2->CCR2L = (uint8_t)(Compare2);
      000820 9F               [ 1] 2365 	ld	a, xl
      000821 C7 53 14         [ 1] 2366 	ld	0x5314, a
                           000824  2367 	Sstm8s_tim2$TIM2_SetCompare2$753 ==.
                                   2368 ;	./STM8S_StdPeriph_Lib/Libraries/STM8S_StdPeriph_Driver/src/stm8s_tim2.c: 895: }
                           000824  2369 	Sstm8s_tim2$TIM2_SetCompare2$754 ==.
                           000824  2370 	XG$TIM2_SetCompare2$0$0 ==.
      000824 81               [ 4] 2371 	ret
                           000825  2372 	Sstm8s_tim2$TIM2_SetCompare2$755 ==.
                           000825  2373 	Sstm8s_tim2$TIM2_SetCompare3$756 ==.
                                   2374 ;	./STM8S_StdPeriph_Lib/Libraries/STM8S_StdPeriph_Driver/src/stm8s_tim2.c: 903: void TIM2_SetCompare3(uint16_t Compare3)
                                   2375 ;	-----------------------------------------
                                   2376 ;	 function TIM2_SetCompare3
                                   2377 ;	-----------------------------------------
      000825                       2378 _TIM2_SetCompare3:
                           000825  2379 	Sstm8s_tim2$TIM2_SetCompare3$757 ==.
                           000825  2380 	Sstm8s_tim2$TIM2_SetCompare3$758 ==.
                                   2381 ;	./STM8S_StdPeriph_Lib/Libraries/STM8S_StdPeriph_Driver/src/stm8s_tim2.c: 906: TIM2->CCR3H = (uint8_t)(Compare3 >> 8);
      000825 9E               [ 1] 2382 	ld	a, xh
      000826 C7 53 15         [ 1] 2383 	ld	0x5315, a
                           000829  2384 	Sstm8s_tim2$TIM2_SetCompare3$759 ==.
                                   2385 ;	./STM8S_StdPeriph_Lib/Libraries/STM8S_StdPeriph_Driver/src/stm8s_tim2.c: 907: TIM2->CCR3L = (uint8_t)(Compare3);
      000829 9F               [ 1] 2386 	ld	a, xl
      00082A C7 53 16         [ 1] 2387 	ld	0x5316, a
                           00082D  2388 	Sstm8s_tim2$TIM2_SetCompare3$760 ==.
                                   2389 ;	./STM8S_StdPeriph_Lib/Libraries/STM8S_StdPeriph_Driver/src/stm8s_tim2.c: 908: }
                           00082D  2390 	Sstm8s_tim2$TIM2_SetCompare3$761 ==.
                           00082D  2391 	XG$TIM2_SetCompare3$0$0 ==.
      00082D 81               [ 4] 2392 	ret
                           00082E  2393 	Sstm8s_tim2$TIM2_SetCompare3$762 ==.
                           00082E  2394 	Sstm8s_tim2$TIM2_SetIC1Prescaler$763 ==.
                                   2395 ;	./STM8S_StdPeriph_Lib/Libraries/STM8S_StdPeriph_Driver/src/stm8s_tim2.c: 920: void TIM2_SetIC1Prescaler(TIM2_ICPSC_TypeDef TIM2_IC1Prescaler)
                                   2396 ;	-----------------------------------------
                                   2397 ;	 function TIM2_SetIC1Prescaler
                                   2398 ;	-----------------------------------------
      00082E                       2399 _TIM2_SetIC1Prescaler:
                           00082E  2400 	Sstm8s_tim2$TIM2_SetIC1Prescaler$764 ==.
      00082E 88               [ 1] 2401 	push	a
                           00082F  2402 	Sstm8s_tim2$TIM2_SetIC1Prescaler$765 ==.
                           00082F  2403 	Sstm8s_tim2$TIM2_SetIC1Prescaler$766 ==.
                                   2404 ;	./STM8S_StdPeriph_Lib/Libraries/STM8S_StdPeriph_Driver/src/stm8s_tim2.c: 923: assert_param(IS_TIM2_IC_PRESCALER_OK(TIM2_IC1Prescaler));
      00082F 6B 01            [ 1] 2405 	ld	(0x01, sp), a
      000831 27 1E            [ 1] 2406 	jreq	00104$
      000833 7B 01            [ 1] 2407 	ld	a, (0x01, sp)
      000835 A1 04            [ 1] 2408 	cp	a, #0x04
      000837 27 18            [ 1] 2409 	jreq	00104$
                           000839  2410 	Sstm8s_tim2$TIM2_SetIC1Prescaler$767 ==.
      000839 7B 01            [ 1] 2411 	ld	a, (0x01, sp)
      00083B A1 08            [ 1] 2412 	cp	a, #0x08
      00083D 27 12            [ 1] 2413 	jreq	00104$
                           00083F  2414 	Sstm8s_tim2$TIM2_SetIC1Prescaler$768 ==.
      00083F 7B 01            [ 1] 2415 	ld	a, (0x01, sp)
      000841 A1 0C            [ 1] 2416 	cp	a, #0x0c
      000843 27 0C            [ 1] 2417 	jreq	00104$
                           000845  2418 	Sstm8s_tim2$TIM2_SetIC1Prescaler$769 ==.
      000845 4B 9B            [ 1] 2419 	push	#0x9b
                           000847  2420 	Sstm8s_tim2$TIM2_SetIC1Prescaler$770 ==.
      000847 4B 03            [ 1] 2421 	push	#0x03
                           000849  2422 	Sstm8s_tim2$TIM2_SetIC1Prescaler$771 ==.
      000849 5F               [ 1] 2423 	clrw	x
      00084A 89               [ 2] 2424 	pushw	x
                           00084B  2425 	Sstm8s_tim2$TIM2_SetIC1Prescaler$772 ==.
      00084B AEr00r00         [ 2] 2426 	ldw	x, #(___str_0+0)
      00084E CDr00r00         [ 4] 2427 	call	_assert_failed
                           000851  2428 	Sstm8s_tim2$TIM2_SetIC1Prescaler$773 ==.
      000851                       2429 00104$:
                           000851  2430 	Sstm8s_tim2$TIM2_SetIC1Prescaler$774 ==.
                                   2431 ;	./STM8S_StdPeriph_Lib/Libraries/STM8S_StdPeriph_Driver/src/stm8s_tim2.c: 926: TIM2->CCMR1 = (uint8_t)((uint8_t)(TIM2->CCMR1 & (uint8_t)(~TIM2_CCMR_ICxPSC))
      000851 C6 53 07         [ 1] 2432 	ld	a, 0x5307
      000854 A4 F3            [ 1] 2433 	and	a, #0xf3
                           000856  2434 	Sstm8s_tim2$TIM2_SetIC1Prescaler$775 ==.
                                   2435 ;	./STM8S_StdPeriph_Lib/Libraries/STM8S_StdPeriph_Driver/src/stm8s_tim2.c: 927: | (uint8_t)TIM2_IC1Prescaler);
      000856 1A 01            [ 1] 2436 	or	a, (0x01, sp)
      000858 C7 53 07         [ 1] 2437 	ld	0x5307, a
                           00085B  2438 	Sstm8s_tim2$TIM2_SetIC1Prescaler$776 ==.
                                   2439 ;	./STM8S_StdPeriph_Lib/Libraries/STM8S_StdPeriph_Driver/src/stm8s_tim2.c: 928: }
      00085B 84               [ 1] 2440 	pop	a
                           00085C  2441 	Sstm8s_tim2$TIM2_SetIC1Prescaler$777 ==.
                           00085C  2442 	Sstm8s_tim2$TIM2_SetIC1Prescaler$778 ==.
                           00085C  2443 	XG$TIM2_SetIC1Prescaler$0$0 ==.
      00085C 81               [ 4] 2444 	ret
                           00085D  2445 	Sstm8s_tim2$TIM2_SetIC1Prescaler$779 ==.
                           00085D  2446 	Sstm8s_tim2$TIM2_SetIC2Prescaler$780 ==.
                                   2447 ;	./STM8S_StdPeriph_Lib/Libraries/STM8S_StdPeriph_Driver/src/stm8s_tim2.c: 940: void TIM2_SetIC2Prescaler(TIM2_ICPSC_TypeDef TIM2_IC2Prescaler)
                                   2448 ;	-----------------------------------------
                                   2449 ;	 function TIM2_SetIC2Prescaler
                                   2450 ;	-----------------------------------------
      00085D                       2451 _TIM2_SetIC2Prescaler:
                           00085D  2452 	Sstm8s_tim2$TIM2_SetIC2Prescaler$781 ==.
      00085D 88               [ 1] 2453 	push	a
                           00085E  2454 	Sstm8s_tim2$TIM2_SetIC2Prescaler$782 ==.
                           00085E  2455 	Sstm8s_tim2$TIM2_SetIC2Prescaler$783 ==.
                                   2456 ;	./STM8S_StdPeriph_Lib/Libraries/STM8S_StdPeriph_Driver/src/stm8s_tim2.c: 943: assert_param(IS_TIM2_IC_PRESCALER_OK(TIM2_IC2Prescaler));
      00085E 6B 01            [ 1] 2457 	ld	(0x01, sp), a
      000860 27 1E            [ 1] 2458 	jreq	00104$
      000862 7B 01            [ 1] 2459 	ld	a, (0x01, sp)
      000864 A1 04            [ 1] 2460 	cp	a, #0x04
      000866 27 18            [ 1] 2461 	jreq	00104$
                           000868  2462 	Sstm8s_tim2$TIM2_SetIC2Prescaler$784 ==.
      000868 7B 01            [ 1] 2463 	ld	a, (0x01, sp)
      00086A A1 08            [ 1] 2464 	cp	a, #0x08
      00086C 27 12            [ 1] 2465 	jreq	00104$
                           00086E  2466 	Sstm8s_tim2$TIM2_SetIC2Prescaler$785 ==.
      00086E 7B 01            [ 1] 2467 	ld	a, (0x01, sp)
      000870 A1 0C            [ 1] 2468 	cp	a, #0x0c
      000872 27 0C            [ 1] 2469 	jreq	00104$
                           000874  2470 	Sstm8s_tim2$TIM2_SetIC2Prescaler$786 ==.
      000874 4B AF            [ 1] 2471 	push	#0xaf
                           000876  2472 	Sstm8s_tim2$TIM2_SetIC2Prescaler$787 ==.
      000876 4B 03            [ 1] 2473 	push	#0x03
                           000878  2474 	Sstm8s_tim2$TIM2_SetIC2Prescaler$788 ==.
      000878 5F               [ 1] 2475 	clrw	x
      000879 89               [ 2] 2476 	pushw	x
                           00087A  2477 	Sstm8s_tim2$TIM2_SetIC2Prescaler$789 ==.
      00087A AEr00r00         [ 2] 2478 	ldw	x, #(___str_0+0)
      00087D CDr00r00         [ 4] 2479 	call	_assert_failed
                           000880  2480 	Sstm8s_tim2$TIM2_SetIC2Prescaler$790 ==.
      000880                       2481 00104$:
                           000880  2482 	Sstm8s_tim2$TIM2_SetIC2Prescaler$791 ==.
                                   2483 ;	./STM8S_StdPeriph_Lib/Libraries/STM8S_StdPeriph_Driver/src/stm8s_tim2.c: 946: TIM2->CCMR2 = (uint8_t)((uint8_t)(TIM2->CCMR2 & (uint8_t)(~TIM2_CCMR_ICxPSC))
      000880 C6 53 08         [ 1] 2484 	ld	a, 0x5308
      000883 A4 F3            [ 1] 2485 	and	a, #0xf3
                           000885  2486 	Sstm8s_tim2$TIM2_SetIC2Prescaler$792 ==.
                                   2487 ;	./STM8S_StdPeriph_Lib/Libraries/STM8S_StdPeriph_Driver/src/stm8s_tim2.c: 947: | (uint8_t)TIM2_IC2Prescaler);
      000885 1A 01            [ 1] 2488 	or	a, (0x01, sp)
      000887 C7 53 08         [ 1] 2489 	ld	0x5308, a
                           00088A  2490 	Sstm8s_tim2$TIM2_SetIC2Prescaler$793 ==.
                                   2491 ;	./STM8S_StdPeriph_Lib/Libraries/STM8S_StdPeriph_Driver/src/stm8s_tim2.c: 948: }
      00088A 84               [ 1] 2492 	pop	a
                           00088B  2493 	Sstm8s_tim2$TIM2_SetIC2Prescaler$794 ==.
                           00088B  2494 	Sstm8s_tim2$TIM2_SetIC2Prescaler$795 ==.
                           00088B  2495 	XG$TIM2_SetIC2Prescaler$0$0 ==.
      00088B 81               [ 4] 2496 	ret
                           00088C  2497 	Sstm8s_tim2$TIM2_SetIC2Prescaler$796 ==.
                           00088C  2498 	Sstm8s_tim2$TIM2_SetIC3Prescaler$797 ==.
                                   2499 ;	./STM8S_StdPeriph_Lib/Libraries/STM8S_StdPeriph_Driver/src/stm8s_tim2.c: 960: void TIM2_SetIC3Prescaler(TIM2_ICPSC_TypeDef TIM2_IC3Prescaler)
                                   2500 ;	-----------------------------------------
                                   2501 ;	 function TIM2_SetIC3Prescaler
                                   2502 ;	-----------------------------------------
      00088C                       2503 _TIM2_SetIC3Prescaler:
                           00088C  2504 	Sstm8s_tim2$TIM2_SetIC3Prescaler$798 ==.
      00088C 88               [ 1] 2505 	push	a
                           00088D  2506 	Sstm8s_tim2$TIM2_SetIC3Prescaler$799 ==.
                           00088D  2507 	Sstm8s_tim2$TIM2_SetIC3Prescaler$800 ==.
                                   2508 ;	./STM8S_StdPeriph_Lib/Libraries/STM8S_StdPeriph_Driver/src/stm8s_tim2.c: 964: assert_param(IS_TIM2_IC_PRESCALER_OK(TIM2_IC3Prescaler));
      00088D 6B 01            [ 1] 2509 	ld	(0x01, sp), a
      00088F 27 1E            [ 1] 2510 	jreq	00104$
      000891 7B 01            [ 1] 2511 	ld	a, (0x01, sp)
      000893 A1 04            [ 1] 2512 	cp	a, #0x04
      000895 27 18            [ 1] 2513 	jreq	00104$
                           000897  2514 	Sstm8s_tim2$TIM2_SetIC3Prescaler$801 ==.
      000897 7B 01            [ 1] 2515 	ld	a, (0x01, sp)
      000899 A1 08            [ 1] 2516 	cp	a, #0x08
      00089B 27 12            [ 1] 2517 	jreq	00104$
                           00089D  2518 	Sstm8s_tim2$TIM2_SetIC3Prescaler$802 ==.
      00089D 7B 01            [ 1] 2519 	ld	a, (0x01, sp)
      00089F A1 0C            [ 1] 2520 	cp	a, #0x0c
      0008A1 27 0C            [ 1] 2521 	jreq	00104$
                           0008A3  2522 	Sstm8s_tim2$TIM2_SetIC3Prescaler$803 ==.
      0008A3 4B C4            [ 1] 2523 	push	#0xc4
                           0008A5  2524 	Sstm8s_tim2$TIM2_SetIC3Prescaler$804 ==.
      0008A5 4B 03            [ 1] 2525 	push	#0x03
                           0008A7  2526 	Sstm8s_tim2$TIM2_SetIC3Prescaler$805 ==.
      0008A7 5F               [ 1] 2527 	clrw	x
      0008A8 89               [ 2] 2528 	pushw	x
                           0008A9  2529 	Sstm8s_tim2$TIM2_SetIC3Prescaler$806 ==.
      0008A9 AEr00r00         [ 2] 2530 	ldw	x, #(___str_0+0)
      0008AC CDr00r00         [ 4] 2531 	call	_assert_failed
                           0008AF  2532 	Sstm8s_tim2$TIM2_SetIC3Prescaler$807 ==.
      0008AF                       2533 00104$:
                           0008AF  2534 	Sstm8s_tim2$TIM2_SetIC3Prescaler$808 ==.
                                   2535 ;	./STM8S_StdPeriph_Lib/Libraries/STM8S_StdPeriph_Driver/src/stm8s_tim2.c: 966: TIM2->CCMR3 = (uint8_t)((uint8_t)(TIM2->CCMR3 & (uint8_t)(~TIM2_CCMR_ICxPSC))
      0008AF C6 53 09         [ 1] 2536 	ld	a, 0x5309
      0008B2 A4 F3            [ 1] 2537 	and	a, #0xf3
                           0008B4  2538 	Sstm8s_tim2$TIM2_SetIC3Prescaler$809 ==.
                                   2539 ;	./STM8S_StdPeriph_Lib/Libraries/STM8S_StdPeriph_Driver/src/stm8s_tim2.c: 967: | (uint8_t)TIM2_IC3Prescaler);
      0008B4 1A 01            [ 1] 2540 	or	a, (0x01, sp)
      0008B6 C7 53 09         [ 1] 2541 	ld	0x5309, a
                           0008B9  2542 	Sstm8s_tim2$TIM2_SetIC3Prescaler$810 ==.
                                   2543 ;	./STM8S_StdPeriph_Lib/Libraries/STM8S_StdPeriph_Driver/src/stm8s_tim2.c: 968: }
      0008B9 84               [ 1] 2544 	pop	a
                           0008BA  2545 	Sstm8s_tim2$TIM2_SetIC3Prescaler$811 ==.
                           0008BA  2546 	Sstm8s_tim2$TIM2_SetIC3Prescaler$812 ==.
                           0008BA  2547 	XG$TIM2_SetIC3Prescaler$0$0 ==.
      0008BA 81               [ 4] 2548 	ret
                           0008BB  2549 	Sstm8s_tim2$TIM2_SetIC3Prescaler$813 ==.
                           0008BB  2550 	Sstm8s_tim2$TIM2_GetCapture1$814 ==.
                                   2551 ;	./STM8S_StdPeriph_Lib/Libraries/STM8S_StdPeriph_Driver/src/stm8s_tim2.c: 975: uint16_t TIM2_GetCapture1(void)
                                   2552 ;	-----------------------------------------
                                   2553 ;	 function TIM2_GetCapture1
                                   2554 ;	-----------------------------------------
      0008BB                       2555 _TIM2_GetCapture1:
                           0008BB  2556 	Sstm8s_tim2$TIM2_GetCapture1$815 ==.
      0008BB 89               [ 2] 2557 	pushw	x
                           0008BC  2558 	Sstm8s_tim2$TIM2_GetCapture1$816 ==.
                           0008BC  2559 	Sstm8s_tim2$TIM2_GetCapture1$817 ==.
                                   2560 ;	./STM8S_StdPeriph_Lib/Libraries/STM8S_StdPeriph_Driver/src/stm8s_tim2.c: 981: tmpccr1h = TIM2->CCR1H;
      0008BC C6 53 11         [ 1] 2561 	ld	a, 0x5311
      0008BF 95               [ 1] 2562 	ld	xh, a
                           0008C0  2563 	Sstm8s_tim2$TIM2_GetCapture1$818 ==.
                                   2564 ;	./STM8S_StdPeriph_Lib/Libraries/STM8S_StdPeriph_Driver/src/stm8s_tim2.c: 982: tmpccr1l = TIM2->CCR1L;
      0008C0 C6 53 12         [ 1] 2565 	ld	a, 0x5312
                           0008C3  2566 	Sstm8s_tim2$TIM2_GetCapture1$819 ==.
                                   2567 ;	./STM8S_StdPeriph_Lib/Libraries/STM8S_StdPeriph_Driver/src/stm8s_tim2.c: 984: tmpccr1 = (uint16_t)(tmpccr1l);
      0008C3 6B 02            [ 1] 2568 	ld	(0x02, sp), a
      0008C5 0F 01            [ 1] 2569 	clr	(0x01, sp)
                           0008C7  2570 	Sstm8s_tim2$TIM2_GetCapture1$820 ==.
                                   2571 ;	./STM8S_StdPeriph_Lib/Libraries/STM8S_StdPeriph_Driver/src/stm8s_tim2.c: 985: tmpccr1 |= (uint16_t)((uint16_t)tmpccr1h << 8);
      0008C7 7B 02            [ 1] 2572 	ld	a, (0x02, sp)
      0008C9 02               [ 1] 2573 	rlwa	x
      0008CA 1A 01            [ 1] 2574 	or	a, (0x01, sp)
                           0008CC  2575 	Sstm8s_tim2$TIM2_GetCapture1$821 ==.
                                   2576 ;	./STM8S_StdPeriph_Lib/Libraries/STM8S_StdPeriph_Driver/src/stm8s_tim2.c: 987: return (uint16_t)tmpccr1;
      0008CC 95               [ 1] 2577 	ld	xh, a
                           0008CD  2578 	Sstm8s_tim2$TIM2_GetCapture1$822 ==.
                                   2579 ;	./STM8S_StdPeriph_Lib/Libraries/STM8S_StdPeriph_Driver/src/stm8s_tim2.c: 988: }
      0008CD 5B 02            [ 2] 2580 	addw	sp, #2
                           0008CF  2581 	Sstm8s_tim2$TIM2_GetCapture1$823 ==.
                           0008CF  2582 	Sstm8s_tim2$TIM2_GetCapture1$824 ==.
                           0008CF  2583 	XG$TIM2_GetCapture1$0$0 ==.
      0008CF 81               [ 4] 2584 	ret
                           0008D0  2585 	Sstm8s_tim2$TIM2_GetCapture1$825 ==.
                           0008D0  2586 	Sstm8s_tim2$TIM2_GetCapture2$826 ==.
                                   2587 ;	./STM8S_StdPeriph_Lib/Libraries/STM8S_StdPeriph_Driver/src/stm8s_tim2.c: 995: uint16_t TIM2_GetCapture2(void)
                                   2588 ;	-----------------------------------------
                                   2589 ;	 function TIM2_GetCapture2
                                   2590 ;	-----------------------------------------
      0008D0                       2591 _TIM2_GetCapture2:
                           0008D0  2592 	Sstm8s_tim2$TIM2_GetCapture2$827 ==.
      0008D0 89               [ 2] 2593 	pushw	x
                           0008D1  2594 	Sstm8s_tim2$TIM2_GetCapture2$828 ==.
                           0008D1  2595 	Sstm8s_tim2$TIM2_GetCapture2$829 ==.
                                   2596 ;	./STM8S_StdPeriph_Lib/Libraries/STM8S_StdPeriph_Driver/src/stm8s_tim2.c: 1001: tmpccr2h = TIM2->CCR2H;
      0008D1 C6 53 13         [ 1] 2597 	ld	a, 0x5313
      0008D4 95               [ 1] 2598 	ld	xh, a
                           0008D5  2599 	Sstm8s_tim2$TIM2_GetCapture2$830 ==.
                                   2600 ;	./STM8S_StdPeriph_Lib/Libraries/STM8S_StdPeriph_Driver/src/stm8s_tim2.c: 1002: tmpccr2l = TIM2->CCR2L;
      0008D5 C6 53 14         [ 1] 2601 	ld	a, 0x5314
                           0008D8  2602 	Sstm8s_tim2$TIM2_GetCapture2$831 ==.
                                   2603 ;	./STM8S_StdPeriph_Lib/Libraries/STM8S_StdPeriph_Driver/src/stm8s_tim2.c: 1004: tmpccr2 = (uint16_t)(tmpccr2l);
      0008D8 6B 02            [ 1] 2604 	ld	(0x02, sp), a
      0008DA 0F 01            [ 1] 2605 	clr	(0x01, sp)
                           0008DC  2606 	Sstm8s_tim2$TIM2_GetCapture2$832 ==.
                                   2607 ;	./STM8S_StdPeriph_Lib/Libraries/STM8S_StdPeriph_Driver/src/stm8s_tim2.c: 1005: tmpccr2 |= (uint16_t)((uint16_t)tmpccr2h << 8);
      0008DC 7B 02            [ 1] 2608 	ld	a, (0x02, sp)
      0008DE 02               [ 1] 2609 	rlwa	x
      0008DF 1A 01            [ 1] 2610 	or	a, (0x01, sp)
                           0008E1  2611 	Sstm8s_tim2$TIM2_GetCapture2$833 ==.
                                   2612 ;	./STM8S_StdPeriph_Lib/Libraries/STM8S_StdPeriph_Driver/src/stm8s_tim2.c: 1007: return (uint16_t)tmpccr2;
      0008E1 95               [ 1] 2613 	ld	xh, a
                           0008E2  2614 	Sstm8s_tim2$TIM2_GetCapture2$834 ==.
                                   2615 ;	./STM8S_StdPeriph_Lib/Libraries/STM8S_StdPeriph_Driver/src/stm8s_tim2.c: 1008: }
      0008E2 5B 02            [ 2] 2616 	addw	sp, #2
                           0008E4  2617 	Sstm8s_tim2$TIM2_GetCapture2$835 ==.
                           0008E4  2618 	Sstm8s_tim2$TIM2_GetCapture2$836 ==.
                           0008E4  2619 	XG$TIM2_GetCapture2$0$0 ==.
      0008E4 81               [ 4] 2620 	ret
                           0008E5  2621 	Sstm8s_tim2$TIM2_GetCapture2$837 ==.
                           0008E5  2622 	Sstm8s_tim2$TIM2_GetCapture3$838 ==.
                                   2623 ;	./STM8S_StdPeriph_Lib/Libraries/STM8S_StdPeriph_Driver/src/stm8s_tim2.c: 1015: uint16_t TIM2_GetCapture3(void)
                                   2624 ;	-----------------------------------------
                                   2625 ;	 function TIM2_GetCapture3
                                   2626 ;	-----------------------------------------
      0008E5                       2627 _TIM2_GetCapture3:
                           0008E5  2628 	Sstm8s_tim2$TIM2_GetCapture3$839 ==.
      0008E5 89               [ 2] 2629 	pushw	x
                           0008E6  2630 	Sstm8s_tim2$TIM2_GetCapture3$840 ==.
                           0008E6  2631 	Sstm8s_tim2$TIM2_GetCapture3$841 ==.
                                   2632 ;	./STM8S_StdPeriph_Lib/Libraries/STM8S_StdPeriph_Driver/src/stm8s_tim2.c: 1021: tmpccr3h = TIM2->CCR3H;
      0008E6 C6 53 15         [ 1] 2633 	ld	a, 0x5315
      0008E9 95               [ 1] 2634 	ld	xh, a
                           0008EA  2635 	Sstm8s_tim2$TIM2_GetCapture3$842 ==.
                                   2636 ;	./STM8S_StdPeriph_Lib/Libraries/STM8S_StdPeriph_Driver/src/stm8s_tim2.c: 1022: tmpccr3l = TIM2->CCR3L;
      0008EA C6 53 16         [ 1] 2637 	ld	a, 0x5316
                           0008ED  2638 	Sstm8s_tim2$TIM2_GetCapture3$843 ==.
                                   2639 ;	./STM8S_StdPeriph_Lib/Libraries/STM8S_StdPeriph_Driver/src/stm8s_tim2.c: 1024: tmpccr3 = (uint16_t)(tmpccr3l);
      0008ED 6B 02            [ 1] 2640 	ld	(0x02, sp), a
      0008EF 0F 01            [ 1] 2641 	clr	(0x01, sp)
                           0008F1  2642 	Sstm8s_tim2$TIM2_GetCapture3$844 ==.
                                   2643 ;	./STM8S_StdPeriph_Lib/Libraries/STM8S_StdPeriph_Driver/src/stm8s_tim2.c: 1025: tmpccr3 |= (uint16_t)((uint16_t)tmpccr3h << 8);
      0008F1 7B 02            [ 1] 2644 	ld	a, (0x02, sp)
      0008F3 02               [ 1] 2645 	rlwa	x
      0008F4 1A 01            [ 1] 2646 	or	a, (0x01, sp)
                           0008F6  2647 	Sstm8s_tim2$TIM2_GetCapture3$845 ==.
                                   2648 ;	./STM8S_StdPeriph_Lib/Libraries/STM8S_StdPeriph_Driver/src/stm8s_tim2.c: 1027: return (uint16_t)tmpccr3;
      0008F6 95               [ 1] 2649 	ld	xh, a
                           0008F7  2650 	Sstm8s_tim2$TIM2_GetCapture3$846 ==.
                                   2651 ;	./STM8S_StdPeriph_Lib/Libraries/STM8S_StdPeriph_Driver/src/stm8s_tim2.c: 1028: }
      0008F7 5B 02            [ 2] 2652 	addw	sp, #2
                           0008F9  2653 	Sstm8s_tim2$TIM2_GetCapture3$847 ==.
                           0008F9  2654 	Sstm8s_tim2$TIM2_GetCapture3$848 ==.
                           0008F9  2655 	XG$TIM2_GetCapture3$0$0 ==.
      0008F9 81               [ 4] 2656 	ret
                           0008FA  2657 	Sstm8s_tim2$TIM2_GetCapture3$849 ==.
                           0008FA  2658 	Sstm8s_tim2$TIM2_GetCounter$850 ==.
                                   2659 ;	./STM8S_StdPeriph_Lib/Libraries/STM8S_StdPeriph_Driver/src/stm8s_tim2.c: 1035: uint16_t TIM2_GetCounter(void)
                                   2660 ;	-----------------------------------------
                                   2661 ;	 function TIM2_GetCounter
                                   2662 ;	-----------------------------------------
      0008FA                       2663 _TIM2_GetCounter:
                           0008FA  2664 	Sstm8s_tim2$TIM2_GetCounter$851 ==.
      0008FA 52 04            [ 2] 2665 	sub	sp, #4
                           0008FC  2666 	Sstm8s_tim2$TIM2_GetCounter$852 ==.
                           0008FC  2667 	Sstm8s_tim2$TIM2_GetCounter$853 ==.
                                   2668 ;	./STM8S_StdPeriph_Lib/Libraries/STM8S_StdPeriph_Driver/src/stm8s_tim2.c: 1039: tmpcntr =  ((uint16_t)TIM2->CNTRH << 8);
      0008FC C6 53 0C         [ 1] 2669 	ld	a, 0x530c
      0008FF 95               [ 1] 2670 	ld	xh, a
      000900 0F 02            [ 1] 2671 	clr	(0x02, sp)
                           000902  2672 	Sstm8s_tim2$TIM2_GetCounter$854 ==.
                                   2673 ;	./STM8S_StdPeriph_Lib/Libraries/STM8S_StdPeriph_Driver/src/stm8s_tim2.c: 1041: return (uint16_t)( tmpcntr| (uint16_t)(TIM2->CNTRL));
      000902 C6 53 0D         [ 1] 2674 	ld	a, 0x530d
      000905 0F 03            [ 1] 2675 	clr	(0x03, sp)
      000907 1A 02            [ 1] 2676 	or	a, (0x02, sp)
      000909 02               [ 1] 2677 	rlwa	x
      00090A 1A 03            [ 1] 2678 	or	a, (0x03, sp)
      00090C 95               [ 1] 2679 	ld	xh, a
                           00090D  2680 	Sstm8s_tim2$TIM2_GetCounter$855 ==.
                                   2681 ;	./STM8S_StdPeriph_Lib/Libraries/STM8S_StdPeriph_Driver/src/stm8s_tim2.c: 1042: }
      00090D 5B 04            [ 2] 2682 	addw	sp, #4
                           00090F  2683 	Sstm8s_tim2$TIM2_GetCounter$856 ==.
                           00090F  2684 	Sstm8s_tim2$TIM2_GetCounter$857 ==.
                           00090F  2685 	XG$TIM2_GetCounter$0$0 ==.
      00090F 81               [ 4] 2686 	ret
                           000910  2687 	Sstm8s_tim2$TIM2_GetCounter$858 ==.
                           000910  2688 	Sstm8s_tim2$TIM2_GetPrescaler$859 ==.
                                   2689 ;	./STM8S_StdPeriph_Lib/Libraries/STM8S_StdPeriph_Driver/src/stm8s_tim2.c: 1049: TIM2_Prescaler_TypeDef TIM2_GetPrescaler(void)
                                   2690 ;	-----------------------------------------
                                   2691 ;	 function TIM2_GetPrescaler
                                   2692 ;	-----------------------------------------
      000910                       2693 _TIM2_GetPrescaler:
                           000910  2694 	Sstm8s_tim2$TIM2_GetPrescaler$860 ==.
                           000910  2695 	Sstm8s_tim2$TIM2_GetPrescaler$861 ==.
                                   2696 ;	./STM8S_StdPeriph_Lib/Libraries/STM8S_StdPeriph_Driver/src/stm8s_tim2.c: 1052: return (TIM2_Prescaler_TypeDef)(TIM2->PSCR);
      000910 C6 53 0E         [ 1] 2697 	ld	a, 0x530e
                           000913  2698 	Sstm8s_tim2$TIM2_GetPrescaler$862 ==.
                                   2699 ;	./STM8S_StdPeriph_Lib/Libraries/STM8S_StdPeriph_Driver/src/stm8s_tim2.c: 1053: }
                           000913  2700 	Sstm8s_tim2$TIM2_GetPrescaler$863 ==.
                           000913  2701 	XG$TIM2_GetPrescaler$0$0 ==.
      000913 81               [ 4] 2702 	ret
                           000914  2703 	Sstm8s_tim2$TIM2_GetPrescaler$864 ==.
                           000914  2704 	Sstm8s_tim2$TIM2_GetFlagStatus$865 ==.
                                   2705 ;	./STM8S_StdPeriph_Lib/Libraries/STM8S_StdPeriph_Driver/src/stm8s_tim2.c: 1068: FlagStatus TIM2_GetFlagStatus(TIM2_FLAG_TypeDef TIM2_FLAG)
                                   2706 ;	-----------------------------------------
                                   2707 ;	 function TIM2_GetFlagStatus
                                   2708 ;	-----------------------------------------
      000914                       2709 _TIM2_GetFlagStatus:
                           000914  2710 	Sstm8s_tim2$TIM2_GetFlagStatus$866 ==.
      000914 52 03            [ 2] 2711 	sub	sp, #3
                           000916  2712 	Sstm8s_tim2$TIM2_GetFlagStatus$867 ==.
                           000916  2713 	Sstm8s_tim2$TIM2_GetFlagStatus$868 ==.
                                   2714 ;	./STM8S_StdPeriph_Lib/Libraries/STM8S_StdPeriph_Driver/src/stm8s_tim2.c: 1074: assert_param(IS_TIM2_GET_FLAG_OK(TIM2_FLAG));
      000916 1F 02            [ 2] 2715 	ldw	(0x02, sp), x
      000918 A3 00 01         [ 2] 2716 	cpw	x, #0x0001
      00091B 27 2E            [ 1] 2717 	jreq	00107$
                           00091D  2718 	Sstm8s_tim2$TIM2_GetFlagStatus$869 ==.
      00091D A3 00 02         [ 2] 2719 	cpw	x, #0x0002
      000920 27 29            [ 1] 2720 	jreq	00107$
                           000922  2721 	Sstm8s_tim2$TIM2_GetFlagStatus$870 ==.
      000922 A3 00 04         [ 2] 2722 	cpw	x, #0x0004
      000925 27 24            [ 1] 2723 	jreq	00107$
                           000927  2724 	Sstm8s_tim2$TIM2_GetFlagStatus$871 ==.
      000927 A3 00 08         [ 2] 2725 	cpw	x, #0x0008
      00092A 27 1F            [ 1] 2726 	jreq	00107$
                           00092C  2727 	Sstm8s_tim2$TIM2_GetFlagStatus$872 ==.
      00092C A3 02 00         [ 2] 2728 	cpw	x, #0x0200
      00092F 27 1A            [ 1] 2729 	jreq	00107$
                           000931  2730 	Sstm8s_tim2$TIM2_GetFlagStatus$873 ==.
      000931 A3 04 00         [ 2] 2731 	cpw	x, #0x0400
      000934 27 15            [ 1] 2732 	jreq	00107$
                           000936  2733 	Sstm8s_tim2$TIM2_GetFlagStatus$874 ==.
      000936 A3 08 00         [ 2] 2734 	cpw	x, #0x0800
      000939 27 10            [ 1] 2735 	jreq	00107$
                           00093B  2736 	Sstm8s_tim2$TIM2_GetFlagStatus$875 ==.
      00093B 89               [ 2] 2737 	pushw	x
                           00093C  2738 	Sstm8s_tim2$TIM2_GetFlagStatus$876 ==.
      00093C 4B 32            [ 1] 2739 	push	#0x32
                           00093E  2740 	Sstm8s_tim2$TIM2_GetFlagStatus$877 ==.
      00093E 4B 04            [ 1] 2741 	push	#0x04
                           000940  2742 	Sstm8s_tim2$TIM2_GetFlagStatus$878 ==.
      000940 4B 00            [ 1] 2743 	push	#0x00
                           000942  2744 	Sstm8s_tim2$TIM2_GetFlagStatus$879 ==.
      000942 4B 00            [ 1] 2745 	push	#0x00
                           000944  2746 	Sstm8s_tim2$TIM2_GetFlagStatus$880 ==.
      000944 AEr00r00         [ 2] 2747 	ldw	x, #(___str_0+0)
      000947 CDr00r00         [ 4] 2748 	call	_assert_failed
                           00094A  2749 	Sstm8s_tim2$TIM2_GetFlagStatus$881 ==.
      00094A 85               [ 2] 2750 	popw	x
                           00094B  2751 	Sstm8s_tim2$TIM2_GetFlagStatus$882 ==.
      00094B                       2752 00107$:
                           00094B  2753 	Sstm8s_tim2$TIM2_GetFlagStatus$883 ==.
                                   2754 ;	./STM8S_StdPeriph_Lib/Libraries/STM8S_StdPeriph_Driver/src/stm8s_tim2.c: 1076: tim2_flag_l = (uint8_t)(TIM2->SR1 & (uint8_t)TIM2_FLAG);
      00094B C6 53 04         [ 1] 2755 	ld	a, 0x5304
      00094E 6B 01            [ 1] 2756 	ld	(0x01, sp), a
      000950 7B 03            [ 1] 2757 	ld	a, (0x03, sp)
      000952 14 01            [ 1] 2758 	and	a, (0x01, sp)
      000954 6B 01            [ 1] 2759 	ld	(0x01, sp), a
                           000956  2760 	Sstm8s_tim2$TIM2_GetFlagStatus$884 ==.
                                   2761 ;	./STM8S_StdPeriph_Lib/Libraries/STM8S_StdPeriph_Driver/src/stm8s_tim2.c: 1077: tim2_flag_h = (uint8_t)((uint16_t)TIM2_FLAG >> 8);
                           000956  2762 	Sstm8s_tim2$TIM2_GetFlagStatus$885 ==.
                                   2763 ;	./STM8S_StdPeriph_Lib/Libraries/STM8S_StdPeriph_Driver/src/stm8s_tim2.c: 1079: if ((tim2_flag_l | (uint8_t)(TIM2->SR2 & tim2_flag_h)) != (uint8_t)RESET )
      000956 C6 53 05         [ 1] 2764 	ld	a, 0x5305
      000959 89               [ 2] 2765 	pushw	x
                           00095A  2766 	Sstm8s_tim2$TIM2_GetFlagStatus$886 ==.
      00095A 14 01            [ 1] 2767 	and	a, (1, sp)
      00095C 85               [ 2] 2768 	popw	x
                           00095D  2769 	Sstm8s_tim2$TIM2_GetFlagStatus$887 ==.
      00095D 1A 01            [ 1] 2770 	or	a, (0x01, sp)
      00095F 27 03            [ 1] 2771 	jreq	00102$
                           000961  2772 	Sstm8s_tim2$TIM2_GetFlagStatus$888 ==.
                           000961  2773 	Sstm8s_tim2$TIM2_GetFlagStatus$889 ==.
                                   2774 ;	./STM8S_StdPeriph_Lib/Libraries/STM8S_StdPeriph_Driver/src/stm8s_tim2.c: 1081: bitstatus = SET;
      000961 A6 01            [ 1] 2775 	ld	a, #0x01
                           000963  2776 	Sstm8s_tim2$TIM2_GetFlagStatus$890 ==.
                           000963  2777 	Sstm8s_tim2$TIM2_GetFlagStatus$891 ==.
                           000963  2778 	Sstm8s_tim2$TIM2_GetFlagStatus$892 ==.
                                   2779 ;	./STM8S_StdPeriph_Lib/Libraries/STM8S_StdPeriph_Driver/src/stm8s_tim2.c: 1085: bitstatus = RESET;
                           000963  2780 	Sstm8s_tim2$TIM2_GetFlagStatus$893 ==.
      000963 21                    2781 	.byte 0x21
      000964                       2782 00102$:
      000964 4F               [ 1] 2783 	clr	a
      000965                       2784 00103$:
                           000965  2785 	Sstm8s_tim2$TIM2_GetFlagStatus$894 ==.
                                   2786 ;	./STM8S_StdPeriph_Lib/Libraries/STM8S_StdPeriph_Driver/src/stm8s_tim2.c: 1087: return (FlagStatus)bitstatus;
                           000965  2787 	Sstm8s_tim2$TIM2_GetFlagStatus$895 ==.
                                   2788 ;	./STM8S_StdPeriph_Lib/Libraries/STM8S_StdPeriph_Driver/src/stm8s_tim2.c: 1088: }
      000965 5B 03            [ 2] 2789 	addw	sp, #3
                           000967  2790 	Sstm8s_tim2$TIM2_GetFlagStatus$896 ==.
                           000967  2791 	Sstm8s_tim2$TIM2_GetFlagStatus$897 ==.
                           000967  2792 	XG$TIM2_GetFlagStatus$0$0 ==.
      000967 81               [ 4] 2793 	ret
                           000968  2794 	Sstm8s_tim2$TIM2_GetFlagStatus$898 ==.
                           000968  2795 	Sstm8s_tim2$TIM2_ClearFlag$899 ==.
                                   2796 ;	./STM8S_StdPeriph_Lib/Libraries/STM8S_StdPeriph_Driver/src/stm8s_tim2.c: 1103: void TIM2_ClearFlag(TIM2_FLAG_TypeDef TIM2_FLAG)
                                   2797 ;	-----------------------------------------
                                   2798 ;	 function TIM2_ClearFlag
                                   2799 ;	-----------------------------------------
      000968                       2800 _TIM2_ClearFlag:
                           000968  2801 	Sstm8s_tim2$TIM2_ClearFlag$900 ==.
      000968 89               [ 2] 2802 	pushw	x
                           000969  2803 	Sstm8s_tim2$TIM2_ClearFlag$901 ==.
      000969 1F 01            [ 2] 2804 	ldw	(0x01, sp), x
                           00096B  2805 	Sstm8s_tim2$TIM2_ClearFlag$902 ==.
                                   2806 ;	./STM8S_StdPeriph_Lib/Libraries/STM8S_StdPeriph_Driver/src/stm8s_tim2.c: 1106: assert_param(IS_TIM2_CLEAR_FLAG_OK(TIM2_FLAG));
      00096B 7B 02            [ 1] 2807 	ld	a, (0x02, sp)
      00096D A4 F0            [ 1] 2808 	and	a, #0xf0
      00096F 97               [ 1] 2809 	ld	xl, a
      000970 7B 01            [ 1] 2810 	ld	a, (0x01, sp)
      000972 A4 F1            [ 1] 2811 	and	a, #0xf1
      000974 95               [ 1] 2812 	ld	xh, a
      000975 5D               [ 2] 2813 	tnzw	x
      000976 26 04            [ 1] 2814 	jrne	00103$
      000978 1E 01            [ 2] 2815 	ldw	x, (0x01, sp)
      00097A 26 0C            [ 1] 2816 	jrne	00104$
      00097C                       2817 00103$:
      00097C 4B 52            [ 1] 2818 	push	#0x52
                           00097E  2819 	Sstm8s_tim2$TIM2_ClearFlag$903 ==.
      00097E 4B 04            [ 1] 2820 	push	#0x04
                           000980  2821 	Sstm8s_tim2$TIM2_ClearFlag$904 ==.
      000980 5F               [ 1] 2822 	clrw	x
      000981 89               [ 2] 2823 	pushw	x
                           000982  2824 	Sstm8s_tim2$TIM2_ClearFlag$905 ==.
      000982 AEr00r00         [ 2] 2825 	ldw	x, #(___str_0+0)
      000985 CDr00r00         [ 4] 2826 	call	_assert_failed
                           000988  2827 	Sstm8s_tim2$TIM2_ClearFlag$906 ==.
      000988                       2828 00104$:
                           000988  2829 	Sstm8s_tim2$TIM2_ClearFlag$907 ==.
                                   2830 ;	./STM8S_StdPeriph_Lib/Libraries/STM8S_StdPeriph_Driver/src/stm8s_tim2.c: 1109: TIM2->SR1 = (uint8_t)(~((uint8_t)(TIM2_FLAG)));
      000988 7B 02            [ 1] 2831 	ld	a, (0x02, sp)
      00098A 43               [ 1] 2832 	cpl	a
      00098B C7 53 04         [ 1] 2833 	ld	0x5304, a
                           00098E  2834 	Sstm8s_tim2$TIM2_ClearFlag$908 ==.
                                   2835 ;	./STM8S_StdPeriph_Lib/Libraries/STM8S_StdPeriph_Driver/src/stm8s_tim2.c: 1110: TIM2->SR2 = (uint8_t)(~((uint8_t)((uint8_t)TIM2_FLAG >> 8)));
      00098E 35 FF 53 05      [ 1] 2836 	mov	0x5305+0, #0xff
                           000992  2837 	Sstm8s_tim2$TIM2_ClearFlag$909 ==.
                                   2838 ;	./STM8S_StdPeriph_Lib/Libraries/STM8S_StdPeriph_Driver/src/stm8s_tim2.c: 1111: }
      000992 85               [ 2] 2839 	popw	x
                           000993  2840 	Sstm8s_tim2$TIM2_ClearFlag$910 ==.
                           000993  2841 	Sstm8s_tim2$TIM2_ClearFlag$911 ==.
                           000993  2842 	XG$TIM2_ClearFlag$0$0 ==.
      000993 81               [ 4] 2843 	ret
                           000994  2844 	Sstm8s_tim2$TIM2_ClearFlag$912 ==.
                           000994  2845 	Sstm8s_tim2$TIM2_GetITStatus$913 ==.
                                   2846 ;	./STM8S_StdPeriph_Lib/Libraries/STM8S_StdPeriph_Driver/src/stm8s_tim2.c: 1123: ITStatus TIM2_GetITStatus(TIM2_IT_TypeDef TIM2_IT)
                                   2847 ;	-----------------------------------------
                                   2848 ;	 function TIM2_GetITStatus
                                   2849 ;	-----------------------------------------
      000994                       2850 _TIM2_GetITStatus:
                           000994  2851 	Sstm8s_tim2$TIM2_GetITStatus$914 ==.
      000994 89               [ 2] 2852 	pushw	x
                           000995  2853 	Sstm8s_tim2$TIM2_GetITStatus$915 ==.
                           000995  2854 	Sstm8s_tim2$TIM2_GetITStatus$916 ==.
                                   2855 ;	./STM8S_StdPeriph_Lib/Libraries/STM8S_StdPeriph_Driver/src/stm8s_tim2.c: 1129: assert_param(IS_TIM2_GET_IT_OK(TIM2_IT));
      000995 6B 02            [ 1] 2856 	ld	(0x02, sp), a
      000997 4A               [ 1] 2857 	dec	a
      000998 27 1E            [ 1] 2858 	jreq	00108$
                           00099A  2859 	Sstm8s_tim2$TIM2_GetITStatus$917 ==.
      00099A 7B 02            [ 1] 2860 	ld	a, (0x02, sp)
      00099C A1 02            [ 1] 2861 	cp	a, #0x02
      00099E 27 18            [ 1] 2862 	jreq	00108$
                           0009A0  2863 	Sstm8s_tim2$TIM2_GetITStatus$918 ==.
      0009A0 7B 02            [ 1] 2864 	ld	a, (0x02, sp)
      0009A2 A1 04            [ 1] 2865 	cp	a, #0x04
      0009A4 27 12            [ 1] 2866 	jreq	00108$
                           0009A6  2867 	Sstm8s_tim2$TIM2_GetITStatus$919 ==.
      0009A6 7B 02            [ 1] 2868 	ld	a, (0x02, sp)
      0009A8 A1 08            [ 1] 2869 	cp	a, #0x08
      0009AA 27 0C            [ 1] 2870 	jreq	00108$
                           0009AC  2871 	Sstm8s_tim2$TIM2_GetITStatus$920 ==.
      0009AC 4B 69            [ 1] 2872 	push	#0x69
                           0009AE  2873 	Sstm8s_tim2$TIM2_GetITStatus$921 ==.
      0009AE 4B 04            [ 1] 2874 	push	#0x04
                           0009B0  2875 	Sstm8s_tim2$TIM2_GetITStatus$922 ==.
      0009B0 5F               [ 1] 2876 	clrw	x
      0009B1 89               [ 2] 2877 	pushw	x
                           0009B2  2878 	Sstm8s_tim2$TIM2_GetITStatus$923 ==.
      0009B2 AEr00r00         [ 2] 2879 	ldw	x, #(___str_0+0)
      0009B5 CDr00r00         [ 4] 2880 	call	_assert_failed
                           0009B8  2881 	Sstm8s_tim2$TIM2_GetITStatus$924 ==.
      0009B8                       2882 00108$:
                           0009B8  2883 	Sstm8s_tim2$TIM2_GetITStatus$925 ==.
                                   2884 ;	./STM8S_StdPeriph_Lib/Libraries/STM8S_StdPeriph_Driver/src/stm8s_tim2.c: 1131: TIM2_itStatus = (uint8_t)(TIM2->SR1 & TIM2_IT);
      0009B8 C6 53 04         [ 1] 2885 	ld	a, 0x5304
      0009BB 14 02            [ 1] 2886 	and	a, (0x02, sp)
      0009BD 6B 01            [ 1] 2887 	ld	(0x01, sp), a
                           0009BF  2888 	Sstm8s_tim2$TIM2_GetITStatus$926 ==.
                                   2889 ;	./STM8S_StdPeriph_Lib/Libraries/STM8S_StdPeriph_Driver/src/stm8s_tim2.c: 1133: TIM2_itEnable = (uint8_t)(TIM2->IER & TIM2_IT);
      0009BF C6 53 03         [ 1] 2890 	ld	a, 0x5303
      0009C2 14 02            [ 1] 2891 	and	a, (0x02, sp)
                           0009C4  2892 	Sstm8s_tim2$TIM2_GetITStatus$927 ==.
                                   2893 ;	./STM8S_StdPeriph_Lib/Libraries/STM8S_StdPeriph_Driver/src/stm8s_tim2.c: 1135: if ((TIM2_itStatus != (uint8_t)RESET ) && (TIM2_itEnable != (uint8_t)RESET ))
      0009C4 0D 01            [ 1] 2894 	tnz	(0x01, sp)
      0009C6 27 06            [ 1] 2895 	jreq	00102$
      0009C8 4D               [ 1] 2896 	tnz	a
      0009C9 27 03            [ 1] 2897 	jreq	00102$
                           0009CB  2898 	Sstm8s_tim2$TIM2_GetITStatus$928 ==.
                           0009CB  2899 	Sstm8s_tim2$TIM2_GetITStatus$929 ==.
                                   2900 ;	./STM8S_StdPeriph_Lib/Libraries/STM8S_StdPeriph_Driver/src/stm8s_tim2.c: 1137: bitstatus = SET;
      0009CB A6 01            [ 1] 2901 	ld	a, #0x01
                           0009CD  2902 	Sstm8s_tim2$TIM2_GetITStatus$930 ==.
                           0009CD  2903 	Sstm8s_tim2$TIM2_GetITStatus$931 ==.
                           0009CD  2904 	Sstm8s_tim2$TIM2_GetITStatus$932 ==.
                                   2905 ;	./STM8S_StdPeriph_Lib/Libraries/STM8S_StdPeriph_Driver/src/stm8s_tim2.c: 1141: bitstatus = RESET;
                           0009CD  2906 	Sstm8s_tim2$TIM2_GetITStatus$933 ==.
      0009CD 21                    2907 	.byte 0x21
      0009CE                       2908 00102$:
      0009CE 4F               [ 1] 2909 	clr	a
      0009CF                       2910 00103$:
                           0009CF  2911 	Sstm8s_tim2$TIM2_GetITStatus$934 ==.
                                   2912 ;	./STM8S_StdPeriph_Lib/Libraries/STM8S_StdPeriph_Driver/src/stm8s_tim2.c: 1143: return (ITStatus)(bitstatus);
                           0009CF  2913 	Sstm8s_tim2$TIM2_GetITStatus$935 ==.
                                   2914 ;	./STM8S_StdPeriph_Lib/Libraries/STM8S_StdPeriph_Driver/src/stm8s_tim2.c: 1144: }
      0009CF 85               [ 2] 2915 	popw	x
                           0009D0  2916 	Sstm8s_tim2$TIM2_GetITStatus$936 ==.
                           0009D0  2917 	Sstm8s_tim2$TIM2_GetITStatus$937 ==.
                           0009D0  2918 	XG$TIM2_GetITStatus$0$0 ==.
      0009D0 81               [ 4] 2919 	ret
                           0009D1  2920 	Sstm8s_tim2$TIM2_GetITStatus$938 ==.
                           0009D1  2921 	Sstm8s_tim2$TIM2_ClearITPendingBit$939 ==.
                                   2922 ;	./STM8S_StdPeriph_Lib/Libraries/STM8S_StdPeriph_Driver/src/stm8s_tim2.c: 1156: void TIM2_ClearITPendingBit(TIM2_IT_TypeDef TIM2_IT)
                                   2923 ;	-----------------------------------------
                                   2924 ;	 function TIM2_ClearITPendingBit
                                   2925 ;	-----------------------------------------
      0009D1                       2926 _TIM2_ClearITPendingBit:
                           0009D1  2927 	Sstm8s_tim2$TIM2_ClearITPendingBit$940 ==.
                           0009D1  2928 	Sstm8s_tim2$TIM2_ClearITPendingBit$941 ==.
                                   2929 ;	./STM8S_StdPeriph_Lib/Libraries/STM8S_StdPeriph_Driver/src/stm8s_tim2.c: 1159: assert_param(IS_TIM2_IT_OK(TIM2_IT));
      0009D1 4D               [ 1] 2930 	tnz	a
      0009D2 27 04            [ 1] 2931 	jreq	00103$
      0009D4 A1 0F            [ 1] 2932 	cp	a, #0x0f
      0009D6 23 0E            [ 2] 2933 	jrule	00104$
      0009D8                       2934 00103$:
      0009D8 88               [ 1] 2935 	push	a
                           0009D9  2936 	Sstm8s_tim2$TIM2_ClearITPendingBit$942 ==.
      0009D9 4B 87            [ 1] 2937 	push	#0x87
                           0009DB  2938 	Sstm8s_tim2$TIM2_ClearITPendingBit$943 ==.
      0009DB 4B 04            [ 1] 2939 	push	#0x04
                           0009DD  2940 	Sstm8s_tim2$TIM2_ClearITPendingBit$944 ==.
      0009DD 5F               [ 1] 2941 	clrw	x
      0009DE 89               [ 2] 2942 	pushw	x
                           0009DF  2943 	Sstm8s_tim2$TIM2_ClearITPendingBit$945 ==.
      0009DF AEr00r00         [ 2] 2944 	ldw	x, #(___str_0+0)
      0009E2 CDr00r00         [ 4] 2945 	call	_assert_failed
                           0009E5  2946 	Sstm8s_tim2$TIM2_ClearITPendingBit$946 ==.
      0009E5 84               [ 1] 2947 	pop	a
                           0009E6  2948 	Sstm8s_tim2$TIM2_ClearITPendingBit$947 ==.
      0009E6                       2949 00104$:
                           0009E6  2950 	Sstm8s_tim2$TIM2_ClearITPendingBit$948 ==.
                                   2951 ;	./STM8S_StdPeriph_Lib/Libraries/STM8S_StdPeriph_Driver/src/stm8s_tim2.c: 1162: TIM2->SR1 = (uint8_t)(~TIM2_IT);
      0009E6 43               [ 1] 2952 	cpl	a
      0009E7 C7 53 04         [ 1] 2953 	ld	0x5304, a
                           0009EA  2954 	Sstm8s_tim2$TIM2_ClearITPendingBit$949 ==.
                                   2955 ;	./STM8S_StdPeriph_Lib/Libraries/STM8S_StdPeriph_Driver/src/stm8s_tim2.c: 1163: }
                           0009EA  2956 	Sstm8s_tim2$TIM2_ClearITPendingBit$950 ==.
                           0009EA  2957 	XG$TIM2_ClearITPendingBit$0$0 ==.
      0009EA 81               [ 4] 2958 	ret
                           0009EB  2959 	Sstm8s_tim2$TIM2_ClearITPendingBit$951 ==.
                           0009EB  2960 	Sstm8s_tim2$TI1_Config$952 ==.
                                   2961 ;	./STM8S_StdPeriph_Lib/Libraries/STM8S_StdPeriph_Driver/src/stm8s_tim2.c: 1181: static void TI1_Config(uint8_t TIM2_ICPolarity,
                                   2962 ;	-----------------------------------------
                                   2963 ;	 function TI1_Config
                                   2964 ;	-----------------------------------------
      0009EB                       2965 _TI1_Config:
                           0009EB  2966 	Sstm8s_tim2$TI1_Config$953 ==.
      0009EB 89               [ 2] 2967 	pushw	x
                           0009EC  2968 	Sstm8s_tim2$TI1_Config$954 ==.
      0009EC 6B 02            [ 1] 2969 	ld	(0x02, sp), a
                           0009EE  2970 	Sstm8s_tim2$TI1_Config$955 ==.
                                   2971 ;	./STM8S_StdPeriph_Lib/Libraries/STM8S_StdPeriph_Driver/src/stm8s_tim2.c: 1186: TIM2->CCER1 &= (uint8_t)(~TIM2_CCER1_CC1E);
      0009EE 72 11 53 0A      [ 1] 2972 	bres	0x530a, #0
                           0009F2  2973 	Sstm8s_tim2$TI1_Config$956 ==.
                                   2974 ;	./STM8S_StdPeriph_Lib/Libraries/STM8S_StdPeriph_Driver/src/stm8s_tim2.c: 1189: TIM2->CCMR1  = (uint8_t)((uint8_t)(TIM2->CCMR1 & (uint8_t)(~(uint8_t)( TIM2_CCMR_CCxS | TIM2_CCMR_ICxF )))
      0009F2 C6 53 07         [ 1] 2975 	ld	a, 0x5307
      0009F5 A4 0C            [ 1] 2976 	and	a, #0x0c
      0009F7 6B 01            [ 1] 2977 	ld	(0x01, sp), a
                           0009F9  2978 	Sstm8s_tim2$TI1_Config$957 ==.
                                   2979 ;	./STM8S_StdPeriph_Lib/Libraries/STM8S_StdPeriph_Driver/src/stm8s_tim2.c: 1190: | (uint8_t)(((TIM2_ICSelection)) | ((uint8_t)( TIM2_ICFilter << 4))));
      0009F9 7B 06            [ 1] 2980 	ld	a, (0x06, sp)
      0009FB 4E               [ 1] 2981 	swap	a
      0009FC A4 F0            [ 1] 2982 	and	a, #0xf0
      0009FE 1A 05            [ 1] 2983 	or	a, (0x05, sp)
      000A00 1A 01            [ 1] 2984 	or	a, (0x01, sp)
      000A02 C7 53 07         [ 1] 2985 	ld	0x5307, a
                           000A05  2986 	Sstm8s_tim2$TI1_Config$958 ==.
                                   2987 ;	./STM8S_StdPeriph_Lib/Libraries/STM8S_StdPeriph_Driver/src/stm8s_tim2.c: 1186: TIM2->CCER1 &= (uint8_t)(~TIM2_CCER1_CC1E);
      000A05 C6 53 0A         [ 1] 2988 	ld	a, 0x530a
                           000A08  2989 	Sstm8s_tim2$TI1_Config$959 ==.
                                   2990 ;	./STM8S_StdPeriph_Lib/Libraries/STM8S_StdPeriph_Driver/src/stm8s_tim2.c: 1193: if (TIM2_ICPolarity != TIM2_ICPOLARITY_RISING)
      000A08 0D 02            [ 1] 2991 	tnz	(0x02, sp)
      000A0A 27 07            [ 1] 2992 	jreq	00102$
                           000A0C  2993 	Sstm8s_tim2$TI1_Config$960 ==.
                           000A0C  2994 	Sstm8s_tim2$TI1_Config$961 ==.
                                   2995 ;	./STM8S_StdPeriph_Lib/Libraries/STM8S_StdPeriph_Driver/src/stm8s_tim2.c: 1195: TIM2->CCER1 |= TIM2_CCER1_CC1P;
      000A0C AA 02            [ 1] 2996 	or	a, #0x02
      000A0E C7 53 0A         [ 1] 2997 	ld	0x530a, a
                           000A11  2998 	Sstm8s_tim2$TI1_Config$962 ==.
      000A11 20 05            [ 2] 2999 	jra	00103$
      000A13                       3000 00102$:
                           000A13  3001 	Sstm8s_tim2$TI1_Config$963 ==.
                           000A13  3002 	Sstm8s_tim2$TI1_Config$964 ==.
                                   3003 ;	./STM8S_StdPeriph_Lib/Libraries/STM8S_StdPeriph_Driver/src/stm8s_tim2.c: 1199: TIM2->CCER1 &= (uint8_t)(~TIM2_CCER1_CC1P);
      000A13 A4 FD            [ 1] 3004 	and	a, #0xfd
      000A15 C7 53 0A         [ 1] 3005 	ld	0x530a, a
                           000A18  3006 	Sstm8s_tim2$TI1_Config$965 ==.
      000A18                       3007 00103$:
                           000A18  3008 	Sstm8s_tim2$TI1_Config$966 ==.
                                   3009 ;	./STM8S_StdPeriph_Lib/Libraries/STM8S_StdPeriph_Driver/src/stm8s_tim2.c: 1202: TIM2->CCER1 |= TIM2_CCER1_CC1E;
      000A18 C6 53 0A         [ 1] 3010 	ld	a, 0x530a
      000A1B AA 01            [ 1] 3011 	or	a, #0x01
      000A1D C7 53 0A         [ 1] 3012 	ld	0x530a, a
                           000A20  3013 	Sstm8s_tim2$TI1_Config$967 ==.
                                   3014 ;	./STM8S_StdPeriph_Lib/Libraries/STM8S_StdPeriph_Driver/src/stm8s_tim2.c: 1203: }
      000A20 1E 03            [ 2] 3015 	ldw	x, (3, sp)
      000A22 5B 06            [ 2] 3016 	addw	sp, #6
                           000A24  3017 	Sstm8s_tim2$TI1_Config$968 ==.
      000A24 FC               [ 2] 3018 	jp	(x)
                           000A25  3019 	Sstm8s_tim2$TI1_Config$969 ==.
                           000A25  3020 	Sstm8s_tim2$TI2_Config$970 ==.
                                   3021 ;	./STM8S_StdPeriph_Lib/Libraries/STM8S_StdPeriph_Driver/src/stm8s_tim2.c: 1221: static void TI2_Config(uint8_t TIM2_ICPolarity,
                                   3022 ;	-----------------------------------------
                                   3023 ;	 function TI2_Config
                                   3024 ;	-----------------------------------------
      000A25                       3025 _TI2_Config:
                           000A25  3026 	Sstm8s_tim2$TI2_Config$971 ==.
      000A25 89               [ 2] 3027 	pushw	x
                           000A26  3028 	Sstm8s_tim2$TI2_Config$972 ==.
      000A26 6B 02            [ 1] 3029 	ld	(0x02, sp), a
                           000A28  3030 	Sstm8s_tim2$TI2_Config$973 ==.
                                   3031 ;	./STM8S_StdPeriph_Lib/Libraries/STM8S_StdPeriph_Driver/src/stm8s_tim2.c: 1226: TIM2->CCER1 &= (uint8_t)(~TIM2_CCER1_CC2E);
      000A28 72 19 53 0A      [ 1] 3032 	bres	0x530a, #4
                           000A2C  3033 	Sstm8s_tim2$TI2_Config$974 ==.
                                   3034 ;	./STM8S_StdPeriph_Lib/Libraries/STM8S_StdPeriph_Driver/src/stm8s_tim2.c: 1229: TIM2->CCMR2 = (uint8_t)((uint8_t)(TIM2->CCMR2 & (uint8_t)(~(uint8_t)( TIM2_CCMR_CCxS | TIM2_CCMR_ICxF ))) 
      000A2C C6 53 08         [ 1] 3035 	ld	a, 0x5308
      000A2F A4 0C            [ 1] 3036 	and	a, #0x0c
      000A31 6B 01            [ 1] 3037 	ld	(0x01, sp), a
                           000A33  3038 	Sstm8s_tim2$TI2_Config$975 ==.
                                   3039 ;	./STM8S_StdPeriph_Lib/Libraries/STM8S_StdPeriph_Driver/src/stm8s_tim2.c: 1230: | (uint8_t)(( (TIM2_ICSelection)) | ((uint8_t)( TIM2_ICFilter << 4))));
      000A33 7B 06            [ 1] 3040 	ld	a, (0x06, sp)
      000A35 4E               [ 1] 3041 	swap	a
      000A36 A4 F0            [ 1] 3042 	and	a, #0xf0
      000A38 1A 05            [ 1] 3043 	or	a, (0x05, sp)
      000A3A 1A 01            [ 1] 3044 	or	a, (0x01, sp)
      000A3C C7 53 08         [ 1] 3045 	ld	0x5308, a
                           000A3F  3046 	Sstm8s_tim2$TI2_Config$976 ==.
                                   3047 ;	./STM8S_StdPeriph_Lib/Libraries/STM8S_StdPeriph_Driver/src/stm8s_tim2.c: 1226: TIM2->CCER1 &= (uint8_t)(~TIM2_CCER1_CC2E);
      000A3F C6 53 0A         [ 1] 3048 	ld	a, 0x530a
                           000A42  3049 	Sstm8s_tim2$TI2_Config$977 ==.
                                   3050 ;	./STM8S_StdPeriph_Lib/Libraries/STM8S_StdPeriph_Driver/src/stm8s_tim2.c: 1234: if (TIM2_ICPolarity != TIM2_ICPOLARITY_RISING)
      000A42 0D 02            [ 1] 3051 	tnz	(0x02, sp)
      000A44 27 07            [ 1] 3052 	jreq	00102$
                           000A46  3053 	Sstm8s_tim2$TI2_Config$978 ==.
                           000A46  3054 	Sstm8s_tim2$TI2_Config$979 ==.
                                   3055 ;	./STM8S_StdPeriph_Lib/Libraries/STM8S_StdPeriph_Driver/src/stm8s_tim2.c: 1236: TIM2->CCER1 |= TIM2_CCER1_CC2P;
      000A46 AA 20            [ 1] 3056 	or	a, #0x20
      000A48 C7 53 0A         [ 1] 3057 	ld	0x530a, a
                           000A4B  3058 	Sstm8s_tim2$TI2_Config$980 ==.
      000A4B 20 05            [ 2] 3059 	jra	00103$
      000A4D                       3060 00102$:
                           000A4D  3061 	Sstm8s_tim2$TI2_Config$981 ==.
                           000A4D  3062 	Sstm8s_tim2$TI2_Config$982 ==.
                                   3063 ;	./STM8S_StdPeriph_Lib/Libraries/STM8S_StdPeriph_Driver/src/stm8s_tim2.c: 1240: TIM2->CCER1 &= (uint8_t)(~TIM2_CCER1_CC2P);
      000A4D A4 DF            [ 1] 3064 	and	a, #0xdf
      000A4F C7 53 0A         [ 1] 3065 	ld	0x530a, a
                           000A52  3066 	Sstm8s_tim2$TI2_Config$983 ==.
      000A52                       3067 00103$:
                           000A52  3068 	Sstm8s_tim2$TI2_Config$984 ==.
                                   3069 ;	./STM8S_StdPeriph_Lib/Libraries/STM8S_StdPeriph_Driver/src/stm8s_tim2.c: 1244: TIM2->CCER1 |= TIM2_CCER1_CC2E;
      000A52 C6 53 0A         [ 1] 3070 	ld	a, 0x530a
      000A55 AA 10            [ 1] 3071 	or	a, #0x10
      000A57 C7 53 0A         [ 1] 3072 	ld	0x530a, a
                           000A5A  3073 	Sstm8s_tim2$TI2_Config$985 ==.
                                   3074 ;	./STM8S_StdPeriph_Lib/Libraries/STM8S_StdPeriph_Driver/src/stm8s_tim2.c: 1245: }
      000A5A 1E 03            [ 2] 3075 	ldw	x, (3, sp)
      000A5C 5B 06            [ 2] 3076 	addw	sp, #6
                           000A5E  3077 	Sstm8s_tim2$TI2_Config$986 ==.
      000A5E FC               [ 2] 3078 	jp	(x)
                           000A5F  3079 	Sstm8s_tim2$TI2_Config$987 ==.
                           000A5F  3080 	Sstm8s_tim2$TI3_Config$988 ==.
                                   3081 ;	./STM8S_StdPeriph_Lib/Libraries/STM8S_StdPeriph_Driver/src/stm8s_tim2.c: 1261: static void TI3_Config(uint8_t TIM2_ICPolarity, uint8_t TIM2_ICSelection,
                                   3082 ;	-----------------------------------------
                                   3083 ;	 function TI3_Config
                                   3084 ;	-----------------------------------------
      000A5F                       3085 _TI3_Config:
                           000A5F  3086 	Sstm8s_tim2$TI3_Config$989 ==.
      000A5F 89               [ 2] 3087 	pushw	x
                           000A60  3088 	Sstm8s_tim2$TI3_Config$990 ==.
      000A60 6B 02            [ 1] 3089 	ld	(0x02, sp), a
                           000A62  3090 	Sstm8s_tim2$TI3_Config$991 ==.
                                   3091 ;	./STM8S_StdPeriph_Lib/Libraries/STM8S_StdPeriph_Driver/src/stm8s_tim2.c: 1265: TIM2->CCER2 &=  (uint8_t)(~TIM2_CCER2_CC3E);
      000A62 72 11 53 0B      [ 1] 3092 	bres	0x530b, #0
                           000A66  3093 	Sstm8s_tim2$TI3_Config$992 ==.
                                   3094 ;	./STM8S_StdPeriph_Lib/Libraries/STM8S_StdPeriph_Driver/src/stm8s_tim2.c: 1268: TIM2->CCMR3 = (uint8_t)((uint8_t)(TIM2->CCMR3 & (uint8_t)(~( TIM2_CCMR_CCxS | TIM2_CCMR_ICxF))) 
      000A66 C6 53 09         [ 1] 3095 	ld	a, 0x5309
      000A69 A4 0C            [ 1] 3096 	and	a, #0x0c
      000A6B 6B 01            [ 1] 3097 	ld	(0x01, sp), a
                           000A6D  3098 	Sstm8s_tim2$TI3_Config$993 ==.
                                   3099 ;	./STM8S_StdPeriph_Lib/Libraries/STM8S_StdPeriph_Driver/src/stm8s_tim2.c: 1269: | (uint8_t)(( (TIM2_ICSelection)) | ((uint8_t)( TIM2_ICFilter << 4))));
      000A6D 7B 06            [ 1] 3100 	ld	a, (0x06, sp)
      000A6F 4E               [ 1] 3101 	swap	a
      000A70 A4 F0            [ 1] 3102 	and	a, #0xf0
      000A72 1A 05            [ 1] 3103 	or	a, (0x05, sp)
      000A74 1A 01            [ 1] 3104 	or	a, (0x01, sp)
      000A76 C7 53 09         [ 1] 3105 	ld	0x5309, a
                           000A79  3106 	Sstm8s_tim2$TI3_Config$994 ==.
                                   3107 ;	./STM8S_StdPeriph_Lib/Libraries/STM8S_StdPeriph_Driver/src/stm8s_tim2.c: 1265: TIM2->CCER2 &=  (uint8_t)(~TIM2_CCER2_CC3E);
      000A79 C6 53 0B         [ 1] 3108 	ld	a, 0x530b
                           000A7C  3109 	Sstm8s_tim2$TI3_Config$995 ==.
                                   3110 ;	./STM8S_StdPeriph_Lib/Libraries/STM8S_StdPeriph_Driver/src/stm8s_tim2.c: 1273: if (TIM2_ICPolarity != TIM2_ICPOLARITY_RISING)
      000A7C 0D 02            [ 1] 3111 	tnz	(0x02, sp)
      000A7E 27 07            [ 1] 3112 	jreq	00102$
                           000A80  3113 	Sstm8s_tim2$TI3_Config$996 ==.
                           000A80  3114 	Sstm8s_tim2$TI3_Config$997 ==.
                                   3115 ;	./STM8S_StdPeriph_Lib/Libraries/STM8S_StdPeriph_Driver/src/stm8s_tim2.c: 1275: TIM2->CCER2 |= TIM2_CCER2_CC3P;
      000A80 AA 02            [ 1] 3116 	or	a, #0x02
      000A82 C7 53 0B         [ 1] 3117 	ld	0x530b, a
                           000A85  3118 	Sstm8s_tim2$TI3_Config$998 ==.
      000A85 20 05            [ 2] 3119 	jra	00103$
      000A87                       3120 00102$:
                           000A87  3121 	Sstm8s_tim2$TI3_Config$999 ==.
                           000A87  3122 	Sstm8s_tim2$TI3_Config$1000 ==.
                                   3123 ;	./STM8S_StdPeriph_Lib/Libraries/STM8S_StdPeriph_Driver/src/stm8s_tim2.c: 1279: TIM2->CCER2 &= (uint8_t)(~TIM2_CCER2_CC3P);
      000A87 A4 FD            [ 1] 3124 	and	a, #0xfd
      000A89 C7 53 0B         [ 1] 3125 	ld	0x530b, a
                           000A8C  3126 	Sstm8s_tim2$TI3_Config$1001 ==.
      000A8C                       3127 00103$:
                           000A8C  3128 	Sstm8s_tim2$TI3_Config$1002 ==.
                                   3129 ;	./STM8S_StdPeriph_Lib/Libraries/STM8S_StdPeriph_Driver/src/stm8s_tim2.c: 1282: TIM2->CCER2 |= TIM2_CCER2_CC3E;
      000A8C C6 53 0B         [ 1] 3130 	ld	a, 0x530b
      000A8F AA 01            [ 1] 3131 	or	a, #0x01
      000A91 C7 53 0B         [ 1] 3132 	ld	0x530b, a
                           000A94  3133 	Sstm8s_tim2$TI3_Config$1003 ==.
                                   3134 ;	./STM8S_StdPeriph_Lib/Libraries/STM8S_StdPeriph_Driver/src/stm8s_tim2.c: 1283: }
      000A94 1E 03            [ 2] 3135 	ldw	x, (3, sp)
      000A96 5B 06            [ 2] 3136 	addw	sp, #6
                           000A98  3137 	Sstm8s_tim2$TI3_Config$1004 ==.
      000A98 FC               [ 2] 3138 	jp	(x)
                           000A99  3139 	Sstm8s_tim2$TI3_Config$1005 ==.
                                   3140 	.area CODE
                                   3141 	.area CONST
                           000000  3142 Fstm8s_tim2$__str_0$0_0$0 == .
                                   3143 	.area CONST
      000000                       3144 ___str_0:
      000000 2E 2F 53 54 4D 38 53  3145 	.ascii "./STM8S_StdPeriph_Lib/Libraries/STM8S_StdPeriph_Driver/src/s"
             5F 53 74 64 50 65 72
             69 70 68 5F 4C 69 62
             2F 4C 69 62 72 61 72
             69 65 73 2F 53 54 4D
             38 53 5F 53 74 64 50
             65 72 69 70 68 5F 44
             72 69 76 65 72 2F 73
             72 63 2F 73
      00003C 74 6D 38 73 5F 74 69  3146 	.ascii "tm8s_tim2.c"
             6D 32 2E 63
      000047 00                    3147 	.db 0x00
                                   3148 	.area CODE
                                   3149 	.area INITIALIZER
                                   3150 	.area CABS (ABS)
                                   3151 
                                   3152 	.area .debug_line (NOLOAD)
      000000 00 00 0F D5           3153 	.dw	0,Ldebug_line_end-Ldebug_line_start
      000004                       3154 Ldebug_line_start:
      000004 00 02                 3155 	.dw	2
      000006 00 00 00 A9           3156 	.dw	0,Ldebug_line_stmt-6-Ldebug_line_start
      00000A 01                    3157 	.db	1
      00000B 01                    3158 	.db	1
      00000C FB                    3159 	.db	-5
      00000D 0F                    3160 	.db	15
      00000E 0A                    3161 	.db	10
      00000F 00                    3162 	.db	0
      000010 01                    3163 	.db	1
      000011 01                    3164 	.db	1
      000012 01                    3165 	.db	1
      000013 01                    3166 	.db	1
      000014 00                    3167 	.db	0
      000015 00                    3168 	.db	0
      000016 00                    3169 	.db	0
      000017 01                    3170 	.db	1
      000018 44 3A 5C 5C 53 6F 66  3171 	.ascii "D:\\Software\\SDCC\\bin\\..\\include\\stm8"
             74 77 61 72 65 5C 5C
             53 44 43 43 5C 08 69
             6E 5C 5C 2E 2E 5C 5C
             69 6E 63 6C 75 64 65
             5C 5C 73 74 6D 38
      000041 00                    3172 	.db	0
      000042 44 3A 5C 5C 53 6F 66  3173 	.ascii "D:\\Software\\SDCC\\bin\\..\\include"
             74 77 61 72 65 5C 5C
             53 44 43 43 5C 08 69
             6E 5C 5C 2E 2E 5C 5C
             69 6E 63 6C 75 64 65
      000065 00                    3174 	.db	0
      000066 00                    3175 	.db	0
      000067 2E 2F 53 54 4D 38 53  3176 	.ascii "./STM8S_StdPeriph_Lib/Libraries/STM8S_StdPeriph_Driver/src/stm8s_tim2.c"
             5F 53 74 64 50 65 72
             69 70 68 5F 4C 69 62
             2F 4C 69 62 72 61 72
             69 65 73 2F 53 54 4D
             38 53 5F 53 74 64 50
             65 72 69 70 68 5F 44
             72 69 76 65 72 2F 73
             72 63 2F 73 74 6D 38
             73 5F 74 69 6D 32 2E
             63
      0000AE 00                    3177 	.db	0
      0000AF 00                    3178 	.uleb128	0
      0000B0 00                    3179 	.uleb128	0
      0000B1 00                    3180 	.uleb128	0
      0000B2 00                    3181 	.db	0
      0000B3                       3182 Ldebug_line_stmt:
      0000B3 00                    3183 	.db	0
      0000B4 05                    3184 	.uleb128	5
      0000B5 02                    3185 	.db	2
      0000B6 00 00r00r00           3186 	.dw	0,(Sstm8s_tim2$TIM2_DeInit$0)
      0000BA 03                    3187 	.db	3
      0000BB 33                    3188 	.sleb128	51
      0000BC 01                    3189 	.db	1
      0000BD 00                    3190 	.db	0
      0000BE 05                    3191 	.uleb128	5
      0000BF 02                    3192 	.db	2
      0000C0 00 00r00r00           3193 	.dw	0,(Sstm8s_tim2$TIM2_DeInit$2)
      0000C4 03                    3194 	.db	3
      0000C5 02                    3195 	.sleb128	2
      0000C6 01                    3196 	.db	1
      0000C7 00                    3197 	.db	0
      0000C8 05                    3198 	.uleb128	5
      0000C9 02                    3199 	.db	2
      0000CA 00 00r00r04           3200 	.dw	0,(Sstm8s_tim2$TIM2_DeInit$3)
      0000CE 03                    3201 	.db	3
      0000CF 01                    3202 	.sleb128	1
      0000D0 01                    3203 	.db	1
      0000D1 00                    3204 	.db	0
      0000D2 05                    3205 	.uleb128	5
      0000D3 02                    3206 	.db	2
      0000D4 00 00r00r08           3207 	.dw	0,(Sstm8s_tim2$TIM2_DeInit$4)
      0000D8 03                    3208 	.db	3
      0000D9 01                    3209 	.sleb128	1
      0000DA 01                    3210 	.db	1
      0000DB 00                    3211 	.db	0
      0000DC 05                    3212 	.uleb128	5
      0000DD 02                    3213 	.db	2
      0000DE 00 00r00r0C           3214 	.dw	0,(Sstm8s_tim2$TIM2_DeInit$5)
      0000E2 03                    3215 	.db	3
      0000E3 03                    3216 	.sleb128	3
      0000E4 01                    3217 	.db	1
      0000E5 00                    3218 	.db	0
      0000E6 05                    3219 	.uleb128	5
      0000E7 02                    3220 	.db	2
      0000E8 00 00r00r10           3221 	.dw	0,(Sstm8s_tim2$TIM2_DeInit$6)
      0000EC 03                    3222 	.db	3
      0000ED 01                    3223 	.sleb128	1
      0000EE 01                    3224 	.db	1
      0000EF 00                    3225 	.db	0
      0000F0 05                    3226 	.uleb128	5
      0000F1 02                    3227 	.db	2
      0000F2 00 00r00r14           3228 	.dw	0,(Sstm8s_tim2$TIM2_DeInit$7)
      0000F6 03                    3229 	.db	3
      0000F7 04                    3230 	.sleb128	4
      0000F8 01                    3231 	.db	1
      0000F9 00                    3232 	.db	0
      0000FA 05                    3233 	.uleb128	5
      0000FB 02                    3234 	.db	2
      0000FC 00 00r00r18           3235 	.dw	0,(Sstm8s_tim2$TIM2_DeInit$8)
      000100 03                    3236 	.db	3
      000101 01                    3237 	.sleb128	1
      000102 01                    3238 	.db	1
      000103 00                    3239 	.db	0
      000104 05                    3240 	.uleb128	5
      000105 02                    3241 	.db	2
      000106 00 00r00r1C           3242 	.dw	0,(Sstm8s_tim2$TIM2_DeInit$9)
      00010A 03                    3243 	.db	3
      00010B 01                    3244 	.sleb128	1
      00010C 01                    3245 	.db	1
      00010D 00                    3246 	.db	0
      00010E 05                    3247 	.uleb128	5
      00010F 02                    3248 	.db	2
      000110 00 00r00r20           3249 	.dw	0,(Sstm8s_tim2$TIM2_DeInit$10)
      000114 03                    3250 	.db	3
      000115 01                    3251 	.sleb128	1
      000116 01                    3252 	.db	1
      000117 00                    3253 	.db	0
      000118 05                    3254 	.uleb128	5
      000119 02                    3255 	.db	2
      00011A 00 00r00r24           3256 	.dw	0,(Sstm8s_tim2$TIM2_DeInit$11)
      00011E 03                    3257 	.db	3
      00011F 01                    3258 	.sleb128	1
      000120 01                    3259 	.db	1
      000121 00                    3260 	.db	0
      000122 05                    3261 	.uleb128	5
      000123 02                    3262 	.db	2
      000124 00 00r00r28           3263 	.dw	0,(Sstm8s_tim2$TIM2_DeInit$12)
      000128 03                    3264 	.db	3
      000129 01                    3265 	.sleb128	1
      00012A 01                    3266 	.db	1
      00012B 00                    3267 	.db	0
      00012C 05                    3268 	.uleb128	5
      00012D 02                    3269 	.db	2
      00012E 00 00r00r2C           3270 	.dw	0,(Sstm8s_tim2$TIM2_DeInit$13)
      000132 03                    3271 	.db	3
      000133 01                    3272 	.sleb128	1
      000134 01                    3273 	.db	1
      000135 00                    3274 	.db	0
      000136 05                    3275 	.uleb128	5
      000137 02                    3276 	.db	2
      000138 00 00r00r30           3277 	.dw	0,(Sstm8s_tim2$TIM2_DeInit$14)
      00013C 03                    3278 	.db	3
      00013D 01                    3279 	.sleb128	1
      00013E 01                    3280 	.db	1
      00013F 00                    3281 	.db	0
      000140 05                    3282 	.uleb128	5
      000141 02                    3283 	.db	2
      000142 00 00r00r34           3284 	.dw	0,(Sstm8s_tim2$TIM2_DeInit$15)
      000146 03                    3285 	.db	3
      000147 01                    3286 	.sleb128	1
      000148 01                    3287 	.db	1
      000149 00                    3288 	.db	0
      00014A 05                    3289 	.uleb128	5
      00014B 02                    3290 	.db	2
      00014C 00 00r00r38           3291 	.dw	0,(Sstm8s_tim2$TIM2_DeInit$16)
      000150 03                    3292 	.db	3
      000151 01                    3293 	.sleb128	1
      000152 01                    3294 	.db	1
      000153 00                    3295 	.db	0
      000154 05                    3296 	.uleb128	5
      000155 02                    3297 	.db	2
      000156 00 00r00r3C           3298 	.dw	0,(Sstm8s_tim2$TIM2_DeInit$17)
      00015A 03                    3299 	.db	3
      00015B 01                    3300 	.sleb128	1
      00015C 01                    3301 	.db	1
      00015D 00                    3302 	.db	0
      00015E 05                    3303 	.uleb128	5
      00015F 02                    3304 	.db	2
      000160 00 00r00r40           3305 	.dw	0,(Sstm8s_tim2$TIM2_DeInit$18)
      000164 03                    3306 	.db	3
      000165 01                    3307 	.sleb128	1
      000166 01                    3308 	.db	1
      000167 00                    3309 	.db	0
      000168 05                    3310 	.uleb128	5
      000169 02                    3311 	.db	2
      00016A 00 00r00r44           3312 	.dw	0,(Sstm8s_tim2$TIM2_DeInit$19)
      00016E 03                    3313 	.db	3
      00016F 01                    3314 	.sleb128	1
      000170 01                    3315 	.db	1
      000171 00                    3316 	.db	0
      000172 05                    3317 	.uleb128	5
      000173 02                    3318 	.db	2
      000174 00 00r00r48           3319 	.dw	0,(Sstm8s_tim2$TIM2_DeInit$20)
      000178 03                    3320 	.db	3
      000179 01                    3321 	.sleb128	1
      00017A 01                    3322 	.db	1
      00017B 00                    3323 	.db	0
      00017C 05                    3324 	.uleb128	5
      00017D 02                    3325 	.db	2
      00017E 00 00r00r4C           3326 	.dw	0,(Sstm8s_tim2$TIM2_DeInit$21)
      000182 03                    3327 	.db	3
      000183 01                    3328 	.sleb128	1
      000184 01                    3329 	.db	1
      000185 00                    3330 	.db	0
      000186 05                    3331 	.uleb128	5
      000187 02                    3332 	.db	2
      000188 00 00r00r50           3333 	.dw	0,(Sstm8s_tim2$TIM2_DeInit$22)
      00018C 03                    3334 	.db	3
      00018D 01                    3335 	.sleb128	1
      00018E 01                    3336 	.db	1
      00018F 00                    3337 	.db	0
      000190 05                    3338 	.uleb128	5
      000191 02                    3339 	.db	2
      000192 00 00r00r54           3340 	.dw	0,(Sstm8s_tim2$TIM2_DeInit$23)
      000196 03                    3341 	.db	3
      000197 01                    3342 	.sleb128	1
      000198 01                    3343 	.db	1
      000199 00                    3344 	.db	0
      00019A 05                    3345 	.uleb128	5
      00019B 02                    3346 	.db	2
      00019C 00 00r00r58           3347 	.dw	0,(Sstm8s_tim2$TIM2_DeInit$24)
      0001A0 03                    3348 	.db	3
      0001A1 01                    3349 	.sleb128	1
      0001A2 01                    3350 	.db	1
      0001A3 09                    3351 	.db	9
      0001A4 00 01                 3352 	.dw	1+Sstm8s_tim2$TIM2_DeInit$25-Sstm8s_tim2$TIM2_DeInit$24
      0001A6 00                    3353 	.db	0
      0001A7 01                    3354 	.uleb128	1
      0001A8 01                    3355 	.db	1
      0001A9 00                    3356 	.db	0
      0001AA 05                    3357 	.uleb128	5
      0001AB 02                    3358 	.db	2
      0001AC 00 00r00r59           3359 	.dw	0,(Sstm8s_tim2$TIM2_TimeBaseInit$27)
      0001B0 03                    3360 	.db	3
      0001B1 D8 00                 3361 	.sleb128	88
      0001B3 01                    3362 	.db	1
      0001B4 00                    3363 	.db	0
      0001B5 05                    3364 	.uleb128	5
      0001B6 02                    3365 	.db	2
      0001B7 00 00r00r59           3366 	.dw	0,(Sstm8s_tim2$TIM2_TimeBaseInit$29)
      0001BB 03                    3367 	.db	3
      0001BC 04                    3368 	.sleb128	4
      0001BD 01                    3369 	.db	1
      0001BE 00                    3370 	.db	0
      0001BF 05                    3371 	.uleb128	5
      0001C0 02                    3372 	.db	2
      0001C1 00 00r00r5C           3373 	.dw	0,(Sstm8s_tim2$TIM2_TimeBaseInit$30)
      0001C5 03                    3374 	.db	3
      0001C6 02                    3375 	.sleb128	2
      0001C7 01                    3376 	.db	1
      0001C8 00                    3377 	.db	0
      0001C9 05                    3378 	.uleb128	5
      0001CA 02                    3379 	.db	2
      0001CB 00 00r00r60           3380 	.dw	0,(Sstm8s_tim2$TIM2_TimeBaseInit$31)
      0001CF 03                    3381 	.db	3
      0001D0 01                    3382 	.sleb128	1
      0001D1 01                    3383 	.db	1
      0001D2 00                    3384 	.db	0
      0001D3 05                    3385 	.uleb128	5
      0001D4 02                    3386 	.db	2
      0001D5 00 00r00r64           3387 	.dw	0,(Sstm8s_tim2$TIM2_TimeBaseInit$32)
      0001D9 03                    3388 	.db	3
      0001DA 01                    3389 	.sleb128	1
      0001DB 01                    3390 	.db	1
      0001DC 09                    3391 	.db	9
      0001DD 00 01                 3392 	.dw	1+Sstm8s_tim2$TIM2_TimeBaseInit$33-Sstm8s_tim2$TIM2_TimeBaseInit$32
      0001DF 00                    3393 	.db	0
      0001E0 01                    3394 	.uleb128	1
      0001E1 01                    3395 	.db	1
      0001E2 00                    3396 	.db	0
      0001E3 05                    3397 	.uleb128	5
      0001E4 02                    3398 	.db	2
      0001E5 00 00r00r65           3399 	.dw	0,(Sstm8s_tim2$TIM2_OC1Init$35)
      0001E9 03                    3400 	.db	3
      0001EA EB 00                 3401 	.sleb128	107
      0001EC 01                    3402 	.db	1
      0001ED 00                    3403 	.db	0
      0001EE 05                    3404 	.uleb128	5
      0001EF 02                    3405 	.db	2
      0001F0 00 00r00r67           3406 	.dw	0,(Sstm8s_tim2$TIM2_OC1Init$38)
      0001F4 03                    3407 	.db	3
      0001F5 06                    3408 	.sleb128	6
      0001F6 01                    3409 	.db	1
      0001F7 00                    3410 	.db	0
      0001F8 05                    3411 	.uleb128	5
      0001F9 02                    3412 	.db	2
      0001FA 00 00r00r95           3413 	.dw	0,(Sstm8s_tim2$TIM2_OC1Init$48)
      0001FE 03                    3414 	.db	3
      0001FF 01                    3415 	.sleb128	1
      000200 01                    3416 	.db	1
      000201 00                    3417 	.db	0
      000202 05                    3418 	.uleb128	5
      000203 02                    3419 	.db	2
      000204 00 00r00rAB           3420 	.dw	0,(Sstm8s_tim2$TIM2_OC1Init$54)
      000208 03                    3421 	.db	3
      000209 01                    3422 	.sleb128	1
      00020A 01                    3423 	.db	1
      00020B 00                    3424 	.db	0
      00020C 05                    3425 	.uleb128	5
      00020D 02                    3426 	.db	2
      00020E 00 00r00rC1           3427 	.dw	0,(Sstm8s_tim2$TIM2_OC1Init$60)
      000212 03                    3428 	.db	3
      000213 03                    3429 	.sleb128	3
      000214 01                    3430 	.db	1
      000215 00                    3431 	.db	0
      000216 05                    3432 	.uleb128	5
      000217 02                    3433 	.db	2
      000218 00 00r00rC9           3434 	.dw	0,(Sstm8s_tim2$TIM2_OC1Init$61)
      00021C 03                    3435 	.db	3
      00021D 02                    3436 	.sleb128	2
      00021E 01                    3437 	.db	1
      00021F 00                    3438 	.db	0
      000220 05                    3439 	.uleb128	5
      000221 02                    3440 	.db	2
      000222 00 00r00rD4           3441 	.dw	0,(Sstm8s_tim2$TIM2_OC1Init$62)
      000226 03                    3442 	.db	3
      000227 01                    3443 	.sleb128	1
      000228 01                    3444 	.db	1
      000229 00                    3445 	.db	0
      00022A 05                    3446 	.uleb128	5
      00022B 02                    3447 	.db	2
      00022C 00 00r00rDF           3448 	.dw	0,(Sstm8s_tim2$TIM2_OC1Init$63)
      000230 03                    3449 	.db	3
      000231 03                    3450 	.sleb128	3
      000232 01                    3451 	.db	1
      000233 00                    3452 	.db	0
      000234 05                    3453 	.uleb128	5
      000235 02                    3454 	.db	2
      000236 00 00r00rE4           3455 	.dw	0,(Sstm8s_tim2$TIM2_OC1Init$64)
      00023A 03                    3456 	.db	3
      00023B 01                    3457 	.sleb128	1
      00023C 01                    3458 	.db	1
      00023D 00                    3459 	.db	0
      00023E 05                    3460 	.uleb128	5
      00023F 02                    3461 	.db	2
      000240 00 00r00rE9           3462 	.dw	0,(Sstm8s_tim2$TIM2_OC1Init$65)
      000244 03                    3463 	.db	3
      000245 03                    3464 	.sleb128	3
      000246 01                    3465 	.db	1
      000247 00                    3466 	.db	0
      000248 05                    3467 	.uleb128	5
      000249 02                    3468 	.db	2
      00024A 00 00r00rEE           3469 	.dw	0,(Sstm8s_tim2$TIM2_OC1Init$66)
      00024E 03                    3470 	.db	3
      00024F 01                    3471 	.sleb128	1
      000250 01                    3472 	.db	1
      000251 00                    3473 	.db	0
      000252 05                    3474 	.uleb128	5
      000253 02                    3475 	.db	2
      000254 00 00r00rF3           3476 	.dw	0,(Sstm8s_tim2$TIM2_OC1Init$67)
      000258 03                    3477 	.db	3
      000259 01                    3478 	.sleb128	1
      00025A 01                    3479 	.db	1
      00025B 00                    3480 	.db	0
      00025C 05                    3481 	.uleb128	5
      00025D 02                    3482 	.db	2
      00025E 00 00r00rF8           3483 	.dw	0,(Sstm8s_tim2$TIM2_OC2Init$70)
      000262 03                    3484 	.db	3
      000263 0B                    3485 	.sleb128	11
      000264 01                    3486 	.db	1
      000265 00                    3487 	.db	0
      000266 05                    3488 	.uleb128	5
      000267 02                    3489 	.db	2
      000268 00 00r00rFA           3490 	.dw	0,(Sstm8s_tim2$TIM2_OC2Init$73)
      00026C 03                    3491 	.db	3
      00026D 06                    3492 	.sleb128	6
      00026E 01                    3493 	.db	1
      00026F 00                    3494 	.db	0
      000270 05                    3495 	.uleb128	5
      000271 02                    3496 	.db	2
      000272 00 00r01r28           3497 	.dw	0,(Sstm8s_tim2$TIM2_OC2Init$83)
      000276 03                    3498 	.db	3
      000277 01                    3499 	.sleb128	1
      000278 01                    3500 	.db	1
      000279 00                    3501 	.db	0
      00027A 05                    3502 	.uleb128	5
      00027B 02                    3503 	.db	2
      00027C 00 00r01r3E           3504 	.dw	0,(Sstm8s_tim2$TIM2_OC2Init$89)
      000280 03                    3505 	.db	3
      000281 01                    3506 	.sleb128	1
      000282 01                    3507 	.db	1
      000283 00                    3508 	.db	0
      000284 05                    3509 	.uleb128	5
      000285 02                    3510 	.db	2
      000286 00 00r01r54           3511 	.dw	0,(Sstm8s_tim2$TIM2_OC2Init$95)
      00028A 03                    3512 	.db	3
      00028B 04                    3513 	.sleb128	4
      00028C 01                    3514 	.db	1
      00028D 00                    3515 	.db	0
      00028E 05                    3516 	.uleb128	5
      00028F 02                    3517 	.db	2
      000290 00 00r01r5C           3518 	.dw	0,(Sstm8s_tim2$TIM2_OC2Init$96)
      000294 03                    3519 	.db	3
      000295 02                    3520 	.sleb128	2
      000296 01                    3521 	.db	1
      000297 00                    3522 	.db	0
      000298 05                    3523 	.uleb128	5
      000299 02                    3524 	.db	2
      00029A 00 00r01r67           3525 	.dw	0,(Sstm8s_tim2$TIM2_OC2Init$97)
      00029E 03                    3526 	.db	3
      00029F 01                    3527 	.sleb128	1
      0002A0 01                    3528 	.db	1
      0002A1 00                    3529 	.db	0
      0002A2 05                    3530 	.uleb128	5
      0002A3 02                    3531 	.db	2
      0002A4 00 00r01r72           3532 	.dw	0,(Sstm8s_tim2$TIM2_OC2Init$98)
      0002A8 03                    3533 	.db	3
      0002A9 04                    3534 	.sleb128	4
      0002AA 01                    3535 	.db	1
      0002AB 00                    3536 	.db	0
      0002AC 05                    3537 	.uleb128	5
      0002AD 02                    3538 	.db	2
      0002AE 00 00r01r77           3539 	.dw	0,(Sstm8s_tim2$TIM2_OC2Init$99)
      0002B2 03                    3540 	.db	3
      0002B3 01                    3541 	.sleb128	1
      0002B4 01                    3542 	.db	1
      0002B5 00                    3543 	.db	0
      0002B6 05                    3544 	.uleb128	5
      0002B7 02                    3545 	.db	2
      0002B8 00 00r01r7C           3546 	.dw	0,(Sstm8s_tim2$TIM2_OC2Init$100)
      0002BC 03                    3547 	.db	3
      0002BD 04                    3548 	.sleb128	4
      0002BE 01                    3549 	.db	1
      0002BF 00                    3550 	.db	0
      0002C0 05                    3551 	.uleb128	5
      0002C1 02                    3552 	.db	2
      0002C2 00 00r01r81           3553 	.dw	0,(Sstm8s_tim2$TIM2_OC2Init$101)
      0002C6 03                    3554 	.db	3
      0002C7 01                    3555 	.sleb128	1
      0002C8 01                    3556 	.db	1
      0002C9 00                    3557 	.db	0
      0002CA 05                    3558 	.uleb128	5
      0002CB 02                    3559 	.db	2
      0002CC 00 00r01r86           3560 	.dw	0,(Sstm8s_tim2$TIM2_OC2Init$102)
      0002D0 03                    3561 	.db	3
      0002D1 01                    3562 	.sleb128	1
      0002D2 01                    3563 	.db	1
      0002D3 00                    3564 	.db	0
      0002D4 05                    3565 	.uleb128	5
      0002D5 02                    3566 	.db	2
      0002D6 00 00r01r8B           3567 	.dw	0,(Sstm8s_tim2$TIM2_OC3Init$105)
      0002DA 03                    3568 	.db	3
      0002DB 0B                    3569 	.sleb128	11
      0002DC 01                    3570 	.db	1
      0002DD 00                    3571 	.db	0
      0002DE 05                    3572 	.uleb128	5
      0002DF 02                    3573 	.db	2
      0002E0 00 00r01r8D           3574 	.dw	0,(Sstm8s_tim2$TIM2_OC3Init$108)
      0002E4 03                    3575 	.db	3
      0002E5 06                    3576 	.sleb128	6
      0002E6 01                    3577 	.db	1
      0002E7 00                    3578 	.db	0
      0002E8 05                    3579 	.uleb128	5
      0002E9 02                    3580 	.db	2
      0002EA 00 00r01rBB           3581 	.dw	0,(Sstm8s_tim2$TIM2_OC3Init$118)
      0002EE 03                    3582 	.db	3
      0002EF 01                    3583 	.sleb128	1
      0002F0 01                    3584 	.db	1
      0002F1 00                    3585 	.db	0
      0002F2 05                    3586 	.uleb128	5
      0002F3 02                    3587 	.db	2
      0002F4 00 00r01rD1           3588 	.dw	0,(Sstm8s_tim2$TIM2_OC3Init$124)
      0002F8 03                    3589 	.db	3
      0002F9 01                    3590 	.sleb128	1
      0002FA 01                    3591 	.db	1
      0002FB 00                    3592 	.db	0
      0002FC 05                    3593 	.uleb128	5
      0002FD 02                    3594 	.db	2
      0002FE 00 00r01rE7           3595 	.dw	0,(Sstm8s_tim2$TIM2_OC3Init$130)
      000302 03                    3596 	.db	3
      000303 02                    3597 	.sleb128	2
      000304 01                    3598 	.db	1
      000305 00                    3599 	.db	0
      000306 05                    3600 	.uleb128	5
      000307 02                    3601 	.db	2
      000308 00 00r01rEF           3602 	.dw	0,(Sstm8s_tim2$TIM2_OC3Init$131)
      00030C 03                    3603 	.db	3
      00030D 02                    3604 	.sleb128	2
      00030E 01                    3605 	.db	1
      00030F 00                    3606 	.db	0
      000310 05                    3607 	.uleb128	5
      000311 02                    3608 	.db	2
      000312 00 00r01rFA           3609 	.dw	0,(Sstm8s_tim2$TIM2_OC3Init$132)
      000316 03                    3610 	.db	3
      000317 01                    3611 	.sleb128	1
      000318 01                    3612 	.db	1
      000319 00                    3613 	.db	0
      00031A 05                    3614 	.uleb128	5
      00031B 02                    3615 	.db	2
      00031C 00 00r02r05           3616 	.dw	0,(Sstm8s_tim2$TIM2_OC3Init$133)
      000320 03                    3617 	.db	3
      000321 03                    3618 	.sleb128	3
      000322 01                    3619 	.db	1
      000323 00                    3620 	.db	0
      000324 05                    3621 	.uleb128	5
      000325 02                    3622 	.db	2
      000326 00 00r02r0A           3623 	.dw	0,(Sstm8s_tim2$TIM2_OC3Init$134)
      00032A 03                    3624 	.db	3
      00032B 01                    3625 	.sleb128	1
      00032C 01                    3626 	.db	1
      00032D 00                    3627 	.db	0
      00032E 05                    3628 	.uleb128	5
      00032F 02                    3629 	.db	2
      000330 00 00r02r0F           3630 	.dw	0,(Sstm8s_tim2$TIM2_OC3Init$135)
      000334 03                    3631 	.db	3
      000335 03                    3632 	.sleb128	3
      000336 01                    3633 	.db	1
      000337 00                    3634 	.db	0
      000338 05                    3635 	.uleb128	5
      000339 02                    3636 	.db	2
      00033A 00 00r02r14           3637 	.dw	0,(Sstm8s_tim2$TIM2_OC3Init$136)
      00033E 03                    3638 	.db	3
      00033F 01                    3639 	.sleb128	1
      000340 01                    3640 	.db	1
      000341 00                    3641 	.db	0
      000342 05                    3642 	.uleb128	5
      000343 02                    3643 	.db	2
      000344 00 00r02r19           3644 	.dw	0,(Sstm8s_tim2$TIM2_OC3Init$137)
      000348 03                    3645 	.db	3
      000349 01                    3646 	.sleb128	1
      00034A 01                    3647 	.db	1
      00034B 00                    3648 	.db	0
      00034C 05                    3649 	.uleb128	5
      00034D 02                    3650 	.db	2
      00034E 00 00r02r1E           3651 	.dw	0,(Sstm8s_tim2$TIM2_ICInit$140)
      000352 03                    3652 	.db	3
      000353 0B                    3653 	.sleb128	11
      000354 01                    3654 	.db	1
      000355 00                    3655 	.db	0
      000356 05                    3656 	.uleb128	5
      000357 02                    3657 	.db	2
      000358 00 00r02r1F           3658 	.dw	0,(Sstm8s_tim2$TIM2_ICInit$143)
      00035C 03                    3659 	.db	3
      00035D 07                    3660 	.sleb128	7
      00035E 01                    3661 	.db	1
      00035F 00                    3662 	.db	0
      000360 05                    3663 	.uleb128	5
      000361 02                    3664 	.db	2
      000362 00 00r02r45           3665 	.dw	0,(Sstm8s_tim2$TIM2_ICInit$150)
      000366 03                    3666 	.db	3
      000367 01                    3667 	.sleb128	1
      000368 01                    3668 	.db	1
      000369 00                    3669 	.db	0
      00036A 05                    3670 	.uleb128	5
      00036B 02                    3671 	.db	2
      00036C 00 00r02r5B           3672 	.dw	0,(Sstm8s_tim2$TIM2_ICInit$156)
      000370 03                    3673 	.db	3
      000371 01                    3674 	.sleb128	1
      000372 01                    3675 	.db	1
      000373 00                    3676 	.db	0
      000374 05                    3677 	.uleb128	5
      000375 02                    3678 	.db	2
      000376 00 00r02r78           3679 	.dw	0,(Sstm8s_tim2$TIM2_ICInit$164)
      00037A 03                    3680 	.db	3
      00037B 01                    3681 	.sleb128	1
      00037C 01                    3682 	.db	1
      00037D 00                    3683 	.db	0
      00037E 05                    3684 	.uleb128	5
      00037F 02                    3685 	.db	2
      000380 00 00r02r9A           3686 	.dw	0,(Sstm8s_tim2$TIM2_ICInit$172)
      000384 03                    3687 	.db	3
      000385 01                    3688 	.sleb128	1
      000386 01                    3689 	.db	1
      000387 00                    3690 	.db	0
      000388 05                    3691 	.uleb128	5
      000389 02                    3692 	.db	2
      00038A 00 00r02rAC           3693 	.dw	0,(Sstm8s_tim2$TIM2_ICInit$177)
      00038E 03                    3694 	.db	3
      00038F 02                    3695 	.sleb128	2
      000390 01                    3696 	.db	1
      000391 00                    3697 	.db	0
      000392 05                    3698 	.uleb128	5
      000393 02                    3699 	.db	2
      000394 00 00r02rB0           3700 	.dw	0,(Sstm8s_tim2$TIM2_ICInit$179)
      000398 03                    3701 	.db	3
      000399 03                    3702 	.sleb128	3
      00039A 01                    3703 	.db	1
      00039B 00                    3704 	.db	0
      00039C 05                    3705 	.uleb128	5
      00039D 02                    3706 	.db	2
      00039E 00 00r02rBB           3707 	.dw	0,(Sstm8s_tim2$TIM2_ICInit$183)
      0003A2 03                    3708 	.db	3
      0003A3 05                    3709 	.sleb128	5
      0003A4 01                    3710 	.db	1
      0003A5 00                    3711 	.db	0
      0003A6 05                    3712 	.uleb128	5
      0003A7 02                    3713 	.db	2
      0003A8 00 00r02rC2           3714 	.dw	0,(Sstm8s_tim2$TIM2_ICInit$185)
      0003AC 03                    3715 	.db	3
      0003AD 02                    3716 	.sleb128	2
      0003AE 01                    3717 	.db	1
      0003AF 00                    3718 	.db	0
      0003B0 05                    3719 	.uleb128	5
      0003B1 02                    3720 	.db	2
      0003B2 00 00r02rC6           3721 	.dw	0,(Sstm8s_tim2$TIM2_ICInit$187)
      0003B6 03                    3722 	.db	3
      0003B7 03                    3723 	.sleb128	3
      0003B8 01                    3724 	.db	1
      0003B9 00                    3725 	.db	0
      0003BA 05                    3726 	.uleb128	5
      0003BB 02                    3727 	.db	2
      0003BC 00 00r02rD1           3728 	.dw	0,(Sstm8s_tim2$TIM2_ICInit$191)
      0003C0 03                    3729 	.db	3
      0003C1 05                    3730 	.sleb128	5
      0003C2 01                    3731 	.db	1
      0003C3 00                    3732 	.db	0
      0003C4 05                    3733 	.uleb128	5
      0003C5 02                    3734 	.db	2
      0003C6 00 00r02rD8           3735 	.dw	0,(Sstm8s_tim2$TIM2_ICInit$194)
      0003CA 03                    3736 	.db	3
      0003CB 05                    3737 	.sleb128	5
      0003CC 01                    3738 	.db	1
      0003CD 00                    3739 	.db	0
      0003CE 05                    3740 	.uleb128	5
      0003CF 02                    3741 	.db	2
      0003D0 00 00r02rE3           3742 	.dw	0,(Sstm8s_tim2$TIM2_ICInit$198)
      0003D4 03                    3743 	.db	3
      0003D5 05                    3744 	.sleb128	5
      0003D6 01                    3745 	.db	1
      0003D7 00                    3746 	.db	0
      0003D8 05                    3747 	.uleb128	5
      0003D9 02                    3748 	.db	2
      0003DA 00 00r02rE8           3749 	.dw	0,(Sstm8s_tim2$TIM2_ICInit$200)
      0003DE 03                    3750 	.db	3
      0003DF 02                    3751 	.sleb128	2
      0003E0 01                    3752 	.db	1
      0003E1 00                    3753 	.db	0
      0003E2 05                    3754 	.uleb128	5
      0003E3 02                    3755 	.db	2
      0003E4 00 00r02rED           3756 	.dw	0,(Sstm8s_tim2$TIM2_PWMIConfig$203)
      0003E8 03                    3757 	.db	3
      0003E9 0B                    3758 	.sleb128	11
      0003EA 01                    3759 	.db	1
      0003EB 00                    3760 	.db	0
      0003EC 05                    3761 	.uleb128	5
      0003ED 02                    3762 	.db	2
      0003EE 00 00r02rEF           3763 	.dw	0,(Sstm8s_tim2$TIM2_PWMIConfig$206)
      0003F2 03                    3764 	.db	3
      0003F3 0A                    3765 	.sleb128	10
      0003F4 01                    3766 	.db	1
      0003F5 00                    3767 	.db	0
      0003F6 05                    3768 	.uleb128	5
      0003F7 02                    3769 	.db	2
      0003F8 00 00r03r04           3770 	.dw	0,(Sstm8s_tim2$TIM2_PWMIConfig$212)
      0003FC 03                    3771 	.db	3
      0003FD 01                    3772 	.sleb128	1
      0003FE 01                    3773 	.db	1
      0003FF 00                    3774 	.db	0
      000400 05                    3775 	.uleb128	5
      000401 02                    3776 	.db	2
      000402 00 00r03r24           3777 	.dw	0,(Sstm8s_tim2$TIM2_PWMIConfig$218)
      000406 03                    3778 	.db	3
      000407 01                    3779 	.sleb128	1
      000408 01                    3780 	.db	1
      000409 00                    3781 	.db	0
      00040A 05                    3782 	.uleb128	5
      00040B 02                    3783 	.db	2
      00040C 00 00r03r4C           3784 	.dw	0,(Sstm8s_tim2$TIM2_PWMIConfig$226)
      000410 03                    3785 	.db	3
      000411 01                    3786 	.sleb128	1
      000412 01                    3787 	.db	1
      000413 00                    3788 	.db	0
      000414 05                    3789 	.uleb128	5
      000415 02                    3790 	.db	2
      000416 00 00r03r6E           3791 	.dw	0,(Sstm8s_tim2$TIM2_PWMIConfig$234)
      00041A 03                    3792 	.db	3
      00041B 03                    3793 	.sleb128	3
      00041C 01                    3794 	.db	1
      00041D 00                    3795 	.db	0
      00041E 05                    3796 	.uleb128	5
      00041F 02                    3797 	.db	2
      000420 00 00r03r72           3798 	.dw	0,(Sstm8s_tim2$TIM2_PWMIConfig$236)
      000424 03                    3799 	.db	3
      000425 02                    3800 	.sleb128	2
      000426 01                    3801 	.db	1
      000427 00                    3802 	.db	0
      000428 05                    3803 	.uleb128	5
      000429 02                    3804 	.db	2
      00042A 00 00r03r76           3805 	.dw	0,(Sstm8s_tim2$TIM2_PWMIConfig$239)
      00042E 03                    3806 	.db	3
      00042F 04                    3807 	.sleb128	4
      000430 01                    3808 	.db	1
      000431 00                    3809 	.db	0
      000432 05                    3810 	.uleb128	5
      000433 02                    3811 	.db	2
      000434 00 00r03r79           3812 	.dw	0,(Sstm8s_tim2$TIM2_PWMIConfig$241)
      000438 03                    3813 	.db	3
      000439 04                    3814 	.sleb128	4
      00043A 01                    3815 	.db	1
      00043B 00                    3816 	.db	0
      00043C 05                    3817 	.uleb128	5
      00043D 02                    3818 	.db	2
      00043E 00 00r03r7D           3819 	.dw	0,(Sstm8s_tim2$TIM2_PWMIConfig$243)
      000442 03                    3820 	.db	3
      000443 02                    3821 	.sleb128	2
      000444 01                    3822 	.db	1
      000445 00                    3823 	.db	0
      000446 05                    3824 	.uleb128	5
      000447 02                    3825 	.db	2
      000448 00 00r03r83           3826 	.dw	0,(Sstm8s_tim2$TIM2_PWMIConfig$246)
      00044C 03                    3827 	.db	3
      00044D 04                    3828 	.sleb128	4
      00044E 01                    3829 	.db	1
      00044F 00                    3830 	.db	0
      000450 05                    3831 	.uleb128	5
      000451 02                    3832 	.db	2
      000452 00 00r03r87           3833 	.dw	0,(Sstm8s_tim2$TIM2_PWMIConfig$248)
      000456 03                    3834 	.db	3
      000457 03                    3835 	.sleb128	3
      000458 01                    3836 	.db	1
      000459 00                    3837 	.db	0
      00045A 05                    3838 	.uleb128	5
      00045B 02                    3839 	.db	2
      00045C 00 00r03r8B           3840 	.dw	0,(Sstm8s_tim2$TIM2_PWMIConfig$250)
      000460 03                    3841 	.db	3
      000461 03                    3842 	.sleb128	3
      000462 01                    3843 	.db	1
      000463 00                    3844 	.db	0
      000464 05                    3845 	.uleb128	5
      000465 02                    3846 	.db	2
      000466 00 00r03r96           3847 	.dw	0,(Sstm8s_tim2$TIM2_PWMIConfig$254)
      00046A 03                    3848 	.db	3
      00046B 04                    3849 	.sleb128	4
      00046C 01                    3850 	.db	1
      00046D 00                    3851 	.db	0
      00046E 05                    3852 	.uleb128	5
      00046F 02                    3853 	.db	2
      000470 00 00r03r9B           3854 	.dw	0,(Sstm8s_tim2$TIM2_PWMIConfig$255)
      000474 03                    3855 	.db	3
      000475 03                    3856 	.sleb128	3
      000476 01                    3857 	.db	1
      000477 00                    3858 	.db	0
      000478 05                    3859 	.uleb128	5
      000479 02                    3860 	.db	2
      00047A 00 00r03rA6           3861 	.dw	0,(Sstm8s_tim2$TIM2_PWMIConfig$259)
      00047E 03                    3862 	.db	3
      00047F 03                    3863 	.sleb128	3
      000480 01                    3864 	.db	1
      000481 00                    3865 	.db	0
      000482 05                    3866 	.uleb128	5
      000483 02                    3867 	.db	2
      000484 00 00r03rAD           3868 	.dw	0,(Sstm8s_tim2$TIM2_PWMIConfig$262)
      000488 03                    3869 	.db	3
      000489 05                    3870 	.sleb128	5
      00048A 01                    3871 	.db	1
      00048B 00                    3872 	.db	0
      00048C 05                    3873 	.uleb128	5
      00048D 02                    3874 	.db	2
      00048E 00 00r03rB8           3875 	.dw	0,(Sstm8s_tim2$TIM2_PWMIConfig$266)
      000492 03                    3876 	.db	3
      000493 04                    3877 	.sleb128	4
      000494 01                    3878 	.db	1
      000495 00                    3879 	.db	0
      000496 05                    3880 	.uleb128	5
      000497 02                    3881 	.db	2
      000498 00 00r03rBD           3882 	.dw	0,(Sstm8s_tim2$TIM2_PWMIConfig$267)
      00049C 03                    3883 	.db	3
      00049D 03                    3884 	.sleb128	3
      00049E 01                    3885 	.db	1
      00049F 00                    3886 	.db	0
      0004A0 05                    3887 	.uleb128	5
      0004A1 02                    3888 	.db	2
      0004A2 00 00r03rC8           3889 	.dw	0,(Sstm8s_tim2$TIM2_PWMIConfig$271)
      0004A6 03                    3890 	.db	3
      0004A7 03                    3891 	.sleb128	3
      0004A8 01                    3892 	.db	1
      0004A9 00                    3893 	.db	0
      0004AA 05                    3894 	.uleb128	5
      0004AB 02                    3895 	.db	2
      0004AC 00 00r03rCD           3896 	.dw	0,(Sstm8s_tim2$TIM2_PWMIConfig$273)
      0004B0 03                    3897 	.db	3
      0004B1 02                    3898 	.sleb128	2
      0004B2 01                    3899 	.db	1
      0004B3 00                    3900 	.db	0
      0004B4 05                    3901 	.uleb128	5
      0004B5 02                    3902 	.db	2
      0004B6 00 00r03rD2           3903 	.dw	0,(Sstm8s_tim2$TIM2_Cmd$276)
      0004BA 03                    3904 	.db	3
      0004BB 08                    3905 	.sleb128	8
      0004BC 01                    3906 	.db	1
      0004BD 00                    3907 	.db	0
      0004BE 05                    3908 	.uleb128	5
      0004BF 02                    3909 	.db	2
      0004C0 00 00r03rD3           3910 	.dw	0,(Sstm8s_tim2$TIM2_Cmd$279)
      0004C4 03                    3911 	.db	3
      0004C5 03                    3912 	.sleb128	3
      0004C6 01                    3913 	.db	1
      0004C7 00                    3914 	.db	0
      0004C8 05                    3915 	.uleb128	5
      0004C9 02                    3916 	.db	2
      0004CA 00 00r03rE7           3917 	.dw	0,(Sstm8s_tim2$TIM2_Cmd$284)
      0004CE 03                    3918 	.db	3
      0004CF 05                    3919 	.sleb128	5
      0004D0 01                    3920 	.db	1
      0004D1 00                    3921 	.db	0
      0004D2 05                    3922 	.uleb128	5
      0004D3 02                    3923 	.db	2
      0004D4 00 00r03rEA           3924 	.dw	0,(Sstm8s_tim2$TIM2_Cmd$285)
      0004D8 03                    3925 	.db	3
      0004D9 7E                    3926 	.sleb128	-2
      0004DA 01                    3927 	.db	1
      0004DB 00                    3928 	.db	0
      0004DC 05                    3929 	.uleb128	5
      0004DD 02                    3930 	.db	2
      0004DE 00 00r03rEE           3931 	.dw	0,(Sstm8s_tim2$TIM2_Cmd$287)
      0004E2 03                    3932 	.db	3
      0004E3 02                    3933 	.sleb128	2
      0004E4 01                    3934 	.db	1
      0004E5 00                    3935 	.db	0
      0004E6 05                    3936 	.uleb128	5
      0004E7 02                    3937 	.db	2
      0004E8 00 00r03rF5           3938 	.dw	0,(Sstm8s_tim2$TIM2_Cmd$290)
      0004EC 03                    3939 	.db	3
      0004ED 04                    3940 	.sleb128	4
      0004EE 01                    3941 	.db	1
      0004EF 00                    3942 	.db	0
      0004F0 05                    3943 	.uleb128	5
      0004F1 02                    3944 	.db	2
      0004F2 00 00r03rFA           3945 	.dw	0,(Sstm8s_tim2$TIM2_Cmd$292)
      0004F6 03                    3946 	.db	3
      0004F7 02                    3947 	.sleb128	2
      0004F8 01                    3948 	.db	1
      0004F9 09                    3949 	.db	9
      0004FA 00 02                 3950 	.dw	1+Sstm8s_tim2$TIM2_Cmd$294-Sstm8s_tim2$TIM2_Cmd$292
      0004FC 00                    3951 	.db	0
      0004FD 01                    3952 	.uleb128	1
      0004FE 01                    3953 	.db	1
      0004FF 00                    3954 	.db	0
      000500 05                    3955 	.uleb128	5
      000501 02                    3956 	.db	2
      000502 00 00r03rFC           3957 	.dw	0,(Sstm8s_tim2$TIM2_ITConfig$296)
      000506 03                    3958 	.db	3
      000507 EF 02                 3959 	.sleb128	367
      000509 01                    3960 	.db	1
      00050A 00                    3961 	.db	0
      00050B 05                    3962 	.uleb128	5
      00050C 02                    3963 	.db	2
      00050D 00 00r03rFD           3964 	.dw	0,(Sstm8s_tim2$TIM2_ITConfig$299)
      000511 03                    3965 	.db	3
      000512 03                    3966 	.sleb128	3
      000513 01                    3967 	.db	1
      000514 00                    3968 	.db	0
      000515 05                    3969 	.uleb128	5
      000516 02                    3970 	.db	2
      000517 00 00r04r12           3971 	.dw	0,(Sstm8s_tim2$TIM2_ITConfig$306)
      00051B 03                    3972 	.db	3
      00051C 01                    3973 	.sleb128	1
      00051D 01                    3974 	.db	1
      00051E 00                    3975 	.db	0
      00051F 05                    3976 	.uleb128	5
      000520 02                    3977 	.db	2
      000521 00 00r04r28           3978 	.dw	0,(Sstm8s_tim2$TIM2_ITConfig$313)
      000525 03                    3979 	.db	3
      000526 05                    3980 	.sleb128	5
      000527 01                    3981 	.db	1
      000528 00                    3982 	.db	0
      000529 05                    3983 	.uleb128	5
      00052A 02                    3984 	.db	2
      00052B 00 00r04r30           3985 	.dw	0,(Sstm8s_tim2$TIM2_ITConfig$316)
      00052F 03                    3986 	.db	3
      000530 7D                    3987 	.sleb128	-3
      000531 01                    3988 	.db	1
      000532 00                    3989 	.db	0
      000533 05                    3990 	.uleb128	5
      000534 02                    3991 	.db	2
      000535 00 00r04r34           3992 	.dw	0,(Sstm8s_tim2$TIM2_ITConfig$318)
      000539 03                    3993 	.db	3
      00053A 03                    3994 	.sleb128	3
      00053B 01                    3995 	.db	1
      00053C 00                    3996 	.db	0
      00053D 05                    3997 	.uleb128	5
      00053E 02                    3998 	.db	2
      00053F 00 00r04r3B           3999 	.dw	0,(Sstm8s_tim2$TIM2_ITConfig$321)
      000543 03                    4000 	.db	3
      000544 05                    4001 	.sleb128	5
      000545 01                    4002 	.db	1
      000546 00                    4003 	.db	0
      000547 05                    4004 	.uleb128	5
      000548 02                    4005 	.db	2
      000549 00 00r04r41           4006 	.dw	0,(Sstm8s_tim2$TIM2_ITConfig$323)
      00054D 03                    4007 	.db	3
      00054E 02                    4008 	.sleb128	2
      00054F 01                    4009 	.db	1
      000550 00                    4010 	.db	0
      000551 05                    4011 	.uleb128	5
      000552 02                    4012 	.db	2
      000553 00 00r04r45           4013 	.dw	0,(Sstm8s_tim2$TIM2_UpdateDisableConfig$328)
      000557 03                    4014 	.db	3
      000558 08                    4015 	.sleb128	8
      000559 01                    4016 	.db	1
      00055A 00                    4017 	.db	0
      00055B 05                    4018 	.uleb128	5
      00055C 02                    4019 	.db	2
      00055D 00 00r04r46           4020 	.dw	0,(Sstm8s_tim2$TIM2_UpdateDisableConfig$331)
      000561 03                    4021 	.db	3
      000562 03                    4022 	.sleb128	3
      000563 01                    4023 	.db	1
      000564 00                    4024 	.db	0
      000565 05                    4025 	.uleb128	5
      000566 02                    4026 	.db	2
      000567 00 00r04r5A           4027 	.dw	0,(Sstm8s_tim2$TIM2_UpdateDisableConfig$336)
      00056B 03                    4028 	.db	3
      00056C 05                    4029 	.sleb128	5
      00056D 01                    4030 	.db	1
      00056E 00                    4031 	.db	0
      00056F 05                    4032 	.uleb128	5
      000570 02                    4033 	.db	2
      000571 00 00r04r5D           4034 	.dw	0,(Sstm8s_tim2$TIM2_UpdateDisableConfig$337)
      000575 03                    4035 	.db	3
      000576 7E                    4036 	.sleb128	-2
      000577 01                    4037 	.db	1
      000578 00                    4038 	.db	0
      000579 05                    4039 	.uleb128	5
      00057A 02                    4040 	.db	2
      00057B 00 00r04r61           4041 	.dw	0,(Sstm8s_tim2$TIM2_UpdateDisableConfig$339)
      00057F 03                    4042 	.db	3
      000580 02                    4043 	.sleb128	2
      000581 01                    4044 	.db	1
      000582 00                    4045 	.db	0
      000583 05                    4046 	.uleb128	5
      000584 02                    4047 	.db	2
      000585 00 00r04r68           4048 	.dw	0,(Sstm8s_tim2$TIM2_UpdateDisableConfig$342)
      000589 03                    4049 	.db	3
      00058A 04                    4050 	.sleb128	4
      00058B 01                    4051 	.db	1
      00058C 00                    4052 	.db	0
      00058D 05                    4053 	.uleb128	5
      00058E 02                    4054 	.db	2
      00058F 00 00r04r6D           4055 	.dw	0,(Sstm8s_tim2$TIM2_UpdateDisableConfig$344)
      000593 03                    4056 	.db	3
      000594 02                    4057 	.sleb128	2
      000595 01                    4058 	.db	1
      000596 09                    4059 	.db	9
      000597 00 02                 4060 	.dw	1+Sstm8s_tim2$TIM2_UpdateDisableConfig$346-Sstm8s_tim2$TIM2_UpdateDisableConfig$344
      000599 00                    4061 	.db	0
      00059A 01                    4062 	.uleb128	1
      00059B 01                    4063 	.db	1
      00059C 00                    4064 	.db	0
      00059D 05                    4065 	.uleb128	5
      00059E 02                    4066 	.db	2
      00059F 00 00r04r6F           4067 	.dw	0,(Sstm8s_tim2$TIM2_UpdateRequestConfig$348)
      0005A3 03                    4068 	.db	3
      0005A4 9F 03                 4069 	.sleb128	415
      0005A6 01                    4070 	.db	1
      0005A7 00                    4071 	.db	0
      0005A8 05                    4072 	.uleb128	5
      0005A9 02                    4073 	.db	2
      0005AA 00 00r04r70           4074 	.dw	0,(Sstm8s_tim2$TIM2_UpdateRequestConfig$351)
      0005AE 03                    4075 	.db	3
      0005AF 03                    4076 	.sleb128	3
      0005B0 01                    4077 	.db	1
      0005B1 00                    4078 	.db	0
      0005B2 05                    4079 	.uleb128	5
      0005B3 02                    4080 	.db	2
      0005B4 00 00r04r84           4081 	.dw	0,(Sstm8s_tim2$TIM2_UpdateRequestConfig$356)
      0005B8 03                    4082 	.db	3
      0005B9 05                    4083 	.sleb128	5
      0005BA 01                    4084 	.db	1
      0005BB 00                    4085 	.db	0
      0005BC 05                    4086 	.uleb128	5
      0005BD 02                    4087 	.db	2
      0005BE 00 00r04r87           4088 	.dw	0,(Sstm8s_tim2$TIM2_UpdateRequestConfig$357)
      0005C2 03                    4089 	.db	3
      0005C3 7E                    4090 	.sleb128	-2
      0005C4 01                    4091 	.db	1
      0005C5 00                    4092 	.db	0
      0005C6 05                    4093 	.uleb128	5
      0005C7 02                    4094 	.db	2
      0005C8 00 00r04r8B           4095 	.dw	0,(Sstm8s_tim2$TIM2_UpdateRequestConfig$359)
      0005CC 03                    4096 	.db	3
      0005CD 02                    4097 	.sleb128	2
      0005CE 01                    4098 	.db	1
      0005CF 00                    4099 	.db	0
      0005D0 05                    4100 	.uleb128	5
      0005D1 02                    4101 	.db	2
      0005D2 00 00r04r92           4102 	.dw	0,(Sstm8s_tim2$TIM2_UpdateRequestConfig$362)
      0005D6 03                    4103 	.db	3
      0005D7 04                    4104 	.sleb128	4
      0005D8 01                    4105 	.db	1
      0005D9 00                    4106 	.db	0
      0005DA 05                    4107 	.uleb128	5
      0005DB 02                    4108 	.db	2
      0005DC 00 00r04r97           4109 	.dw	0,(Sstm8s_tim2$TIM2_UpdateRequestConfig$364)
      0005E0 03                    4110 	.db	3
      0005E1 02                    4111 	.sleb128	2
      0005E2 01                    4112 	.db	1
      0005E3 09                    4113 	.db	9
      0005E4 00 02                 4114 	.dw	1+Sstm8s_tim2$TIM2_UpdateRequestConfig$366-Sstm8s_tim2$TIM2_UpdateRequestConfig$364
      0005E6 00                    4115 	.db	0
      0005E7 01                    4116 	.uleb128	1
      0005E8 01                    4117 	.db	1
      0005E9 00                    4118 	.db	0
      0005EA 05                    4119 	.uleb128	5
      0005EB 02                    4120 	.db	2
      0005EC 00 00r04r99           4121 	.dw	0,(Sstm8s_tim2$TIM2_SelectOnePulseMode$368)
      0005F0 03                    4122 	.db	3
      0005F1 B7 03                 4123 	.sleb128	439
      0005F3 01                    4124 	.db	1
      0005F4 00                    4125 	.db	0
      0005F5 05                    4126 	.uleb128	5
      0005F6 02                    4127 	.db	2
      0005F7 00 00r04r9A           4128 	.dw	0,(Sstm8s_tim2$TIM2_SelectOnePulseMode$371)
      0005FB 03                    4129 	.db	3
      0005FC 03                    4130 	.sleb128	3
      0005FD 01                    4131 	.db	1
      0005FE 00                    4132 	.db	0
      0005FF 05                    4133 	.uleb128	5
      000600 02                    4134 	.db	2
      000601 00 00r04rAE           4135 	.dw	0,(Sstm8s_tim2$TIM2_SelectOnePulseMode$376)
      000605 03                    4136 	.db	3
      000606 05                    4137 	.sleb128	5
      000607 01                    4138 	.db	1
      000608 00                    4139 	.db	0
      000609 05                    4140 	.uleb128	5
      00060A 02                    4141 	.db	2
      00060B 00 00r04rB1           4142 	.dw	0,(Sstm8s_tim2$TIM2_SelectOnePulseMode$377)
      00060F 03                    4143 	.db	3
      000610 7E                    4144 	.sleb128	-2
      000611 01                    4145 	.db	1
      000612 00                    4146 	.db	0
      000613 05                    4147 	.uleb128	5
      000614 02                    4148 	.db	2
      000615 00 00r04rB5           4149 	.dw	0,(Sstm8s_tim2$TIM2_SelectOnePulseMode$379)
      000619 03                    4150 	.db	3
      00061A 02                    4151 	.sleb128	2
      00061B 01                    4152 	.db	1
      00061C 00                    4153 	.db	0
      00061D 05                    4154 	.uleb128	5
      00061E 02                    4155 	.db	2
      00061F 00 00r04rBC           4156 	.dw	0,(Sstm8s_tim2$TIM2_SelectOnePulseMode$382)
      000623 03                    4157 	.db	3
      000624 04                    4158 	.sleb128	4
      000625 01                    4159 	.db	1
      000626 00                    4160 	.db	0
      000627 05                    4161 	.uleb128	5
      000628 02                    4162 	.db	2
      000629 00 00r04rC1           4163 	.dw	0,(Sstm8s_tim2$TIM2_SelectOnePulseMode$384)
      00062D 03                    4164 	.db	3
      00062E 02                    4165 	.sleb128	2
      00062F 01                    4166 	.db	1
      000630 09                    4167 	.db	9
      000631 00 02                 4168 	.dw	1+Sstm8s_tim2$TIM2_SelectOnePulseMode$386-Sstm8s_tim2$TIM2_SelectOnePulseMode$384
      000633 00                    4169 	.db	0
      000634 01                    4170 	.uleb128	1
      000635 01                    4171 	.db	1
      000636 00                    4172 	.db	0
      000637 05                    4173 	.uleb128	5
      000638 02                    4174 	.db	2
      000639 00 00r04rC3           4175 	.dw	0,(Sstm8s_tim2$TIM2_PrescalerConfig$388)
      00063D 03                    4176 	.db	3
      00063E E3 03                 4177 	.sleb128	483
      000640 01                    4178 	.db	1
      000641 00                    4179 	.db	0
      000642 05                    4180 	.uleb128	5
      000643 02                    4181 	.db	2
      000644 00 00r04rC3           4182 	.dw	0,(Sstm8s_tim2$TIM2_PrescalerConfig$390)
      000648 03                    4183 	.db	3
      000649 04                    4184 	.sleb128	4
      00064A 01                    4185 	.db	1
      00064B 00                    4186 	.db	0
      00064C 05                    4187 	.uleb128	5
      00064D 02                    4188 	.db	2
      00064E 00 00r04rD9           4189 	.dw	0,(Sstm8s_tim2$TIM2_PrescalerConfig$397)
      000652 03                    4190 	.db	3
      000653 01                    4191 	.sleb128	1
      000654 01                    4192 	.db	1
      000655 00                    4193 	.db	0
      000656 05                    4194 	.uleb128	5
      000657 02                    4195 	.db	2
      000658 00 00r05r26           4196 	.dw	0,(Sstm8s_tim2$TIM2_PrescalerConfig$419)
      00065C 03                    4197 	.db	3
      00065D 03                    4198 	.sleb128	3
      00065E 01                    4199 	.db	1
      00065F 00                    4200 	.db	0
      000660 05                    4201 	.uleb128	5
      000661 02                    4202 	.db	2
      000662 00 00r05r29           4203 	.dw	0,(Sstm8s_tim2$TIM2_PrescalerConfig$420)
      000666 03                    4204 	.db	3
      000667 03                    4205 	.sleb128	3
      000668 01                    4206 	.db	1
      000669 00                    4207 	.db	0
      00066A 05                    4208 	.uleb128	5
      00066B 02                    4209 	.db	2
      00066C 00 00r05r2E           4210 	.dw	0,(Sstm8s_tim2$TIM2_PrescalerConfig$421)
      000670 03                    4211 	.db	3
      000671 01                    4212 	.sleb128	1
      000672 01                    4213 	.db	1
      000673 00                    4214 	.db	0
      000674 05                    4215 	.uleb128	5
      000675 02                    4216 	.db	2
      000676 00 00r05r31           4217 	.dw	0,(Sstm8s_tim2$TIM2_ForcedOC1Config$425)
      00067A 03                    4218 	.db	3
      00067B 0B                    4219 	.sleb128	11
      00067C 01                    4220 	.db	1
      00067D 00                    4221 	.db	0
      00067E 05                    4222 	.uleb128	5
      00067F 02                    4223 	.db	2
      000680 00 00r05r32           4224 	.dw	0,(Sstm8s_tim2$TIM2_ForcedOC1Config$428)
      000684 03                    4225 	.db	3
      000685 03                    4226 	.sleb128	3
      000686 01                    4227 	.db	1
      000687 00                    4228 	.db	0
      000688 05                    4229 	.uleb128	5
      000689 02                    4230 	.db	2
      00068A 00 00r05r4A           4231 	.dw	0,(Sstm8s_tim2$TIM2_ForcedOC1Config$435)
      00068E 03                    4232 	.db	3
      00068F 03                    4233 	.sleb128	3
      000690 01                    4234 	.db	1
      000691 00                    4235 	.db	0
      000692 05                    4236 	.uleb128	5
      000693 02                    4237 	.db	2
      000694 00 00r05r4F           4238 	.dw	0,(Sstm8s_tim2$TIM2_ForcedOC1Config$436)
      000698 03                    4239 	.db	3
      000699 01                    4240 	.sleb128	1
      00069A 01                    4241 	.db	1
      00069B 00                    4242 	.db	0
      00069C 05                    4243 	.uleb128	5
      00069D 02                    4244 	.db	2
      00069E 00 00r05r54           4245 	.dw	0,(Sstm8s_tim2$TIM2_ForcedOC1Config$437)
      0006A2 03                    4246 	.db	3
      0006A3 01                    4247 	.sleb128	1
      0006A4 01                    4248 	.db	1
      0006A5 09                    4249 	.db	9
      0006A6 00 02                 4250 	.dw	1+Sstm8s_tim2$TIM2_ForcedOC1Config$439-Sstm8s_tim2$TIM2_ForcedOC1Config$437
      0006A8 00                    4251 	.db	0
      0006A9 01                    4252 	.uleb128	1
      0006AA 01                    4253 	.db	1
      0006AB 00                    4254 	.db	0
      0006AC 05                    4255 	.uleb128	5
      0006AD 02                    4256 	.db	2
      0006AE 00 00r05r56           4257 	.dw	0,(Sstm8s_tim2$TIM2_ForcedOC2Config$441)
      0006B2 03                    4258 	.db	3
      0006B3 8D 04                 4259 	.sleb128	525
      0006B5 01                    4260 	.db	1
      0006B6 00                    4261 	.db	0
      0006B7 05                    4262 	.uleb128	5
      0006B8 02                    4263 	.db	2
      0006B9 00 00r05r57           4264 	.dw	0,(Sstm8s_tim2$TIM2_ForcedOC2Config$444)
      0006BD 03                    4265 	.db	3
      0006BE 03                    4266 	.sleb128	3
      0006BF 01                    4267 	.db	1
      0006C0 00                    4268 	.db	0
      0006C1 05                    4269 	.uleb128	5
      0006C2 02                    4270 	.db	2
      0006C3 00 00r05r6F           4271 	.dw	0,(Sstm8s_tim2$TIM2_ForcedOC2Config$451)
      0006C7 03                    4272 	.db	3
      0006C8 03                    4273 	.sleb128	3
      0006C9 01                    4274 	.db	1
      0006CA 00                    4275 	.db	0
      0006CB 05                    4276 	.uleb128	5
      0006CC 02                    4277 	.db	2
      0006CD 00 00r05r74           4278 	.dw	0,(Sstm8s_tim2$TIM2_ForcedOC2Config$452)
      0006D1 03                    4279 	.db	3
      0006D2 01                    4280 	.sleb128	1
      0006D3 01                    4281 	.db	1
      0006D4 00                    4282 	.db	0
      0006D5 05                    4283 	.uleb128	5
      0006D6 02                    4284 	.db	2
      0006D7 00 00r05r79           4285 	.dw	0,(Sstm8s_tim2$TIM2_ForcedOC2Config$453)
      0006DB 03                    4286 	.db	3
      0006DC 01                    4287 	.sleb128	1
      0006DD 01                    4288 	.db	1
      0006DE 09                    4289 	.db	9
      0006DF 00 02                 4290 	.dw	1+Sstm8s_tim2$TIM2_ForcedOC2Config$455-Sstm8s_tim2$TIM2_ForcedOC2Config$453
      0006E1 00                    4291 	.db	0
      0006E2 01                    4292 	.uleb128	1
      0006E3 01                    4293 	.db	1
      0006E4 00                    4294 	.db	0
      0006E5 05                    4295 	.uleb128	5
      0006E6 02                    4296 	.db	2
      0006E7 00 00r05r7B           4297 	.dw	0,(Sstm8s_tim2$TIM2_ForcedOC3Config$457)
      0006EB 03                    4298 	.db	3
      0006EC A0 04                 4299 	.sleb128	544
      0006EE 01                    4300 	.db	1
      0006EF 00                    4301 	.db	0
      0006F0 05                    4302 	.uleb128	5
      0006F1 02                    4303 	.db	2
      0006F2 00 00r05r7C           4304 	.dw	0,(Sstm8s_tim2$TIM2_ForcedOC3Config$460)
      0006F6 03                    4305 	.db	3
      0006F7 03                    4306 	.sleb128	3
      0006F8 01                    4307 	.db	1
      0006F9 00                    4308 	.db	0
      0006FA 05                    4309 	.uleb128	5
      0006FB 02                    4310 	.db	2
      0006FC 00 00r05r94           4311 	.dw	0,(Sstm8s_tim2$TIM2_ForcedOC3Config$467)
      000700 03                    4312 	.db	3
      000701 03                    4313 	.sleb128	3
      000702 01                    4314 	.db	1
      000703 00                    4315 	.db	0
      000704 05                    4316 	.uleb128	5
      000705 02                    4317 	.db	2
      000706 00 00r05r99           4318 	.dw	0,(Sstm8s_tim2$TIM2_ForcedOC3Config$468)
      00070A 03                    4319 	.db	3
      00070B 01                    4320 	.sleb128	1
      00070C 01                    4321 	.db	1
      00070D 00                    4322 	.db	0
      00070E 05                    4323 	.uleb128	5
      00070F 02                    4324 	.db	2
      000710 00 00r05r9E           4325 	.dw	0,(Sstm8s_tim2$TIM2_ForcedOC3Config$469)
      000714 03                    4326 	.db	3
      000715 01                    4327 	.sleb128	1
      000716 01                    4328 	.db	1
      000717 09                    4329 	.db	9
      000718 00 02                 4330 	.dw	1+Sstm8s_tim2$TIM2_ForcedOC3Config$471-Sstm8s_tim2$TIM2_ForcedOC3Config$469
      00071A 00                    4331 	.db	0
      00071B 01                    4332 	.uleb128	1
      00071C 01                    4333 	.db	1
      00071D 00                    4334 	.db	0
      00071E 05                    4335 	.uleb128	5
      00071F 02                    4336 	.db	2
      000720 00 00r05rA0           4337 	.dw	0,(Sstm8s_tim2$TIM2_ARRPreloadConfig$473)
      000724 03                    4338 	.db	3
      000725 B0 04                 4339 	.sleb128	560
      000727 01                    4340 	.db	1
      000728 00                    4341 	.db	0
      000729 05                    4342 	.uleb128	5
      00072A 02                    4343 	.db	2
      00072B 00 00r05rA1           4344 	.dw	0,(Sstm8s_tim2$TIM2_ARRPreloadConfig$476)
      00072F 03                    4345 	.db	3
      000730 03                    4346 	.sleb128	3
      000731 01                    4347 	.db	1
      000732 00                    4348 	.db	0
      000733 05                    4349 	.uleb128	5
      000734 02                    4350 	.db	2
      000735 00 00r05rB5           4351 	.dw	0,(Sstm8s_tim2$TIM2_ARRPreloadConfig$481)
      000739 03                    4352 	.db	3
      00073A 05                    4353 	.sleb128	5
      00073B 01                    4354 	.db	1
      00073C 00                    4355 	.db	0
      00073D 05                    4356 	.uleb128	5
      00073E 02                    4357 	.db	2
      00073F 00 00r05rB8           4358 	.dw	0,(Sstm8s_tim2$TIM2_ARRPreloadConfig$482)
      000743 03                    4359 	.db	3
      000744 7E                    4360 	.sleb128	-2
      000745 01                    4361 	.db	1
      000746 00                    4362 	.db	0
      000747 05                    4363 	.uleb128	5
      000748 02                    4364 	.db	2
      000749 00 00r05rBC           4365 	.dw	0,(Sstm8s_tim2$TIM2_ARRPreloadConfig$484)
      00074D 03                    4366 	.db	3
      00074E 02                    4367 	.sleb128	2
      00074F 01                    4368 	.db	1
      000750 00                    4369 	.db	0
      000751 05                    4370 	.uleb128	5
      000752 02                    4371 	.db	2
      000753 00 00r05rC3           4372 	.dw	0,(Sstm8s_tim2$TIM2_ARRPreloadConfig$487)
      000757 03                    4373 	.db	3
      000758 04                    4374 	.sleb128	4
      000759 01                    4375 	.db	1
      00075A 00                    4376 	.db	0
      00075B 05                    4377 	.uleb128	5
      00075C 02                    4378 	.db	2
      00075D 00 00r05rC8           4379 	.dw	0,(Sstm8s_tim2$TIM2_ARRPreloadConfig$489)
      000761 03                    4380 	.db	3
      000762 02                    4381 	.sleb128	2
      000763 01                    4382 	.db	1
      000764 09                    4383 	.db	9
      000765 00 02                 4384 	.dw	1+Sstm8s_tim2$TIM2_ARRPreloadConfig$491-Sstm8s_tim2$TIM2_ARRPreloadConfig$489
      000767 00                    4385 	.db	0
      000768 01                    4386 	.uleb128	1
      000769 01                    4387 	.db	1
      00076A 00                    4388 	.db	0
      00076B 05                    4389 	.uleb128	5
      00076C 02                    4390 	.db	2
      00076D 00 00r05rCA           4391 	.dw	0,(Sstm8s_tim2$TIM2_OC1PreloadConfig$493)
      000771 03                    4392 	.db	3
      000772 C6 04                 4393 	.sleb128	582
      000774 01                    4394 	.db	1
      000775 00                    4395 	.db	0
      000776 05                    4396 	.uleb128	5
      000777 02                    4397 	.db	2
      000778 00 00r05rCB           4398 	.dw	0,(Sstm8s_tim2$TIM2_OC1PreloadConfig$496)
      00077C 03                    4399 	.db	3
      00077D 03                    4400 	.sleb128	3
      00077E 01                    4401 	.db	1
      00077F 00                    4402 	.db	0
      000780 05                    4403 	.uleb128	5
      000781 02                    4404 	.db	2
      000782 00 00r05rDF           4405 	.dw	0,(Sstm8s_tim2$TIM2_OC1PreloadConfig$501)
      000786 03                    4406 	.db	3
      000787 05                    4407 	.sleb128	5
      000788 01                    4408 	.db	1
      000789 00                    4409 	.db	0
      00078A 05                    4410 	.uleb128	5
      00078B 02                    4411 	.db	2
      00078C 00 00r05rE2           4412 	.dw	0,(Sstm8s_tim2$TIM2_OC1PreloadConfig$502)
      000790 03                    4413 	.db	3
      000791 7E                    4414 	.sleb128	-2
      000792 01                    4415 	.db	1
      000793 00                    4416 	.db	0
      000794 05                    4417 	.uleb128	5
      000795 02                    4418 	.db	2
      000796 00 00r05rE6           4419 	.dw	0,(Sstm8s_tim2$TIM2_OC1PreloadConfig$504)
      00079A 03                    4420 	.db	3
      00079B 02                    4421 	.sleb128	2
      00079C 01                    4422 	.db	1
      00079D 00                    4423 	.db	0
      00079E 05                    4424 	.uleb128	5
      00079F 02                    4425 	.db	2
      0007A0 00 00r05rED           4426 	.dw	0,(Sstm8s_tim2$TIM2_OC1PreloadConfig$507)
      0007A4 03                    4427 	.db	3
      0007A5 04                    4428 	.sleb128	4
      0007A6 01                    4429 	.db	1
      0007A7 00                    4430 	.db	0
      0007A8 05                    4431 	.uleb128	5
      0007A9 02                    4432 	.db	2
      0007AA 00 00r05rF2           4433 	.dw	0,(Sstm8s_tim2$TIM2_OC1PreloadConfig$509)
      0007AE 03                    4434 	.db	3
      0007AF 02                    4435 	.sleb128	2
      0007B0 01                    4436 	.db	1
      0007B1 09                    4437 	.db	9
      0007B2 00 02                 4438 	.dw	1+Sstm8s_tim2$TIM2_OC1PreloadConfig$511-Sstm8s_tim2$TIM2_OC1PreloadConfig$509
      0007B4 00                    4439 	.db	0
      0007B5 01                    4440 	.uleb128	1
      0007B6 01                    4441 	.db	1
      0007B7 00                    4442 	.db	0
      0007B8 05                    4443 	.uleb128	5
      0007B9 02                    4444 	.db	2
      0007BA 00 00r05rF4           4445 	.dw	0,(Sstm8s_tim2$TIM2_OC2PreloadConfig$513)
      0007BE 03                    4446 	.db	3
      0007BF DC 04                 4447 	.sleb128	604
      0007C1 01                    4448 	.db	1
      0007C2 00                    4449 	.db	0
      0007C3 05                    4450 	.uleb128	5
      0007C4 02                    4451 	.db	2
      0007C5 00 00r05rF5           4452 	.dw	0,(Sstm8s_tim2$TIM2_OC2PreloadConfig$516)
      0007C9 03                    4453 	.db	3
      0007CA 03                    4454 	.sleb128	3
      0007CB 01                    4455 	.db	1
      0007CC 00                    4456 	.db	0
      0007CD 05                    4457 	.uleb128	5
      0007CE 02                    4458 	.db	2
      0007CF 00 00r06r09           4459 	.dw	0,(Sstm8s_tim2$TIM2_OC2PreloadConfig$521)
      0007D3 03                    4460 	.db	3
      0007D4 05                    4461 	.sleb128	5
      0007D5 01                    4462 	.db	1
      0007D6 00                    4463 	.db	0
      0007D7 05                    4464 	.uleb128	5
      0007D8 02                    4465 	.db	2
      0007D9 00 00r06r0C           4466 	.dw	0,(Sstm8s_tim2$TIM2_OC2PreloadConfig$522)
      0007DD 03                    4467 	.db	3
      0007DE 7E                    4468 	.sleb128	-2
      0007DF 01                    4469 	.db	1
      0007E0 00                    4470 	.db	0
      0007E1 05                    4471 	.uleb128	5
      0007E2 02                    4472 	.db	2
      0007E3 00 00r06r10           4473 	.dw	0,(Sstm8s_tim2$TIM2_OC2PreloadConfig$524)
      0007E7 03                    4474 	.db	3
      0007E8 02                    4475 	.sleb128	2
      0007E9 01                    4476 	.db	1
      0007EA 00                    4477 	.db	0
      0007EB 05                    4478 	.uleb128	5
      0007EC 02                    4479 	.db	2
      0007ED 00 00r06r17           4480 	.dw	0,(Sstm8s_tim2$TIM2_OC2PreloadConfig$527)
      0007F1 03                    4481 	.db	3
      0007F2 04                    4482 	.sleb128	4
      0007F3 01                    4483 	.db	1
      0007F4 00                    4484 	.db	0
      0007F5 05                    4485 	.uleb128	5
      0007F6 02                    4486 	.db	2
      0007F7 00 00r06r1C           4487 	.dw	0,(Sstm8s_tim2$TIM2_OC2PreloadConfig$529)
      0007FB 03                    4488 	.db	3
      0007FC 02                    4489 	.sleb128	2
      0007FD 01                    4490 	.db	1
      0007FE 09                    4491 	.db	9
      0007FF 00 02                 4492 	.dw	1+Sstm8s_tim2$TIM2_OC2PreloadConfig$531-Sstm8s_tim2$TIM2_OC2PreloadConfig$529
      000801 00                    4493 	.db	0
      000802 01                    4494 	.uleb128	1
      000803 01                    4495 	.db	1
      000804 00                    4496 	.db	0
      000805 05                    4497 	.uleb128	5
      000806 02                    4498 	.db	2
      000807 00 00r06r1E           4499 	.dw	0,(Sstm8s_tim2$TIM2_OC3PreloadConfig$533)
      00080B 03                    4500 	.db	3
      00080C F2 04                 4501 	.sleb128	626
      00080E 01                    4502 	.db	1
      00080F 00                    4503 	.db	0
      000810 05                    4504 	.uleb128	5
      000811 02                    4505 	.db	2
      000812 00 00r06r1F           4506 	.dw	0,(Sstm8s_tim2$TIM2_OC3PreloadConfig$536)
      000816 03                    4507 	.db	3
      000817 03                    4508 	.sleb128	3
      000818 01                    4509 	.db	1
      000819 00                    4510 	.db	0
      00081A 05                    4511 	.uleb128	5
      00081B 02                    4512 	.db	2
      00081C 00 00r06r33           4513 	.dw	0,(Sstm8s_tim2$TIM2_OC3PreloadConfig$541)
      000820 03                    4514 	.db	3
      000821 05                    4515 	.sleb128	5
      000822 01                    4516 	.db	1
      000823 00                    4517 	.db	0
      000824 05                    4518 	.uleb128	5
      000825 02                    4519 	.db	2
      000826 00 00r06r36           4520 	.dw	0,(Sstm8s_tim2$TIM2_OC3PreloadConfig$542)
      00082A 03                    4521 	.db	3
      00082B 7E                    4522 	.sleb128	-2
      00082C 01                    4523 	.db	1
      00082D 00                    4524 	.db	0
      00082E 05                    4525 	.uleb128	5
      00082F 02                    4526 	.db	2
      000830 00 00r06r3A           4527 	.dw	0,(Sstm8s_tim2$TIM2_OC3PreloadConfig$544)
      000834 03                    4528 	.db	3
      000835 02                    4529 	.sleb128	2
      000836 01                    4530 	.db	1
      000837 00                    4531 	.db	0
      000838 05                    4532 	.uleb128	5
      000839 02                    4533 	.db	2
      00083A 00 00r06r41           4534 	.dw	0,(Sstm8s_tim2$TIM2_OC3PreloadConfig$547)
      00083E 03                    4535 	.db	3
      00083F 04                    4536 	.sleb128	4
      000840 01                    4537 	.db	1
      000841 00                    4538 	.db	0
      000842 05                    4539 	.uleb128	5
      000843 02                    4540 	.db	2
      000844 00 00r06r46           4541 	.dw	0,(Sstm8s_tim2$TIM2_OC3PreloadConfig$549)
      000848 03                    4542 	.db	3
      000849 02                    4543 	.sleb128	2
      00084A 01                    4544 	.db	1
      00084B 09                    4545 	.db	9
      00084C 00 02                 4546 	.dw	1+Sstm8s_tim2$TIM2_OC3PreloadConfig$551-Sstm8s_tim2$TIM2_OC3PreloadConfig$549
      00084E 00                    4547 	.db	0
      00084F 01                    4548 	.uleb128	1
      000850 01                    4549 	.db	1
      000851 00                    4550 	.db	0
      000852 05                    4551 	.uleb128	5
      000853 02                    4552 	.db	2
      000854 00 00r06r48           4553 	.dw	0,(Sstm8s_tim2$TIM2_GenerateEvent$553)
      000858 03                    4554 	.db	3
      000859 8C 05                 4555 	.sleb128	652
      00085B 01                    4556 	.db	1
      00085C 00                    4557 	.db	0
      00085D 05                    4558 	.uleb128	5
      00085E 02                    4559 	.db	2
      00085F 00 00r06r48           4560 	.dw	0,(Sstm8s_tim2$TIM2_GenerateEvent$555)
      000863 03                    4561 	.db	3
      000864 03                    4562 	.sleb128	3
      000865 01                    4563 	.db	1
      000866 00                    4564 	.db	0
      000867 05                    4565 	.uleb128	5
      000868 02                    4566 	.db	2
      000869 00 00r06r59           4567 	.dw	0,(Sstm8s_tim2$TIM2_GenerateEvent$562)
      00086D 03                    4568 	.db	3
      00086E 03                    4569 	.sleb128	3
      00086F 01                    4570 	.db	1
      000870 00                    4571 	.db	0
      000871 05                    4572 	.uleb128	5
      000872 02                    4573 	.db	2
      000873 00 00r06r5C           4574 	.dw	0,(Sstm8s_tim2$TIM2_GenerateEvent$563)
      000877 03                    4575 	.db	3
      000878 01                    4576 	.sleb128	1
      000879 01                    4577 	.db	1
      00087A 09                    4578 	.db	9
      00087B 00 01                 4579 	.dw	1+Sstm8s_tim2$TIM2_GenerateEvent$564-Sstm8s_tim2$TIM2_GenerateEvent$563
      00087D 00                    4580 	.db	0
      00087E 01                    4581 	.uleb128	1
      00087F 01                    4582 	.db	1
      000880 00                    4583 	.db	0
      000881 05                    4584 	.uleb128	5
      000882 02                    4585 	.db	2
      000883 00 00r06r5D           4586 	.dw	0,(Sstm8s_tim2$TIM2_OC1PolarityConfig$566)
      000887 03                    4587 	.db	3
      000888 9D 05                 4588 	.sleb128	669
      00088A 01                    4589 	.db	1
      00088B 00                    4590 	.db	0
      00088C 05                    4591 	.uleb128	5
      00088D 02                    4592 	.db	2
      00088E 00 00r06r5E           4593 	.dw	0,(Sstm8s_tim2$TIM2_OC1PolarityConfig$569)
      000892 03                    4594 	.db	3
      000893 03                    4595 	.sleb128	3
      000894 01                    4596 	.db	1
      000895 00                    4597 	.db	0
      000896 05                    4598 	.uleb128	5
      000897 02                    4599 	.db	2
      000898 00 00r06r74           4600 	.dw	0,(Sstm8s_tim2$TIM2_OC1PolarityConfig$575)
      00089C 03                    4601 	.db	3
      00089D 05                    4602 	.sleb128	5
      00089E 01                    4603 	.db	1
      00089F 00                    4604 	.db	0
      0008A0 05                    4605 	.uleb128	5
      0008A1 02                    4606 	.db	2
      0008A2 00 00r06r77           4607 	.dw	0,(Sstm8s_tim2$TIM2_OC1PolarityConfig$576)
      0008A6 03                    4608 	.db	3
      0008A7 7E                    4609 	.sleb128	-2
      0008A8 01                    4610 	.db	1
      0008A9 00                    4611 	.db	0
      0008AA 05                    4612 	.uleb128	5
      0008AB 02                    4613 	.db	2
      0008AC 00 00r06r7B           4614 	.dw	0,(Sstm8s_tim2$TIM2_OC1PolarityConfig$578)
      0008B0 03                    4615 	.db	3
      0008B1 02                    4616 	.sleb128	2
      0008B2 01                    4617 	.db	1
      0008B3 00                    4618 	.db	0
      0008B4 05                    4619 	.uleb128	5
      0008B5 02                    4620 	.db	2
      0008B6 00 00r06r82           4621 	.dw	0,(Sstm8s_tim2$TIM2_OC1PolarityConfig$581)
      0008BA 03                    4622 	.db	3
      0008BB 04                    4623 	.sleb128	4
      0008BC 01                    4624 	.db	1
      0008BD 00                    4625 	.db	0
      0008BE 05                    4626 	.uleb128	5
      0008BF 02                    4627 	.db	2
      0008C0 00 00r06r87           4628 	.dw	0,(Sstm8s_tim2$TIM2_OC1PolarityConfig$583)
      0008C4 03                    4629 	.db	3
      0008C5 02                    4630 	.sleb128	2
      0008C6 01                    4631 	.db	1
      0008C7 09                    4632 	.db	9
      0008C8 00 02                 4633 	.dw	1+Sstm8s_tim2$TIM2_OC1PolarityConfig$585-Sstm8s_tim2$TIM2_OC1PolarityConfig$583
      0008CA 00                    4634 	.db	0
      0008CB 01                    4635 	.uleb128	1
      0008CC 01                    4636 	.db	1
      0008CD 00                    4637 	.db	0
      0008CE 05                    4638 	.uleb128	5
      0008CF 02                    4639 	.db	2
      0008D0 00 00r06r89           4640 	.dw	0,(Sstm8s_tim2$TIM2_OC2PolarityConfig$587)
      0008D4 03                    4641 	.db	3
      0008D5 B5 05                 4642 	.sleb128	693
      0008D7 01                    4643 	.db	1
      0008D8 00                    4644 	.db	0
      0008D9 05                    4645 	.uleb128	5
      0008DA 02                    4646 	.db	2
      0008DB 00 00r06r8A           4647 	.dw	0,(Sstm8s_tim2$TIM2_OC2PolarityConfig$590)
      0008DF 03                    4648 	.db	3
      0008E0 03                    4649 	.sleb128	3
      0008E1 01                    4650 	.db	1
      0008E2 00                    4651 	.db	0
      0008E3 05                    4652 	.uleb128	5
      0008E4 02                    4653 	.db	2
      0008E5 00 00r06rA0           4654 	.dw	0,(Sstm8s_tim2$TIM2_OC2PolarityConfig$596)
      0008E9 03                    4655 	.db	3
      0008EA 05                    4656 	.sleb128	5
      0008EB 01                    4657 	.db	1
      0008EC 00                    4658 	.db	0
      0008ED 05                    4659 	.uleb128	5
      0008EE 02                    4660 	.db	2
      0008EF 00 00r06rA3           4661 	.dw	0,(Sstm8s_tim2$TIM2_OC2PolarityConfig$597)
      0008F3 03                    4662 	.db	3
      0008F4 7E                    4663 	.sleb128	-2
      0008F5 01                    4664 	.db	1
      0008F6 00                    4665 	.db	0
      0008F7 05                    4666 	.uleb128	5
      0008F8 02                    4667 	.db	2
      0008F9 00 00r06rA7           4668 	.dw	0,(Sstm8s_tim2$TIM2_OC2PolarityConfig$599)
      0008FD 03                    4669 	.db	3
      0008FE 02                    4670 	.sleb128	2
      0008FF 01                    4671 	.db	1
      000900 00                    4672 	.db	0
      000901 05                    4673 	.uleb128	5
      000902 02                    4674 	.db	2
      000903 00 00r06rAE           4675 	.dw	0,(Sstm8s_tim2$TIM2_OC2PolarityConfig$602)
      000907 03                    4676 	.db	3
      000908 04                    4677 	.sleb128	4
      000909 01                    4678 	.db	1
      00090A 00                    4679 	.db	0
      00090B 05                    4680 	.uleb128	5
      00090C 02                    4681 	.db	2
      00090D 00 00r06rB3           4682 	.dw	0,(Sstm8s_tim2$TIM2_OC2PolarityConfig$604)
      000911 03                    4683 	.db	3
      000912 02                    4684 	.sleb128	2
      000913 01                    4685 	.db	1
      000914 09                    4686 	.db	9
      000915 00 02                 4687 	.dw	1+Sstm8s_tim2$TIM2_OC2PolarityConfig$606-Sstm8s_tim2$TIM2_OC2PolarityConfig$604
      000917 00                    4688 	.db	0
      000918 01                    4689 	.uleb128	1
      000919 01                    4690 	.db	1
      00091A 00                    4691 	.db	0
      00091B 05                    4692 	.uleb128	5
      00091C 02                    4693 	.db	2
      00091D 00 00r06rB5           4694 	.dw	0,(Sstm8s_tim2$TIM2_OC3PolarityConfig$608)
      000921 03                    4695 	.db	3
      000922 CD 05                 4696 	.sleb128	717
      000924 01                    4697 	.db	1
      000925 00                    4698 	.db	0
      000926 05                    4699 	.uleb128	5
      000927 02                    4700 	.db	2
      000928 00 00r06rB6           4701 	.dw	0,(Sstm8s_tim2$TIM2_OC3PolarityConfig$611)
      00092C 03                    4702 	.db	3
      00092D 03                    4703 	.sleb128	3
      00092E 01                    4704 	.db	1
      00092F 00                    4705 	.db	0
      000930 05                    4706 	.uleb128	5
      000931 02                    4707 	.db	2
      000932 00 00r06rCC           4708 	.dw	0,(Sstm8s_tim2$TIM2_OC3PolarityConfig$617)
      000936 03                    4709 	.db	3
      000937 05                    4710 	.sleb128	5
      000938 01                    4711 	.db	1
      000939 00                    4712 	.db	0
      00093A 05                    4713 	.uleb128	5
      00093B 02                    4714 	.db	2
      00093C 00 00r06rCF           4715 	.dw	0,(Sstm8s_tim2$TIM2_OC3PolarityConfig$618)
      000940 03                    4716 	.db	3
      000941 7E                    4717 	.sleb128	-2
      000942 01                    4718 	.db	1
      000943 00                    4719 	.db	0
      000944 05                    4720 	.uleb128	5
      000945 02                    4721 	.db	2
      000946 00 00r06rD3           4722 	.dw	0,(Sstm8s_tim2$TIM2_OC3PolarityConfig$620)
      00094A 03                    4723 	.db	3
      00094B 02                    4724 	.sleb128	2
      00094C 01                    4725 	.db	1
      00094D 00                    4726 	.db	0
      00094E 05                    4727 	.uleb128	5
      00094F 02                    4728 	.db	2
      000950 00 00r06rDA           4729 	.dw	0,(Sstm8s_tim2$TIM2_OC3PolarityConfig$623)
      000954 03                    4730 	.db	3
      000955 04                    4731 	.sleb128	4
      000956 01                    4732 	.db	1
      000957 00                    4733 	.db	0
      000958 05                    4734 	.uleb128	5
      000959 02                    4735 	.db	2
      00095A 00 00r06rDF           4736 	.dw	0,(Sstm8s_tim2$TIM2_OC3PolarityConfig$625)
      00095E 03                    4737 	.db	3
      00095F 02                    4738 	.sleb128	2
      000960 01                    4739 	.db	1
      000961 09                    4740 	.db	9
      000962 00 02                 4741 	.dw	1+Sstm8s_tim2$TIM2_OC3PolarityConfig$627-Sstm8s_tim2$TIM2_OC3PolarityConfig$625
      000964 00                    4742 	.db	0
      000965 01                    4743 	.uleb128	1
      000966 01                    4744 	.db	1
      000967 00                    4745 	.db	0
      000968 05                    4746 	.uleb128	5
      000969 02                    4747 	.db	2
      00096A 00 00r06rE1           4748 	.dw	0,(Sstm8s_tim2$TIM2_CCxCmd$629)
      00096E 03                    4749 	.db	3
      00096F E8 05                 4750 	.sleb128	744
      000971 01                    4751 	.db	1
      000972 00                    4752 	.db	0
      000973 05                    4753 	.uleb128	5
      000974 02                    4754 	.db	2
      000975 00 00r06rE2           4755 	.dw	0,(Sstm8s_tim2$TIM2_CCxCmd$632)
      000979 03                    4756 	.db	3
      00097A 03                    4757 	.sleb128	3
      00097B 01                    4758 	.db	1
      00097C 00                    4759 	.db	0
      00097D 05                    4760 	.uleb128	5
      00097E 02                    4761 	.db	2
      00097F 00 00r07r08           4762 	.dw	0,(Sstm8s_tim2$TIM2_CCxCmd$643)
      000983 03                    4763 	.db	3
      000984 01                    4764 	.sleb128	1
      000985 01                    4765 	.db	1
      000986 00                    4766 	.db	0
      000987 05                    4767 	.uleb128	5
      000988 02                    4768 	.db	2
      000989 00 00r07r1E           4769 	.dw	0,(Sstm8s_tim2$TIM2_CCxCmd$650)
      00098D 03                    4770 	.db	3
      00098E 02                    4771 	.sleb128	2
      00098F 01                    4772 	.db	1
      000990 00                    4773 	.db	0
      000991 05                    4774 	.uleb128	5
      000992 02                    4775 	.db	2
      000993 00 00r07r21           4776 	.dw	0,(Sstm8s_tim2$TIM2_CCxCmd$651)
      000997 03                    4777 	.db	3
      000998 05                    4778 	.sleb128	5
      000999 01                    4779 	.db	1
      00099A 00                    4780 	.db	0
      00099B 05                    4781 	.uleb128	5
      00099C 02                    4782 	.db	2
      00099D 00 00r07r24           4783 	.dw	0,(Sstm8s_tim2$TIM2_CCxCmd$653)
      0009A1 03                    4784 	.db	3
      0009A2 7E                    4785 	.sleb128	-2
      0009A3 01                    4786 	.db	1
      0009A4 00                    4787 	.db	0
      0009A5 05                    4788 	.uleb128	5
      0009A6 02                    4789 	.db	2
      0009A7 00 00r07r28           4790 	.dw	0,(Sstm8s_tim2$TIM2_CCxCmd$655)
      0009AB 03                    4791 	.db	3
      0009AC 02                    4792 	.sleb128	2
      0009AD 01                    4793 	.db	1
      0009AE 00                    4794 	.db	0
      0009AF 05                    4795 	.uleb128	5
      0009B0 02                    4796 	.db	2
      0009B1 00 00r07r2F           4797 	.dw	0,(Sstm8s_tim2$TIM2_CCxCmd$658)
      0009B5 03                    4798 	.db	3
      0009B6 04                    4799 	.sleb128	4
      0009B7 01                    4800 	.db	1
      0009B8 00                    4801 	.db	0
      0009B9 05                    4802 	.uleb128	5
      0009BA 02                    4803 	.db	2
      0009BB 00 00r07r36           4804 	.dw	0,(Sstm8s_tim2$TIM2_CCxCmd$660)
      0009BF 03                    4805 	.db	3
      0009C0 04                    4806 	.sleb128	4
      0009C1 01                    4807 	.db	1
      0009C2 00                    4808 	.db	0
      0009C3 05                    4809 	.uleb128	5
      0009C4 02                    4810 	.db	2
      0009C5 00 00r07r3A           4811 	.dw	0,(Sstm8s_tim2$TIM2_CCxCmd$661)
      0009C9 03                    4812 	.db	3
      0009CA 78                    4813 	.sleb128	-8
      0009CB 01                    4814 	.db	1
      0009CC 00                    4815 	.db	0
      0009CD 05                    4816 	.uleb128	5
      0009CE 02                    4817 	.db	2
      0009CF 00 00r07r3D           4818 	.dw	0,(Sstm8s_tim2$TIM2_CCxCmd$663)
      0009D3 03                    4819 	.db	3
      0009D4 0B                    4820 	.sleb128	11
      0009D5 01                    4821 	.db	1
      0009D6 00                    4822 	.db	0
      0009D7 05                    4823 	.uleb128	5
      0009D8 02                    4824 	.db	2
      0009D9 00 00r07r41           4825 	.dw	0,(Sstm8s_tim2$TIM2_CCxCmd$665)
      0009DD 03                    4826 	.db	3
      0009DE 02                    4827 	.sleb128	2
      0009DF 01                    4828 	.db	1
      0009E0 00                    4829 	.db	0
      0009E1 05                    4830 	.uleb128	5
      0009E2 02                    4831 	.db	2
      0009E3 00 00r07r48           4832 	.dw	0,(Sstm8s_tim2$TIM2_CCxCmd$668)
      0009E7 03                    4833 	.db	3
      0009E8 04                    4834 	.sleb128	4
      0009E9 01                    4835 	.db	1
      0009EA 00                    4836 	.db	0
      0009EB 05                    4837 	.uleb128	5
      0009EC 02                    4838 	.db	2
      0009ED 00 00r07r4F           4839 	.dw	0,(Sstm8s_tim2$TIM2_CCxCmd$670)
      0009F1 03                    4840 	.db	3
      0009F2 08                    4841 	.sleb128	8
      0009F3 01                    4842 	.db	1
      0009F4 00                    4843 	.db	0
      0009F5 05                    4844 	.uleb128	5
      0009F6 02                    4845 	.db	2
      0009F7 00 00r07r52           4846 	.dw	0,(Sstm8s_tim2$TIM2_CCxCmd$672)
      0009FB 03                    4847 	.db	3
      0009FC 7E                    4848 	.sleb128	-2
      0009FD 01                    4849 	.db	1
      0009FE 00                    4850 	.db	0
      0009FF 05                    4851 	.uleb128	5
      000A00 02                    4852 	.db	2
      000A01 00 00r07r56           4853 	.dw	0,(Sstm8s_tim2$TIM2_CCxCmd$674)
      000A05 03                    4854 	.db	3
      000A06 02                    4855 	.sleb128	2
      000A07 01                    4856 	.db	1
      000A08 00                    4857 	.db	0
      000A09 05                    4858 	.uleb128	5
      000A0A 02                    4859 	.db	2
      000A0B 00 00r07r5D           4860 	.dw	0,(Sstm8s_tim2$TIM2_CCxCmd$677)
      000A0F 03                    4861 	.db	3
      000A10 04                    4862 	.sleb128	4
      000A11 01                    4863 	.db	1
      000A12 00                    4864 	.db	0
      000A13 05                    4865 	.uleb128	5
      000A14 02                    4866 	.db	2
      000A15 00 00r07r62           4867 	.dw	0,(Sstm8s_tim2$TIM2_CCxCmd$679)
      000A19 03                    4868 	.db	3
      000A1A 03                    4869 	.sleb128	3
      000A1B 01                    4870 	.db	1
      000A1C 00                    4871 	.db	0
      000A1D 05                    4872 	.uleb128	5
      000A1E 02                    4873 	.db	2
      000A1F 00 00r07r66           4874 	.dw	0,(Sstm8s_tim2$TIM2_SelectOCxM$684)
      000A23 03                    4875 	.db	3
      000A24 16                    4876 	.sleb128	22
      000A25 01                    4877 	.db	1
      000A26 00                    4878 	.db	0
      000A27 05                    4879 	.uleb128	5
      000A28 02                    4880 	.db	2
      000A29 00 00r07r67           4881 	.dw	0,(Sstm8s_tim2$TIM2_SelectOCxM$687)
      000A2D 03                    4882 	.db	3
      000A2E 03                    4883 	.sleb128	3
      000A2F 01                    4884 	.db	1
      000A30 00                    4885 	.db	0
      000A31 05                    4886 	.uleb128	5
      000A32 02                    4887 	.db	2
      000A33 00 00r07r8D           4888 	.dw	0,(Sstm8s_tim2$TIM2_SelectOCxM$694)
      000A37 03                    4889 	.db	3
      000A38 01                    4890 	.sleb128	1
      000A39 01                    4891 	.db	1
      000A3A 00                    4892 	.db	0
      000A3B 05                    4893 	.uleb128	5
      000A3C 02                    4894 	.db	2
      000A3D 00 00r07rC7           4895 	.dw	0,(Sstm8s_tim2$TIM2_SelectOCxM$706)
      000A41 03                    4896 	.db	3
      000A42 02                    4897 	.sleb128	2
      000A43 01                    4898 	.db	1
      000A44 00                    4899 	.db	0
      000A45 05                    4900 	.uleb128	5
      000A46 02                    4901 	.db	2
      000A47 00 00r07rCB           4902 	.dw	0,(Sstm8s_tim2$TIM2_SelectOCxM$708)
      000A4B 03                    4903 	.db	3
      000A4C 03                    4904 	.sleb128	3
      000A4D 01                    4905 	.db	1
      000A4E 00                    4906 	.db	0
      000A4F 05                    4907 	.uleb128	5
      000A50 02                    4908 	.db	2
      000A51 00 00r07rCF           4909 	.dw	0,(Sstm8s_tim2$TIM2_SelectOCxM$709)
      000A55 03                    4910 	.db	3
      000A56 03                    4911 	.sleb128	3
      000A57 01                    4912 	.db	1
      000A58 00                    4913 	.db	0
      000A59 05                    4914 	.uleb128	5
      000A5A 02                    4915 	.db	2
      000A5B 00 00r07rD4           4916 	.dw	0,(Sstm8s_tim2$TIM2_SelectOCxM$710)
      000A5F 03                    4917 	.db	3
      000A60 01                    4918 	.sleb128	1
      000A61 01                    4919 	.db	1
      000A62 00                    4920 	.db	0
      000A63 05                    4921 	.uleb128	5
      000A64 02                    4922 	.db	2
      000A65 00 00r07rDB           4923 	.dw	0,(Sstm8s_tim2$TIM2_SelectOCxM$712)
      000A69 03                    4924 	.db	3
      000A6A 02                    4925 	.sleb128	2
      000A6B 01                    4926 	.db	1
      000A6C 00                    4927 	.db	0
      000A6D 05                    4928 	.uleb128	5
      000A6E 02                    4929 	.db	2
      000A6F 00 00r07rDF           4930 	.dw	0,(Sstm8s_tim2$TIM2_SelectOCxM$714)
      000A73 03                    4931 	.db	3
      000A74 03                    4932 	.sleb128	3
      000A75 01                    4933 	.db	1
      000A76 00                    4934 	.db	0
      000A77 05                    4935 	.uleb128	5
      000A78 02                    4936 	.db	2
      000A79 00 00r07rE3           4937 	.dw	0,(Sstm8s_tim2$TIM2_SelectOCxM$715)
      000A7D 03                    4938 	.db	3
      000A7E 03                    4939 	.sleb128	3
      000A7F 01                    4940 	.db	1
      000A80 00                    4941 	.db	0
      000A81 05                    4942 	.uleb128	5
      000A82 02                    4943 	.db	2
      000A83 00 00r07rE8           4944 	.dw	0,(Sstm8s_tim2$TIM2_SelectOCxM$716)
      000A87 03                    4945 	.db	3
      000A88 01                    4946 	.sleb128	1
      000A89 01                    4947 	.db	1
      000A8A 00                    4948 	.db	0
      000A8B 05                    4949 	.uleb128	5
      000A8C 02                    4950 	.db	2
      000A8D 00 00r07rEF           4951 	.dw	0,(Sstm8s_tim2$TIM2_SelectOCxM$719)
      000A91 03                    4952 	.db	3
      000A92 05                    4953 	.sleb128	5
      000A93 01                    4954 	.db	1
      000A94 00                    4955 	.db	0
      000A95 05                    4956 	.uleb128	5
      000A96 02                    4957 	.db	2
      000A97 00 00r07rF3           4958 	.dw	0,(Sstm8s_tim2$TIM2_SelectOCxM$720)
      000A9B 03                    4959 	.db	3
      000A9C 03                    4960 	.sleb128	3
      000A9D 01                    4961 	.db	1
      000A9E 00                    4962 	.db	0
      000A9F 05                    4963 	.uleb128	5
      000AA0 02                    4964 	.db	2
      000AA1 00 00r07rF8           4965 	.dw	0,(Sstm8s_tim2$TIM2_SelectOCxM$721)
      000AA5 03                    4966 	.db	3
      000AA6 01                    4967 	.sleb128	1
      000AA7 01                    4968 	.db	1
      000AA8 00                    4969 	.db	0
      000AA9 05                    4970 	.uleb128	5
      000AAA 02                    4971 	.db	2
      000AAB 00 00r07rFD           4972 	.dw	0,(Sstm8s_tim2$TIM2_SelectOCxM$723)
      000AAF 03                    4973 	.db	3
      000AB0 02                    4974 	.sleb128	2
      000AB1 01                    4975 	.db	1
      000AB2 00                    4976 	.db	0
      000AB3 05                    4977 	.uleb128	5
      000AB4 02                    4978 	.db	2
      000AB5 00 00r08r01           4979 	.dw	0,(Sstm8s_tim2$TIM2_SetCounter$728)
      000AB9 03                    4980 	.db	3
      000ABA 08                    4981 	.sleb128	8
      000ABB 01                    4982 	.db	1
      000ABC 00                    4983 	.db	0
      000ABD 05                    4984 	.uleb128	5
      000ABE 02                    4985 	.db	2
      000ABF 00 00r08r01           4986 	.dw	0,(Sstm8s_tim2$TIM2_SetCounter$730)
      000AC3 03                    4987 	.db	3
      000AC4 03                    4988 	.sleb128	3
      000AC5 01                    4989 	.db	1
      000AC6 00                    4990 	.db	0
      000AC7 05                    4991 	.uleb128	5
      000AC8 02                    4992 	.db	2
      000AC9 00 00r08r05           4993 	.dw	0,(Sstm8s_tim2$TIM2_SetCounter$731)
      000ACD 03                    4994 	.db	3
      000ACE 01                    4995 	.sleb128	1
      000ACF 01                    4996 	.db	1
      000AD0 00                    4997 	.db	0
      000AD1 05                    4998 	.uleb128	5
      000AD2 02                    4999 	.db	2
      000AD3 00 00r08r09           5000 	.dw	0,(Sstm8s_tim2$TIM2_SetCounter$732)
      000AD7 03                    5001 	.db	3
      000AD8 01                    5002 	.sleb128	1
      000AD9 01                    5003 	.db	1
      000ADA 09                    5004 	.db	9
      000ADB 00 01                 5005 	.dw	1+Sstm8s_tim2$TIM2_SetCounter$733-Sstm8s_tim2$TIM2_SetCounter$732
      000ADD 00                    5006 	.db	0
      000ADE 01                    5007 	.uleb128	1
      000ADF 01                    5008 	.db	1
      000AE0 00                    5009 	.db	0
      000AE1 05                    5010 	.uleb128	5
      000AE2 02                    5011 	.db	2
      000AE3 00 00r08r0A           5012 	.dw	0,(Sstm8s_tim2$TIM2_SetAutoreload$735)
      000AE7 03                    5013 	.db	3
      000AE8 DF 06                 5014 	.sleb128	863
      000AEA 01                    5015 	.db	1
      000AEB 00                    5016 	.db	0
      000AEC 05                    5017 	.uleb128	5
      000AED 02                    5018 	.db	2
      000AEE 00 00r08r0A           5019 	.dw	0,(Sstm8s_tim2$TIM2_SetAutoreload$737)
      000AF2 03                    5020 	.db	3
      000AF3 03                    5021 	.sleb128	3
      000AF4 01                    5022 	.db	1
      000AF5 00                    5023 	.db	0
      000AF6 05                    5024 	.uleb128	5
      000AF7 02                    5025 	.db	2
      000AF8 00 00r08r0E           5026 	.dw	0,(Sstm8s_tim2$TIM2_SetAutoreload$738)
      000AFC 03                    5027 	.db	3
      000AFD 01                    5028 	.sleb128	1
      000AFE 01                    5029 	.db	1
      000AFF 00                    5030 	.db	0
      000B00 05                    5031 	.uleb128	5
      000B01 02                    5032 	.db	2
      000B02 00 00r08r12           5033 	.dw	0,(Sstm8s_tim2$TIM2_SetAutoreload$739)
      000B06 03                    5034 	.db	3
      000B07 01                    5035 	.sleb128	1
      000B08 01                    5036 	.db	1
      000B09 09                    5037 	.db	9
      000B0A 00 01                 5038 	.dw	1+Sstm8s_tim2$TIM2_SetAutoreload$740-Sstm8s_tim2$TIM2_SetAutoreload$739
      000B0C 00                    5039 	.db	0
      000B0D 01                    5040 	.uleb128	1
      000B0E 01                    5041 	.db	1
      000B0F 00                    5042 	.db	0
      000B10 05                    5043 	.uleb128	5
      000B11 02                    5044 	.db	2
      000B12 00 00r08r13           5045 	.dw	0,(Sstm8s_tim2$TIM2_SetCompare1$742)
      000B16 03                    5046 	.db	3
      000B17 EC 06                 5047 	.sleb128	876
      000B19 01                    5048 	.db	1
      000B1A 00                    5049 	.db	0
      000B1B 05                    5050 	.uleb128	5
      000B1C 02                    5051 	.db	2
      000B1D 00 00r08r13           5052 	.dw	0,(Sstm8s_tim2$TIM2_SetCompare1$744)
      000B21 03                    5053 	.db	3
      000B22 03                    5054 	.sleb128	3
      000B23 01                    5055 	.db	1
      000B24 00                    5056 	.db	0
      000B25 05                    5057 	.uleb128	5
      000B26 02                    5058 	.db	2
      000B27 00 00r08r17           5059 	.dw	0,(Sstm8s_tim2$TIM2_SetCompare1$745)
      000B2B 03                    5060 	.db	3
      000B2C 01                    5061 	.sleb128	1
      000B2D 01                    5062 	.db	1
      000B2E 00                    5063 	.db	0
      000B2F 05                    5064 	.uleb128	5
      000B30 02                    5065 	.db	2
      000B31 00 00r08r1B           5066 	.dw	0,(Sstm8s_tim2$TIM2_SetCompare1$746)
      000B35 03                    5067 	.db	3
      000B36 01                    5068 	.sleb128	1
      000B37 01                    5069 	.db	1
      000B38 09                    5070 	.db	9
      000B39 00 01                 5071 	.dw	1+Sstm8s_tim2$TIM2_SetCompare1$747-Sstm8s_tim2$TIM2_SetCompare1$746
      000B3B 00                    5072 	.db	0
      000B3C 01                    5073 	.uleb128	1
      000B3D 01                    5074 	.db	1
      000B3E 00                    5075 	.db	0
      000B3F 05                    5076 	.uleb128	5
      000B40 02                    5077 	.db	2
      000B41 00 00r08r1C           5078 	.dw	0,(Sstm8s_tim2$TIM2_SetCompare2$749)
      000B45 03                    5079 	.db	3
      000B46 F9 06                 5080 	.sleb128	889
      000B48 01                    5081 	.db	1
      000B49 00                    5082 	.db	0
      000B4A 05                    5083 	.uleb128	5
      000B4B 02                    5084 	.db	2
      000B4C 00 00r08r1C           5085 	.dw	0,(Sstm8s_tim2$TIM2_SetCompare2$751)
      000B50 03                    5086 	.db	3
      000B51 03                    5087 	.sleb128	3
      000B52 01                    5088 	.db	1
      000B53 00                    5089 	.db	0
      000B54 05                    5090 	.uleb128	5
      000B55 02                    5091 	.db	2
      000B56 00 00r08r20           5092 	.dw	0,(Sstm8s_tim2$TIM2_SetCompare2$752)
      000B5A 03                    5093 	.db	3
      000B5B 01                    5094 	.sleb128	1
      000B5C 01                    5095 	.db	1
      000B5D 00                    5096 	.db	0
      000B5E 05                    5097 	.uleb128	5
      000B5F 02                    5098 	.db	2
      000B60 00 00r08r24           5099 	.dw	0,(Sstm8s_tim2$TIM2_SetCompare2$753)
      000B64 03                    5100 	.db	3
      000B65 01                    5101 	.sleb128	1
      000B66 01                    5102 	.db	1
      000B67 09                    5103 	.db	9
      000B68 00 01                 5104 	.dw	1+Sstm8s_tim2$TIM2_SetCompare2$754-Sstm8s_tim2$TIM2_SetCompare2$753
      000B6A 00                    5105 	.db	0
      000B6B 01                    5106 	.uleb128	1
      000B6C 01                    5107 	.db	1
      000B6D 00                    5108 	.db	0
      000B6E 05                    5109 	.uleb128	5
      000B6F 02                    5110 	.db	2
      000B70 00 00r08r25           5111 	.dw	0,(Sstm8s_tim2$TIM2_SetCompare3$756)
      000B74 03                    5112 	.db	3
      000B75 86 07                 5113 	.sleb128	902
      000B77 01                    5114 	.db	1
      000B78 00                    5115 	.db	0
      000B79 05                    5116 	.uleb128	5
      000B7A 02                    5117 	.db	2
      000B7B 00 00r08r25           5118 	.dw	0,(Sstm8s_tim2$TIM2_SetCompare3$758)
      000B7F 03                    5119 	.db	3
      000B80 03                    5120 	.sleb128	3
      000B81 01                    5121 	.db	1
      000B82 00                    5122 	.db	0
      000B83 05                    5123 	.uleb128	5
      000B84 02                    5124 	.db	2
      000B85 00 00r08r29           5125 	.dw	0,(Sstm8s_tim2$TIM2_SetCompare3$759)
      000B89 03                    5126 	.db	3
      000B8A 01                    5127 	.sleb128	1
      000B8B 01                    5128 	.db	1
      000B8C 00                    5129 	.db	0
      000B8D 05                    5130 	.uleb128	5
      000B8E 02                    5131 	.db	2
      000B8F 00 00r08r2D           5132 	.dw	0,(Sstm8s_tim2$TIM2_SetCompare3$760)
      000B93 03                    5133 	.db	3
      000B94 01                    5134 	.sleb128	1
      000B95 01                    5135 	.db	1
      000B96 09                    5136 	.db	9
      000B97 00 01                 5137 	.dw	1+Sstm8s_tim2$TIM2_SetCompare3$761-Sstm8s_tim2$TIM2_SetCompare3$760
      000B99 00                    5138 	.db	0
      000B9A 01                    5139 	.uleb128	1
      000B9B 01                    5140 	.db	1
      000B9C 00                    5141 	.db	0
      000B9D 05                    5142 	.uleb128	5
      000B9E 02                    5143 	.db	2
      000B9F 00 00r08r2E           5144 	.dw	0,(Sstm8s_tim2$TIM2_SetIC1Prescaler$763)
      000BA3 03                    5145 	.db	3
      000BA4 97 07                 5146 	.sleb128	919
      000BA6 01                    5147 	.db	1
      000BA7 00                    5148 	.db	0
      000BA8 05                    5149 	.uleb128	5
      000BA9 02                    5150 	.db	2
      000BAA 00 00r08r2F           5151 	.dw	0,(Sstm8s_tim2$TIM2_SetIC1Prescaler$766)
      000BAE 03                    5152 	.db	3
      000BAF 03                    5153 	.sleb128	3
      000BB0 01                    5154 	.db	1
      000BB1 00                    5155 	.db	0
      000BB2 05                    5156 	.uleb128	5
      000BB3 02                    5157 	.db	2
      000BB4 00 00r08r51           5158 	.dw	0,(Sstm8s_tim2$TIM2_SetIC1Prescaler$774)
      000BB8 03                    5159 	.db	3
      000BB9 03                    5160 	.sleb128	3
      000BBA 01                    5161 	.db	1
      000BBB 00                    5162 	.db	0
      000BBC 05                    5163 	.uleb128	5
      000BBD 02                    5164 	.db	2
      000BBE 00 00r08r56           5165 	.dw	0,(Sstm8s_tim2$TIM2_SetIC1Prescaler$775)
      000BC2 03                    5166 	.db	3
      000BC3 01                    5167 	.sleb128	1
      000BC4 01                    5168 	.db	1
      000BC5 00                    5169 	.db	0
      000BC6 05                    5170 	.uleb128	5
      000BC7 02                    5171 	.db	2
      000BC8 00 00r08r5B           5172 	.dw	0,(Sstm8s_tim2$TIM2_SetIC1Prescaler$776)
      000BCC 03                    5173 	.db	3
      000BCD 01                    5174 	.sleb128	1
      000BCE 01                    5175 	.db	1
      000BCF 09                    5176 	.db	9
      000BD0 00 02                 5177 	.dw	1+Sstm8s_tim2$TIM2_SetIC1Prescaler$778-Sstm8s_tim2$TIM2_SetIC1Prescaler$776
      000BD2 00                    5178 	.db	0
      000BD3 01                    5179 	.uleb128	1
      000BD4 01                    5180 	.db	1
      000BD5 00                    5181 	.db	0
      000BD6 05                    5182 	.uleb128	5
      000BD7 02                    5183 	.db	2
      000BD8 00 00r08r5D           5184 	.dw	0,(Sstm8s_tim2$TIM2_SetIC2Prescaler$780)
      000BDC 03                    5185 	.db	3
      000BDD AB 07                 5186 	.sleb128	939
      000BDF 01                    5187 	.db	1
      000BE0 00                    5188 	.db	0
      000BE1 05                    5189 	.uleb128	5
      000BE2 02                    5190 	.db	2
      000BE3 00 00r08r5E           5191 	.dw	0,(Sstm8s_tim2$TIM2_SetIC2Prescaler$783)
      000BE7 03                    5192 	.db	3
      000BE8 03                    5193 	.sleb128	3
      000BE9 01                    5194 	.db	1
      000BEA 00                    5195 	.db	0
      000BEB 05                    5196 	.uleb128	5
      000BEC 02                    5197 	.db	2
      000BED 00 00r08r80           5198 	.dw	0,(Sstm8s_tim2$TIM2_SetIC2Prescaler$791)
      000BF1 03                    5199 	.db	3
      000BF2 03                    5200 	.sleb128	3
      000BF3 01                    5201 	.db	1
      000BF4 00                    5202 	.db	0
      000BF5 05                    5203 	.uleb128	5
      000BF6 02                    5204 	.db	2
      000BF7 00 00r08r85           5205 	.dw	0,(Sstm8s_tim2$TIM2_SetIC2Prescaler$792)
      000BFB 03                    5206 	.db	3
      000BFC 01                    5207 	.sleb128	1
      000BFD 01                    5208 	.db	1
      000BFE 00                    5209 	.db	0
      000BFF 05                    5210 	.uleb128	5
      000C00 02                    5211 	.db	2
      000C01 00 00r08r8A           5212 	.dw	0,(Sstm8s_tim2$TIM2_SetIC2Prescaler$793)
      000C05 03                    5213 	.db	3
      000C06 01                    5214 	.sleb128	1
      000C07 01                    5215 	.db	1
      000C08 09                    5216 	.db	9
      000C09 00 02                 5217 	.dw	1+Sstm8s_tim2$TIM2_SetIC2Prescaler$795-Sstm8s_tim2$TIM2_SetIC2Prescaler$793
      000C0B 00                    5218 	.db	0
      000C0C 01                    5219 	.uleb128	1
      000C0D 01                    5220 	.db	1
      000C0E 00                    5221 	.db	0
      000C0F 05                    5222 	.uleb128	5
      000C10 02                    5223 	.db	2
      000C11 00 00r08r8C           5224 	.dw	0,(Sstm8s_tim2$TIM2_SetIC3Prescaler$797)
      000C15 03                    5225 	.db	3
      000C16 BF 07                 5226 	.sleb128	959
      000C18 01                    5227 	.db	1
      000C19 00                    5228 	.db	0
      000C1A 05                    5229 	.uleb128	5
      000C1B 02                    5230 	.db	2
      000C1C 00 00r08r8D           5231 	.dw	0,(Sstm8s_tim2$TIM2_SetIC3Prescaler$800)
      000C20 03                    5232 	.db	3
      000C21 04                    5233 	.sleb128	4
      000C22 01                    5234 	.db	1
      000C23 00                    5235 	.db	0
      000C24 05                    5236 	.uleb128	5
      000C25 02                    5237 	.db	2
      000C26 00 00r08rAF           5238 	.dw	0,(Sstm8s_tim2$TIM2_SetIC3Prescaler$808)
      000C2A 03                    5239 	.db	3
      000C2B 02                    5240 	.sleb128	2
      000C2C 01                    5241 	.db	1
      000C2D 00                    5242 	.db	0
      000C2E 05                    5243 	.uleb128	5
      000C2F 02                    5244 	.db	2
      000C30 00 00r08rB4           5245 	.dw	0,(Sstm8s_tim2$TIM2_SetIC3Prescaler$809)
      000C34 03                    5246 	.db	3
      000C35 01                    5247 	.sleb128	1
      000C36 01                    5248 	.db	1
      000C37 00                    5249 	.db	0
      000C38 05                    5250 	.uleb128	5
      000C39 02                    5251 	.db	2
      000C3A 00 00r08rB9           5252 	.dw	0,(Sstm8s_tim2$TIM2_SetIC3Prescaler$810)
      000C3E 03                    5253 	.db	3
      000C3F 01                    5254 	.sleb128	1
      000C40 01                    5255 	.db	1
      000C41 09                    5256 	.db	9
      000C42 00 02                 5257 	.dw	1+Sstm8s_tim2$TIM2_SetIC3Prescaler$812-Sstm8s_tim2$TIM2_SetIC3Prescaler$810
      000C44 00                    5258 	.db	0
      000C45 01                    5259 	.uleb128	1
      000C46 01                    5260 	.db	1
      000C47 00                    5261 	.db	0
      000C48 05                    5262 	.uleb128	5
      000C49 02                    5263 	.db	2
      000C4A 00 00r08rBB           5264 	.dw	0,(Sstm8s_tim2$TIM2_GetCapture1$814)
      000C4E 03                    5265 	.db	3
      000C4F CE 07                 5266 	.sleb128	974
      000C51 01                    5267 	.db	1
      000C52 00                    5268 	.db	0
      000C53 05                    5269 	.uleb128	5
      000C54 02                    5270 	.db	2
      000C55 00 00r08rBC           5271 	.dw	0,(Sstm8s_tim2$TIM2_GetCapture1$817)
      000C59 03                    5272 	.db	3
      000C5A 06                    5273 	.sleb128	6
      000C5B 01                    5274 	.db	1
      000C5C 00                    5275 	.db	0
      000C5D 05                    5276 	.uleb128	5
      000C5E 02                    5277 	.db	2
      000C5F 00 00r08rC0           5278 	.dw	0,(Sstm8s_tim2$TIM2_GetCapture1$818)
      000C63 03                    5279 	.db	3
      000C64 01                    5280 	.sleb128	1
      000C65 01                    5281 	.db	1
      000C66 00                    5282 	.db	0
      000C67 05                    5283 	.uleb128	5
      000C68 02                    5284 	.db	2
      000C69 00 00r08rC3           5285 	.dw	0,(Sstm8s_tim2$TIM2_GetCapture1$819)
      000C6D 03                    5286 	.db	3
      000C6E 02                    5287 	.sleb128	2
      000C6F 01                    5288 	.db	1
      000C70 00                    5289 	.db	0
      000C71 05                    5290 	.uleb128	5
      000C72 02                    5291 	.db	2
      000C73 00 00r08rC7           5292 	.dw	0,(Sstm8s_tim2$TIM2_GetCapture1$820)
      000C77 03                    5293 	.db	3
      000C78 01                    5294 	.sleb128	1
      000C79 01                    5295 	.db	1
      000C7A 00                    5296 	.db	0
      000C7B 05                    5297 	.uleb128	5
      000C7C 02                    5298 	.db	2
      000C7D 00 00r08rCC           5299 	.dw	0,(Sstm8s_tim2$TIM2_GetCapture1$821)
      000C81 03                    5300 	.db	3
      000C82 02                    5301 	.sleb128	2
      000C83 01                    5302 	.db	1
      000C84 00                    5303 	.db	0
      000C85 05                    5304 	.uleb128	5
      000C86 02                    5305 	.db	2
      000C87 00 00r08rCD           5306 	.dw	0,(Sstm8s_tim2$TIM2_GetCapture1$822)
      000C8B 03                    5307 	.db	3
      000C8C 01                    5308 	.sleb128	1
      000C8D 01                    5309 	.db	1
      000C8E 09                    5310 	.db	9
      000C8F 00 03                 5311 	.dw	1+Sstm8s_tim2$TIM2_GetCapture1$824-Sstm8s_tim2$TIM2_GetCapture1$822
      000C91 00                    5312 	.db	0
      000C92 01                    5313 	.uleb128	1
      000C93 01                    5314 	.db	1
      000C94 00                    5315 	.db	0
      000C95 05                    5316 	.uleb128	5
      000C96 02                    5317 	.db	2
      000C97 00 00r08rD0           5318 	.dw	0,(Sstm8s_tim2$TIM2_GetCapture2$826)
      000C9B 03                    5319 	.db	3
      000C9C E2 07                 5320 	.sleb128	994
      000C9E 01                    5321 	.db	1
      000C9F 00                    5322 	.db	0
      000CA0 05                    5323 	.uleb128	5
      000CA1 02                    5324 	.db	2
      000CA2 00 00r08rD1           5325 	.dw	0,(Sstm8s_tim2$TIM2_GetCapture2$829)
      000CA6 03                    5326 	.db	3
      000CA7 06                    5327 	.sleb128	6
      000CA8 01                    5328 	.db	1
      000CA9 00                    5329 	.db	0
      000CAA 05                    5330 	.uleb128	5
      000CAB 02                    5331 	.db	2
      000CAC 00 00r08rD5           5332 	.dw	0,(Sstm8s_tim2$TIM2_GetCapture2$830)
      000CB0 03                    5333 	.db	3
      000CB1 01                    5334 	.sleb128	1
      000CB2 01                    5335 	.db	1
      000CB3 00                    5336 	.db	0
      000CB4 05                    5337 	.uleb128	5
      000CB5 02                    5338 	.db	2
      000CB6 00 00r08rD8           5339 	.dw	0,(Sstm8s_tim2$TIM2_GetCapture2$831)
      000CBA 03                    5340 	.db	3
      000CBB 02                    5341 	.sleb128	2
      000CBC 01                    5342 	.db	1
      000CBD 00                    5343 	.db	0
      000CBE 05                    5344 	.uleb128	5
      000CBF 02                    5345 	.db	2
      000CC0 00 00r08rDC           5346 	.dw	0,(Sstm8s_tim2$TIM2_GetCapture2$832)
      000CC4 03                    5347 	.db	3
      000CC5 01                    5348 	.sleb128	1
      000CC6 01                    5349 	.db	1
      000CC7 00                    5350 	.db	0
      000CC8 05                    5351 	.uleb128	5
      000CC9 02                    5352 	.db	2
      000CCA 00 00r08rE1           5353 	.dw	0,(Sstm8s_tim2$TIM2_GetCapture2$833)
      000CCE 03                    5354 	.db	3
      000CCF 02                    5355 	.sleb128	2
      000CD0 01                    5356 	.db	1
      000CD1 00                    5357 	.db	0
      000CD2 05                    5358 	.uleb128	5
      000CD3 02                    5359 	.db	2
      000CD4 00 00r08rE2           5360 	.dw	0,(Sstm8s_tim2$TIM2_GetCapture2$834)
      000CD8 03                    5361 	.db	3
      000CD9 01                    5362 	.sleb128	1
      000CDA 01                    5363 	.db	1
      000CDB 09                    5364 	.db	9
      000CDC 00 03                 5365 	.dw	1+Sstm8s_tim2$TIM2_GetCapture2$836-Sstm8s_tim2$TIM2_GetCapture2$834
      000CDE 00                    5366 	.db	0
      000CDF 01                    5367 	.uleb128	1
      000CE0 01                    5368 	.db	1
      000CE1 00                    5369 	.db	0
      000CE2 05                    5370 	.uleb128	5
      000CE3 02                    5371 	.db	2
      000CE4 00 00r08rE5           5372 	.dw	0,(Sstm8s_tim2$TIM2_GetCapture3$838)
      000CE8 03                    5373 	.db	3
      000CE9 F6 07                 5374 	.sleb128	1014
      000CEB 01                    5375 	.db	1
      000CEC 00                    5376 	.db	0
      000CED 05                    5377 	.uleb128	5
      000CEE 02                    5378 	.db	2
      000CEF 00 00r08rE6           5379 	.dw	0,(Sstm8s_tim2$TIM2_GetCapture3$841)
      000CF3 03                    5380 	.db	3
      000CF4 06                    5381 	.sleb128	6
      000CF5 01                    5382 	.db	1
      000CF6 00                    5383 	.db	0
      000CF7 05                    5384 	.uleb128	5
      000CF8 02                    5385 	.db	2
      000CF9 00 00r08rEA           5386 	.dw	0,(Sstm8s_tim2$TIM2_GetCapture3$842)
      000CFD 03                    5387 	.db	3
      000CFE 01                    5388 	.sleb128	1
      000CFF 01                    5389 	.db	1
      000D00 00                    5390 	.db	0
      000D01 05                    5391 	.uleb128	5
      000D02 02                    5392 	.db	2
      000D03 00 00r08rED           5393 	.dw	0,(Sstm8s_tim2$TIM2_GetCapture3$843)
      000D07 03                    5394 	.db	3
      000D08 02                    5395 	.sleb128	2
      000D09 01                    5396 	.db	1
      000D0A 00                    5397 	.db	0
      000D0B 05                    5398 	.uleb128	5
      000D0C 02                    5399 	.db	2
      000D0D 00 00r08rF1           5400 	.dw	0,(Sstm8s_tim2$TIM2_GetCapture3$844)
      000D11 03                    5401 	.db	3
      000D12 01                    5402 	.sleb128	1
      000D13 01                    5403 	.db	1
      000D14 00                    5404 	.db	0
      000D15 05                    5405 	.uleb128	5
      000D16 02                    5406 	.db	2
      000D17 00 00r08rF6           5407 	.dw	0,(Sstm8s_tim2$TIM2_GetCapture3$845)
      000D1B 03                    5408 	.db	3
      000D1C 02                    5409 	.sleb128	2
      000D1D 01                    5410 	.db	1
      000D1E 00                    5411 	.db	0
      000D1F 05                    5412 	.uleb128	5
      000D20 02                    5413 	.db	2
      000D21 00 00r08rF7           5414 	.dw	0,(Sstm8s_tim2$TIM2_GetCapture3$846)
      000D25 03                    5415 	.db	3
      000D26 01                    5416 	.sleb128	1
      000D27 01                    5417 	.db	1
      000D28 09                    5418 	.db	9
      000D29 00 03                 5419 	.dw	1+Sstm8s_tim2$TIM2_GetCapture3$848-Sstm8s_tim2$TIM2_GetCapture3$846
      000D2B 00                    5420 	.db	0
      000D2C 01                    5421 	.uleb128	1
      000D2D 01                    5422 	.db	1
      000D2E 00                    5423 	.db	0
      000D2F 05                    5424 	.uleb128	5
      000D30 02                    5425 	.db	2
      000D31 00 00r08rFA           5426 	.dw	0,(Sstm8s_tim2$TIM2_GetCounter$850)
      000D35 03                    5427 	.db	3
      000D36 8A 08                 5428 	.sleb128	1034
      000D38 01                    5429 	.db	1
      000D39 00                    5430 	.db	0
      000D3A 05                    5431 	.uleb128	5
      000D3B 02                    5432 	.db	2
      000D3C 00 00r08rFC           5433 	.dw	0,(Sstm8s_tim2$TIM2_GetCounter$853)
      000D40 03                    5434 	.db	3
      000D41 04                    5435 	.sleb128	4
      000D42 01                    5436 	.db	1
      000D43 00                    5437 	.db	0
      000D44 05                    5438 	.uleb128	5
      000D45 02                    5439 	.db	2
      000D46 00 00r09r02           5440 	.dw	0,(Sstm8s_tim2$TIM2_GetCounter$854)
      000D4A 03                    5441 	.db	3
      000D4B 02                    5442 	.sleb128	2
      000D4C 01                    5443 	.db	1
      000D4D 00                    5444 	.db	0
      000D4E 05                    5445 	.uleb128	5
      000D4F 02                    5446 	.db	2
      000D50 00 00r09r0D           5447 	.dw	0,(Sstm8s_tim2$TIM2_GetCounter$855)
      000D54 03                    5448 	.db	3
      000D55 01                    5449 	.sleb128	1
      000D56 01                    5450 	.db	1
      000D57 09                    5451 	.db	9
      000D58 00 03                 5452 	.dw	1+Sstm8s_tim2$TIM2_GetCounter$857-Sstm8s_tim2$TIM2_GetCounter$855
      000D5A 00                    5453 	.db	0
      000D5B 01                    5454 	.uleb128	1
      000D5C 01                    5455 	.db	1
      000D5D 00                    5456 	.db	0
      000D5E 05                    5457 	.uleb128	5
      000D5F 02                    5458 	.db	2
      000D60 00 00r09r10           5459 	.dw	0,(Sstm8s_tim2$TIM2_GetPrescaler$859)
      000D64 03                    5460 	.db	3
      000D65 98 08                 5461 	.sleb128	1048
      000D67 01                    5462 	.db	1
      000D68 00                    5463 	.db	0
      000D69 05                    5464 	.uleb128	5
      000D6A 02                    5465 	.db	2
      000D6B 00 00r09r10           5466 	.dw	0,(Sstm8s_tim2$TIM2_GetPrescaler$861)
      000D6F 03                    5467 	.db	3
      000D70 03                    5468 	.sleb128	3
      000D71 01                    5469 	.db	1
      000D72 00                    5470 	.db	0
      000D73 05                    5471 	.uleb128	5
      000D74 02                    5472 	.db	2
      000D75 00 00r09r13           5473 	.dw	0,(Sstm8s_tim2$TIM2_GetPrescaler$862)
      000D79 03                    5474 	.db	3
      000D7A 01                    5475 	.sleb128	1
      000D7B 01                    5476 	.db	1
      000D7C 09                    5477 	.db	9
      000D7D 00 01                 5478 	.dw	1+Sstm8s_tim2$TIM2_GetPrescaler$863-Sstm8s_tim2$TIM2_GetPrescaler$862
      000D7F 00                    5479 	.db	0
      000D80 01                    5480 	.uleb128	1
      000D81 01                    5481 	.db	1
      000D82 00                    5482 	.db	0
      000D83 05                    5483 	.uleb128	5
      000D84 02                    5484 	.db	2
      000D85 00 00r09r14           5485 	.dw	0,(Sstm8s_tim2$TIM2_GetFlagStatus$865)
      000D89 03                    5486 	.db	3
      000D8A AB 08                 5487 	.sleb128	1067
      000D8C 01                    5488 	.db	1
      000D8D 00                    5489 	.db	0
      000D8E 05                    5490 	.uleb128	5
      000D8F 02                    5491 	.db	2
      000D90 00 00r09r16           5492 	.dw	0,(Sstm8s_tim2$TIM2_GetFlagStatus$868)
      000D94 03                    5493 	.db	3
      000D95 06                    5494 	.sleb128	6
      000D96 01                    5495 	.db	1
      000D97 00                    5496 	.db	0
      000D98 05                    5497 	.uleb128	5
      000D99 02                    5498 	.db	2
      000D9A 00 00r09r4B           5499 	.dw	0,(Sstm8s_tim2$TIM2_GetFlagStatus$883)
      000D9E 03                    5500 	.db	3
      000D9F 02                    5501 	.sleb128	2
      000DA0 01                    5502 	.db	1
      000DA1 00                    5503 	.db	0
      000DA2 05                    5504 	.uleb128	5
      000DA3 02                    5505 	.db	2
      000DA4 00 00r09r56           5506 	.dw	0,(Sstm8s_tim2$TIM2_GetFlagStatus$884)
      000DA8 03                    5507 	.db	3
      000DA9 01                    5508 	.sleb128	1
      000DAA 01                    5509 	.db	1
      000DAB 00                    5510 	.db	0
      000DAC 05                    5511 	.uleb128	5
      000DAD 02                    5512 	.db	2
      000DAE 00 00r09r56           5513 	.dw	0,(Sstm8s_tim2$TIM2_GetFlagStatus$885)
      000DB2 03                    5514 	.db	3
      000DB3 02                    5515 	.sleb128	2
      000DB4 01                    5516 	.db	1
      000DB5 00                    5517 	.db	0
      000DB6 05                    5518 	.uleb128	5
      000DB7 02                    5519 	.db	2
      000DB8 00 00r09r61           5520 	.dw	0,(Sstm8s_tim2$TIM2_GetFlagStatus$889)
      000DBC 03                    5521 	.db	3
      000DBD 02                    5522 	.sleb128	2
      000DBE 01                    5523 	.db	1
      000DBF 00                    5524 	.db	0
      000DC0 05                    5525 	.uleb128	5
      000DC1 02                    5526 	.db	2
      000DC2 00 00r09r63           5527 	.dw	0,(Sstm8s_tim2$TIM2_GetFlagStatus$892)
      000DC6 03                    5528 	.db	3
      000DC7 04                    5529 	.sleb128	4
      000DC8 01                    5530 	.db	1
      000DC9 00                    5531 	.db	0
      000DCA 05                    5532 	.uleb128	5
      000DCB 02                    5533 	.db	2
      000DCC 00 00r09r65           5534 	.dw	0,(Sstm8s_tim2$TIM2_GetFlagStatus$894)
      000DD0 03                    5535 	.db	3
      000DD1 02                    5536 	.sleb128	2
      000DD2 01                    5537 	.db	1
      000DD3 00                    5538 	.db	0
      000DD4 05                    5539 	.uleb128	5
      000DD5 02                    5540 	.db	2
      000DD6 00 00r09r65           5541 	.dw	0,(Sstm8s_tim2$TIM2_GetFlagStatus$895)
      000DDA 03                    5542 	.db	3
      000DDB 01                    5543 	.sleb128	1
      000DDC 01                    5544 	.db	1
      000DDD 09                    5545 	.db	9
      000DDE 00 03                 5546 	.dw	1+Sstm8s_tim2$TIM2_GetFlagStatus$897-Sstm8s_tim2$TIM2_GetFlagStatus$895
      000DE0 00                    5547 	.db	0
      000DE1 01                    5548 	.uleb128	1
      000DE2 01                    5549 	.db	1
      000DE3 00                    5550 	.db	0
      000DE4 05                    5551 	.uleb128	5
      000DE5 02                    5552 	.db	2
      000DE6 00 00r09r68           5553 	.dw	0,(Sstm8s_tim2$TIM2_ClearFlag$899)
      000DEA 03                    5554 	.db	3
      000DEB CE 08                 5555 	.sleb128	1102
      000DED 01                    5556 	.db	1
      000DEE 00                    5557 	.db	0
      000DEF 05                    5558 	.uleb128	5
      000DF0 02                    5559 	.db	2
      000DF1 00 00r09r6B           5560 	.dw	0,(Sstm8s_tim2$TIM2_ClearFlag$902)
      000DF5 03                    5561 	.db	3
      000DF6 03                    5562 	.sleb128	3
      000DF7 01                    5563 	.db	1
      000DF8 00                    5564 	.db	0
      000DF9 05                    5565 	.uleb128	5
      000DFA 02                    5566 	.db	2
      000DFB 00 00r09r88           5567 	.dw	0,(Sstm8s_tim2$TIM2_ClearFlag$907)
      000DFF 03                    5568 	.db	3
      000E00 03                    5569 	.sleb128	3
      000E01 01                    5570 	.db	1
      000E02 00                    5571 	.db	0
      000E03 05                    5572 	.uleb128	5
      000E04 02                    5573 	.db	2
      000E05 00 00r09r8E           5574 	.dw	0,(Sstm8s_tim2$TIM2_ClearFlag$908)
      000E09 03                    5575 	.db	3
      000E0A 01                    5576 	.sleb128	1
      000E0B 01                    5577 	.db	1
      000E0C 00                    5578 	.db	0
      000E0D 05                    5579 	.uleb128	5
      000E0E 02                    5580 	.db	2
      000E0F 00 00r09r92           5581 	.dw	0,(Sstm8s_tim2$TIM2_ClearFlag$909)
      000E13 03                    5582 	.db	3
      000E14 01                    5583 	.sleb128	1
      000E15 01                    5584 	.db	1
      000E16 09                    5585 	.db	9
      000E17 00 02                 5586 	.dw	1+Sstm8s_tim2$TIM2_ClearFlag$911-Sstm8s_tim2$TIM2_ClearFlag$909
      000E19 00                    5587 	.db	0
      000E1A 01                    5588 	.uleb128	1
      000E1B 01                    5589 	.db	1
      000E1C 00                    5590 	.db	0
      000E1D 05                    5591 	.uleb128	5
      000E1E 02                    5592 	.db	2
      000E1F 00 00r09r94           5593 	.dw	0,(Sstm8s_tim2$TIM2_GetITStatus$913)
      000E23 03                    5594 	.db	3
      000E24 E2 08                 5595 	.sleb128	1122
      000E26 01                    5596 	.db	1
      000E27 00                    5597 	.db	0
      000E28 05                    5598 	.uleb128	5
      000E29 02                    5599 	.db	2
      000E2A 00 00r09r95           5600 	.dw	0,(Sstm8s_tim2$TIM2_GetITStatus$916)
      000E2E 03                    5601 	.db	3
      000E2F 06                    5602 	.sleb128	6
      000E30 01                    5603 	.db	1
      000E31 00                    5604 	.db	0
      000E32 05                    5605 	.uleb128	5
      000E33 02                    5606 	.db	2
      000E34 00 00r09rB8           5607 	.dw	0,(Sstm8s_tim2$TIM2_GetITStatus$925)
      000E38 03                    5608 	.db	3
      000E39 02                    5609 	.sleb128	2
      000E3A 01                    5610 	.db	1
      000E3B 00                    5611 	.db	0
      000E3C 05                    5612 	.uleb128	5
      000E3D 02                    5613 	.db	2
      000E3E 00 00r09rBF           5614 	.dw	0,(Sstm8s_tim2$TIM2_GetITStatus$926)
      000E42 03                    5615 	.db	3
      000E43 02                    5616 	.sleb128	2
      000E44 01                    5617 	.db	1
      000E45 00                    5618 	.db	0
      000E46 05                    5619 	.uleb128	5
      000E47 02                    5620 	.db	2
      000E48 00 00r09rC4           5621 	.dw	0,(Sstm8s_tim2$TIM2_GetITStatus$927)
      000E4C 03                    5622 	.db	3
      000E4D 02                    5623 	.sleb128	2
      000E4E 01                    5624 	.db	1
      000E4F 00                    5625 	.db	0
      000E50 05                    5626 	.uleb128	5
      000E51 02                    5627 	.db	2
      000E52 00 00r09rCB           5628 	.dw	0,(Sstm8s_tim2$TIM2_GetITStatus$929)
      000E56 03                    5629 	.db	3
      000E57 02                    5630 	.sleb128	2
      000E58 01                    5631 	.db	1
      000E59 00                    5632 	.db	0
      000E5A 05                    5633 	.uleb128	5
      000E5B 02                    5634 	.db	2
      000E5C 00 00r09rCD           5635 	.dw	0,(Sstm8s_tim2$TIM2_GetITStatus$932)
      000E60 03                    5636 	.db	3
      000E61 04                    5637 	.sleb128	4
      000E62 01                    5638 	.db	1
      000E63 00                    5639 	.db	0
      000E64 05                    5640 	.uleb128	5
      000E65 02                    5641 	.db	2
      000E66 00 00r09rCF           5642 	.dw	0,(Sstm8s_tim2$TIM2_GetITStatus$934)
      000E6A 03                    5643 	.db	3
      000E6B 02                    5644 	.sleb128	2
      000E6C 01                    5645 	.db	1
      000E6D 00                    5646 	.db	0
      000E6E 05                    5647 	.uleb128	5
      000E6F 02                    5648 	.db	2
      000E70 00 00r09rCF           5649 	.dw	0,(Sstm8s_tim2$TIM2_GetITStatus$935)
      000E74 03                    5650 	.db	3
      000E75 01                    5651 	.sleb128	1
      000E76 01                    5652 	.db	1
      000E77 09                    5653 	.db	9
      000E78 00 02                 5654 	.dw	1+Sstm8s_tim2$TIM2_GetITStatus$937-Sstm8s_tim2$TIM2_GetITStatus$935
      000E7A 00                    5655 	.db	0
      000E7B 01                    5656 	.uleb128	1
      000E7C 01                    5657 	.db	1
      000E7D 00                    5658 	.db	0
      000E7E 05                    5659 	.uleb128	5
      000E7F 02                    5660 	.db	2
      000E80 00 00r09rD1           5661 	.dw	0,(Sstm8s_tim2$TIM2_ClearITPendingBit$939)
      000E84 03                    5662 	.db	3
      000E85 83 09                 5663 	.sleb128	1155
      000E87 01                    5664 	.db	1
      000E88 00                    5665 	.db	0
      000E89 05                    5666 	.uleb128	5
      000E8A 02                    5667 	.db	2
      000E8B 00 00r09rD1           5668 	.dw	0,(Sstm8s_tim2$TIM2_ClearITPendingBit$941)
      000E8F 03                    5669 	.db	3
      000E90 03                    5670 	.sleb128	3
      000E91 01                    5671 	.db	1
      000E92 00                    5672 	.db	0
      000E93 05                    5673 	.uleb128	5
      000E94 02                    5674 	.db	2
      000E95 00 00r09rE6           5675 	.dw	0,(Sstm8s_tim2$TIM2_ClearITPendingBit$948)
      000E99 03                    5676 	.db	3
      000E9A 03                    5677 	.sleb128	3
      000E9B 01                    5678 	.db	1
      000E9C 00                    5679 	.db	0
      000E9D 05                    5680 	.uleb128	5
      000E9E 02                    5681 	.db	2
      000E9F 00 00r09rEA           5682 	.dw	0,(Sstm8s_tim2$TIM2_ClearITPendingBit$949)
      000EA3 03                    5683 	.db	3
      000EA4 01                    5684 	.sleb128	1
      000EA5 01                    5685 	.db	1
      000EA6 09                    5686 	.db	9
      000EA7 00 01                 5687 	.dw	1+Sstm8s_tim2$TIM2_ClearITPendingBit$950-Sstm8s_tim2$TIM2_ClearITPendingBit$949
      000EA9 00                    5688 	.db	0
      000EAA 01                    5689 	.uleb128	1
      000EAB 01                    5690 	.db	1
      000EAC 00                    5691 	.db	0
      000EAD 05                    5692 	.uleb128	5
      000EAE 02                    5693 	.db	2
      000EAF 00 00r09rEB           5694 	.dw	0,(Sstm8s_tim2$TI1_Config$952)
      000EB3 03                    5695 	.db	3
      000EB4 9C 09                 5696 	.sleb128	1180
      000EB6 01                    5697 	.db	1
      000EB7 00                    5698 	.db	0
      000EB8 05                    5699 	.uleb128	5
      000EB9 02                    5700 	.db	2
      000EBA 00 00r09rEE           5701 	.dw	0,(Sstm8s_tim2$TI1_Config$955)
      000EBE 03                    5702 	.db	3
      000EBF 05                    5703 	.sleb128	5
      000EC0 01                    5704 	.db	1
      000EC1 00                    5705 	.db	0
      000EC2 05                    5706 	.uleb128	5
      000EC3 02                    5707 	.db	2
      000EC4 00 00r09rF2           5708 	.dw	0,(Sstm8s_tim2$TI1_Config$956)
      000EC8 03                    5709 	.db	3
      000EC9 03                    5710 	.sleb128	3
      000ECA 01                    5711 	.db	1
      000ECB 00                    5712 	.db	0
      000ECC 05                    5713 	.uleb128	5
      000ECD 02                    5714 	.db	2
      000ECE 00 00r09rF9           5715 	.dw	0,(Sstm8s_tim2$TI1_Config$957)
      000ED2 03                    5716 	.db	3
      000ED3 01                    5717 	.sleb128	1
      000ED4 01                    5718 	.db	1
      000ED5 00                    5719 	.db	0
      000ED6 05                    5720 	.uleb128	5
      000ED7 02                    5721 	.db	2
      000ED8 00 00r0Ar05           5722 	.dw	0,(Sstm8s_tim2$TI1_Config$958)
      000EDC 03                    5723 	.db	3
      000EDD 7C                    5724 	.sleb128	-4
      000EDE 01                    5725 	.db	1
      000EDF 00                    5726 	.db	0
      000EE0 05                    5727 	.uleb128	5
      000EE1 02                    5728 	.db	2
      000EE2 00 00r0Ar08           5729 	.dw	0,(Sstm8s_tim2$TI1_Config$959)
      000EE6 03                    5730 	.db	3
      000EE7 07                    5731 	.sleb128	7
      000EE8 01                    5732 	.db	1
      000EE9 00                    5733 	.db	0
      000EEA 05                    5734 	.uleb128	5
      000EEB 02                    5735 	.db	2
      000EEC 00 00r0Ar0C           5736 	.dw	0,(Sstm8s_tim2$TI1_Config$961)
      000EF0 03                    5737 	.db	3
      000EF1 02                    5738 	.sleb128	2
      000EF2 01                    5739 	.db	1
      000EF3 00                    5740 	.db	0
      000EF4 05                    5741 	.uleb128	5
      000EF5 02                    5742 	.db	2
      000EF6 00 00r0Ar13           5743 	.dw	0,(Sstm8s_tim2$TI1_Config$964)
      000EFA 03                    5744 	.db	3
      000EFB 04                    5745 	.sleb128	4
      000EFC 01                    5746 	.db	1
      000EFD 00                    5747 	.db	0
      000EFE 05                    5748 	.uleb128	5
      000EFF 02                    5749 	.db	2
      000F00 00 00r0Ar18           5750 	.dw	0,(Sstm8s_tim2$TI1_Config$966)
      000F04 03                    5751 	.db	3
      000F05 03                    5752 	.sleb128	3
      000F06 01                    5753 	.db	1
      000F07 00                    5754 	.db	0
      000F08 05                    5755 	.uleb128	5
      000F09 02                    5756 	.db	2
      000F0A 00 00r0Ar20           5757 	.dw	0,(Sstm8s_tim2$TI1_Config$967)
      000F0E 03                    5758 	.db	3
      000F0F 01                    5759 	.sleb128	1
      000F10 01                    5760 	.db	1
      000F11 00                    5761 	.db	0
      000F12 05                    5762 	.uleb128	5
      000F13 02                    5763 	.db	2
      000F14 00 00r0Ar25           5764 	.dw	0,(Sstm8s_tim2$TI2_Config$970)
      000F18 03                    5765 	.db	3
      000F19 12                    5766 	.sleb128	18
      000F1A 01                    5767 	.db	1
      000F1B 00                    5768 	.db	0
      000F1C 05                    5769 	.uleb128	5
      000F1D 02                    5770 	.db	2
      000F1E 00 00r0Ar28           5771 	.dw	0,(Sstm8s_tim2$TI2_Config$973)
      000F22 03                    5772 	.db	3
      000F23 05                    5773 	.sleb128	5
      000F24 01                    5774 	.db	1
      000F25 00                    5775 	.db	0
      000F26 05                    5776 	.uleb128	5
      000F27 02                    5777 	.db	2
      000F28 00 00r0Ar2C           5778 	.dw	0,(Sstm8s_tim2$TI2_Config$974)
      000F2C 03                    5779 	.db	3
      000F2D 03                    5780 	.sleb128	3
      000F2E 01                    5781 	.db	1
      000F2F 00                    5782 	.db	0
      000F30 05                    5783 	.uleb128	5
      000F31 02                    5784 	.db	2
      000F32 00 00r0Ar33           5785 	.dw	0,(Sstm8s_tim2$TI2_Config$975)
      000F36 03                    5786 	.db	3
      000F37 01                    5787 	.sleb128	1
      000F38 01                    5788 	.db	1
      000F39 00                    5789 	.db	0
      000F3A 05                    5790 	.uleb128	5
      000F3B 02                    5791 	.db	2
      000F3C 00 00r0Ar3F           5792 	.dw	0,(Sstm8s_tim2$TI2_Config$976)
      000F40 03                    5793 	.db	3
      000F41 7C                    5794 	.sleb128	-4
      000F42 01                    5795 	.db	1
      000F43 00                    5796 	.db	0
      000F44 05                    5797 	.uleb128	5
      000F45 02                    5798 	.db	2
      000F46 00 00r0Ar42           5799 	.dw	0,(Sstm8s_tim2$TI2_Config$977)
      000F4A 03                    5800 	.db	3
      000F4B 08                    5801 	.sleb128	8
      000F4C 01                    5802 	.db	1
      000F4D 00                    5803 	.db	0
      000F4E 05                    5804 	.uleb128	5
      000F4F 02                    5805 	.db	2
      000F50 00 00r0Ar46           5806 	.dw	0,(Sstm8s_tim2$TI2_Config$979)
      000F54 03                    5807 	.db	3
      000F55 02                    5808 	.sleb128	2
      000F56 01                    5809 	.db	1
      000F57 00                    5810 	.db	0
      000F58 05                    5811 	.uleb128	5
      000F59 02                    5812 	.db	2
      000F5A 00 00r0Ar4D           5813 	.dw	0,(Sstm8s_tim2$TI2_Config$982)
      000F5E 03                    5814 	.db	3
      000F5F 04                    5815 	.sleb128	4
      000F60 01                    5816 	.db	1
      000F61 00                    5817 	.db	0
      000F62 05                    5818 	.uleb128	5
      000F63 02                    5819 	.db	2
      000F64 00 00r0Ar52           5820 	.dw	0,(Sstm8s_tim2$TI2_Config$984)
      000F68 03                    5821 	.db	3
      000F69 04                    5822 	.sleb128	4
      000F6A 01                    5823 	.db	1
      000F6B 00                    5824 	.db	0
      000F6C 05                    5825 	.uleb128	5
      000F6D 02                    5826 	.db	2
      000F6E 00 00r0Ar5A           5827 	.dw	0,(Sstm8s_tim2$TI2_Config$985)
      000F72 03                    5828 	.db	3
      000F73 01                    5829 	.sleb128	1
      000F74 01                    5830 	.db	1
      000F75 00                    5831 	.db	0
      000F76 05                    5832 	.uleb128	5
      000F77 02                    5833 	.db	2
      000F78 00 00r0Ar5F           5834 	.dw	0,(Sstm8s_tim2$TI3_Config$988)
      000F7C 03                    5835 	.db	3
      000F7D 10                    5836 	.sleb128	16
      000F7E 01                    5837 	.db	1
      000F7F 00                    5838 	.db	0
      000F80 05                    5839 	.uleb128	5
      000F81 02                    5840 	.db	2
      000F82 00 00r0Ar62           5841 	.dw	0,(Sstm8s_tim2$TI3_Config$991)
      000F86 03                    5842 	.db	3
      000F87 04                    5843 	.sleb128	4
      000F88 01                    5844 	.db	1
      000F89 00                    5845 	.db	0
      000F8A 05                    5846 	.uleb128	5
      000F8B 02                    5847 	.db	2
      000F8C 00 00r0Ar66           5848 	.dw	0,(Sstm8s_tim2$TI3_Config$992)
      000F90 03                    5849 	.db	3
      000F91 03                    5850 	.sleb128	3
      000F92 01                    5851 	.db	1
      000F93 00                    5852 	.db	0
      000F94 05                    5853 	.uleb128	5
      000F95 02                    5854 	.db	2
      000F96 00 00r0Ar6D           5855 	.dw	0,(Sstm8s_tim2$TI3_Config$993)
      000F9A 03                    5856 	.db	3
      000F9B 01                    5857 	.sleb128	1
      000F9C 01                    5858 	.db	1
      000F9D 00                    5859 	.db	0
      000F9E 05                    5860 	.uleb128	5
      000F9F 02                    5861 	.db	2
      000FA0 00 00r0Ar79           5862 	.dw	0,(Sstm8s_tim2$TI3_Config$994)
      000FA4 03                    5863 	.db	3
      000FA5 7C                    5864 	.sleb128	-4
      000FA6 01                    5865 	.db	1
      000FA7 00                    5866 	.db	0
      000FA8 05                    5867 	.uleb128	5
      000FA9 02                    5868 	.db	2
      000FAA 00 00r0Ar7C           5869 	.dw	0,(Sstm8s_tim2$TI3_Config$995)
      000FAE 03                    5870 	.db	3
      000FAF 08                    5871 	.sleb128	8
      000FB0 01                    5872 	.db	1
      000FB1 00                    5873 	.db	0
      000FB2 05                    5874 	.uleb128	5
      000FB3 02                    5875 	.db	2
      000FB4 00 00r0Ar80           5876 	.dw	0,(Sstm8s_tim2$TI3_Config$997)
      000FB8 03                    5877 	.db	3
      000FB9 02                    5878 	.sleb128	2
      000FBA 01                    5879 	.db	1
      000FBB 00                    5880 	.db	0
      000FBC 05                    5881 	.uleb128	5
      000FBD 02                    5882 	.db	2
      000FBE 00 00r0Ar87           5883 	.dw	0,(Sstm8s_tim2$TI3_Config$1000)
      000FC2 03                    5884 	.db	3
      000FC3 04                    5885 	.sleb128	4
      000FC4 01                    5886 	.db	1
      000FC5 00                    5887 	.db	0
      000FC6 05                    5888 	.uleb128	5
      000FC7 02                    5889 	.db	2
      000FC8 00 00r0Ar8C           5890 	.dw	0,(Sstm8s_tim2$TI3_Config$1002)
      000FCC 03                    5891 	.db	3
      000FCD 03                    5892 	.sleb128	3
      000FCE 01                    5893 	.db	1
      000FCF 00                    5894 	.db	0
      000FD0 05                    5895 	.uleb128	5
      000FD1 02                    5896 	.db	2
      000FD2 00 00r0Ar94           5897 	.dw	0,(Sstm8s_tim2$TI3_Config$1003)
      000FD6 03                    5898 	.db	3
      000FD7 01                    5899 	.sleb128	1
      000FD8 01                    5900 	.db	1
      000FD9                       5901 Ldebug_line_end:
                                   5902 
                                   5903 	.area .debug_loc (NOLOAD)
      000000                       5904 Ldebug_loc_start:
      000000 00 00r09rE6           5905 	.dw	0,(Sstm8s_tim2$TIM2_ClearITPendingBit$947)
      000004 00 00r09rEB           5906 	.dw	0,(Sstm8s_tim2$TIM2_ClearITPendingBit$951)
      000008 00 02                 5907 	.dw	2
      00000A 78                    5908 	.db	120
      00000B 01                    5909 	.sleb128	1
      00000C 00 00r09rE5           5910 	.dw	0,(Sstm8s_tim2$TIM2_ClearITPendingBit$946)
      000010 00 00r09rE6           5911 	.dw	0,(Sstm8s_tim2$TIM2_ClearITPendingBit$947)
      000014 00 02                 5912 	.dw	2
      000016 78                    5913 	.db	120
      000017 02                    5914 	.sleb128	2
      000018 00 00r09rDF           5915 	.dw	0,(Sstm8s_tim2$TIM2_ClearITPendingBit$945)
      00001C 00 00r09rE5           5916 	.dw	0,(Sstm8s_tim2$TIM2_ClearITPendingBit$946)
      000020 00 02                 5917 	.dw	2
      000022 78                    5918 	.db	120
      000023 06                    5919 	.sleb128	6
      000024 00 00r09rDD           5920 	.dw	0,(Sstm8s_tim2$TIM2_ClearITPendingBit$944)
      000028 00 00r09rDF           5921 	.dw	0,(Sstm8s_tim2$TIM2_ClearITPendingBit$945)
      00002C 00 02                 5922 	.dw	2
      00002E 78                    5923 	.db	120
      00002F 04                    5924 	.sleb128	4
      000030 00 00r09rDB           5925 	.dw	0,(Sstm8s_tim2$TIM2_ClearITPendingBit$943)
      000034 00 00r09rDD           5926 	.dw	0,(Sstm8s_tim2$TIM2_ClearITPendingBit$944)
      000038 00 02                 5927 	.dw	2
      00003A 78                    5928 	.db	120
      00003B 03                    5929 	.sleb128	3
      00003C 00 00r09rD9           5930 	.dw	0,(Sstm8s_tim2$TIM2_ClearITPendingBit$942)
      000040 00 00r09rDB           5931 	.dw	0,(Sstm8s_tim2$TIM2_ClearITPendingBit$943)
      000044 00 02                 5932 	.dw	2
      000046 78                    5933 	.db	120
      000047 02                    5934 	.sleb128	2
      000048 00 00r09rD1           5935 	.dw	0,(Sstm8s_tim2$TIM2_ClearITPendingBit$940)
      00004C 00 00r09rD9           5936 	.dw	0,(Sstm8s_tim2$TIM2_ClearITPendingBit$942)
      000050 00 02                 5937 	.dw	2
      000052 78                    5938 	.db	120
      000053 01                    5939 	.sleb128	1
      000054 00 00 00 00           5940 	.dw	0,0
      000058 00 00 00 00           5941 	.dw	0,0
      00005C 00 00r09rD0           5942 	.dw	0,(Sstm8s_tim2$TIM2_GetITStatus$936)
      000060 00 00r09rD1           5943 	.dw	0,(Sstm8s_tim2$TIM2_GetITStatus$938)
      000064 00 02                 5944 	.dw	2
      000066 78                    5945 	.db	120
      000067 01                    5946 	.sleb128	1
      000068 00 00r09rB8           5947 	.dw	0,(Sstm8s_tim2$TIM2_GetITStatus$924)
      00006C 00 00r09rD0           5948 	.dw	0,(Sstm8s_tim2$TIM2_GetITStatus$936)
      000070 00 02                 5949 	.dw	2
      000072 78                    5950 	.db	120
      000073 03                    5951 	.sleb128	3
      000074 00 00r09rB2           5952 	.dw	0,(Sstm8s_tim2$TIM2_GetITStatus$923)
      000078 00 00r09rB8           5953 	.dw	0,(Sstm8s_tim2$TIM2_GetITStatus$924)
      00007C 00 02                 5954 	.dw	2
      00007E 78                    5955 	.db	120
      00007F 07                    5956 	.sleb128	7
      000080 00 00r09rB0           5957 	.dw	0,(Sstm8s_tim2$TIM2_GetITStatus$922)
      000084 00 00r09rB2           5958 	.dw	0,(Sstm8s_tim2$TIM2_GetITStatus$923)
      000088 00 02                 5959 	.dw	2
      00008A 78                    5960 	.db	120
      00008B 05                    5961 	.sleb128	5
      00008C 00 00r09rAE           5962 	.dw	0,(Sstm8s_tim2$TIM2_GetITStatus$921)
      000090 00 00r09rB0           5963 	.dw	0,(Sstm8s_tim2$TIM2_GetITStatus$922)
      000094 00 02                 5964 	.dw	2
      000096 78                    5965 	.db	120
      000097 04                    5966 	.sleb128	4
      000098 00 00r09rAC           5967 	.dw	0,(Sstm8s_tim2$TIM2_GetITStatus$920)
      00009C 00 00r09rAE           5968 	.dw	0,(Sstm8s_tim2$TIM2_GetITStatus$921)
      0000A0 00 02                 5969 	.dw	2
      0000A2 78                    5970 	.db	120
      0000A3 03                    5971 	.sleb128	3
      0000A4 00 00r09rA6           5972 	.dw	0,(Sstm8s_tim2$TIM2_GetITStatus$919)
      0000A8 00 00r09rAC           5973 	.dw	0,(Sstm8s_tim2$TIM2_GetITStatus$920)
      0000AC 00 02                 5974 	.dw	2
      0000AE 78                    5975 	.db	120
      0000AF 03                    5976 	.sleb128	3
      0000B0 00 00r09rA0           5977 	.dw	0,(Sstm8s_tim2$TIM2_GetITStatus$918)
      0000B4 00 00r09rA6           5978 	.dw	0,(Sstm8s_tim2$TIM2_GetITStatus$919)
      0000B8 00 02                 5979 	.dw	2
      0000BA 78                    5980 	.db	120
      0000BB 03                    5981 	.sleb128	3
      0000BC 00 00r09r9A           5982 	.dw	0,(Sstm8s_tim2$TIM2_GetITStatus$917)
      0000C0 00 00r09rA0           5983 	.dw	0,(Sstm8s_tim2$TIM2_GetITStatus$918)
      0000C4 00 02                 5984 	.dw	2
      0000C6 78                    5985 	.db	120
      0000C7 03                    5986 	.sleb128	3
      0000C8 00 00r09r95           5987 	.dw	0,(Sstm8s_tim2$TIM2_GetITStatus$915)
      0000CC 00 00r09r9A           5988 	.dw	0,(Sstm8s_tim2$TIM2_GetITStatus$917)
      0000D0 00 02                 5989 	.dw	2
      0000D2 78                    5990 	.db	120
      0000D3 03                    5991 	.sleb128	3
      0000D4 00 00r09r94           5992 	.dw	0,(Sstm8s_tim2$TIM2_GetITStatus$914)
      0000D8 00 00r09r95           5993 	.dw	0,(Sstm8s_tim2$TIM2_GetITStatus$915)
      0000DC 00 02                 5994 	.dw	2
      0000DE 78                    5995 	.db	120
      0000DF 01                    5996 	.sleb128	1
      0000E0 00 00 00 00           5997 	.dw	0,0
      0000E4 00 00 00 00           5998 	.dw	0,0
      0000E8 00 00r09r93           5999 	.dw	0,(Sstm8s_tim2$TIM2_ClearFlag$910)
      0000EC 00 00r09r94           6000 	.dw	0,(Sstm8s_tim2$TIM2_ClearFlag$912)
      0000F0 00 02                 6001 	.dw	2
      0000F2 78                    6002 	.db	120
      0000F3 01                    6003 	.sleb128	1
      0000F4 00 00r09r88           6004 	.dw	0,(Sstm8s_tim2$TIM2_ClearFlag$906)
      0000F8 00 00r09r93           6005 	.dw	0,(Sstm8s_tim2$TIM2_ClearFlag$910)
      0000FC 00 02                 6006 	.dw	2
      0000FE 78                    6007 	.db	120
      0000FF 03                    6008 	.sleb128	3
      000100 00 00r09r82           6009 	.dw	0,(Sstm8s_tim2$TIM2_ClearFlag$905)
      000104 00 00r09r88           6010 	.dw	0,(Sstm8s_tim2$TIM2_ClearFlag$906)
      000108 00 02                 6011 	.dw	2
      00010A 78                    6012 	.db	120
      00010B 07                    6013 	.sleb128	7
      00010C 00 00r09r80           6014 	.dw	0,(Sstm8s_tim2$TIM2_ClearFlag$904)
      000110 00 00r09r82           6015 	.dw	0,(Sstm8s_tim2$TIM2_ClearFlag$905)
      000114 00 02                 6016 	.dw	2
      000116 78                    6017 	.db	120
      000117 05                    6018 	.sleb128	5
      000118 00 00r09r7E           6019 	.dw	0,(Sstm8s_tim2$TIM2_ClearFlag$903)
      00011C 00 00r09r80           6020 	.dw	0,(Sstm8s_tim2$TIM2_ClearFlag$904)
      000120 00 02                 6021 	.dw	2
      000122 78                    6022 	.db	120
      000123 04                    6023 	.sleb128	4
      000124 00 00r09r69           6024 	.dw	0,(Sstm8s_tim2$TIM2_ClearFlag$901)
      000128 00 00r09r7E           6025 	.dw	0,(Sstm8s_tim2$TIM2_ClearFlag$903)
      00012C 00 02                 6026 	.dw	2
      00012E 78                    6027 	.db	120
      00012F 03                    6028 	.sleb128	3
      000130 00 00r09r68           6029 	.dw	0,(Sstm8s_tim2$TIM2_ClearFlag$900)
      000134 00 00r09r69           6030 	.dw	0,(Sstm8s_tim2$TIM2_ClearFlag$901)
      000138 00 02                 6031 	.dw	2
      00013A 78                    6032 	.db	120
      00013B 01                    6033 	.sleb128	1
      00013C 00 00 00 00           6034 	.dw	0,0
      000140 00 00 00 00           6035 	.dw	0,0
      000144 00 00r09r67           6036 	.dw	0,(Sstm8s_tim2$TIM2_GetFlagStatus$896)
      000148 00 00r09r68           6037 	.dw	0,(Sstm8s_tim2$TIM2_GetFlagStatus$898)
      00014C 00 02                 6038 	.dw	2
      00014E 78                    6039 	.db	120
      00014F 01                    6040 	.sleb128	1
      000150 00 00r09r5D           6041 	.dw	0,(Sstm8s_tim2$TIM2_GetFlagStatus$887)
      000154 00 00r09r67           6042 	.dw	0,(Sstm8s_tim2$TIM2_GetFlagStatus$896)
      000158 00 02                 6043 	.dw	2
      00015A 78                    6044 	.db	120
      00015B 04                    6045 	.sleb128	4
      00015C 00 00r09r5A           6046 	.dw	0,(Sstm8s_tim2$TIM2_GetFlagStatus$886)
      000160 00 00r09r5D           6047 	.dw	0,(Sstm8s_tim2$TIM2_GetFlagStatus$887)
      000164 00 02                 6048 	.dw	2
      000166 78                    6049 	.db	120
      000167 06                    6050 	.sleb128	6
      000168 00 00r09r4B           6051 	.dw	0,(Sstm8s_tim2$TIM2_GetFlagStatus$882)
      00016C 00 00r09r5A           6052 	.dw	0,(Sstm8s_tim2$TIM2_GetFlagStatus$886)
      000170 00 02                 6053 	.dw	2
      000172 78                    6054 	.db	120
      000173 04                    6055 	.sleb128	4
      000174 00 00r09r4A           6056 	.dw	0,(Sstm8s_tim2$TIM2_GetFlagStatus$881)
      000178 00 00r09r4B           6057 	.dw	0,(Sstm8s_tim2$TIM2_GetFlagStatus$882)
      00017C 00 02                 6058 	.dw	2
      00017E 78                    6059 	.db	120
      00017F 06                    6060 	.sleb128	6
      000180 00 00r09r44           6061 	.dw	0,(Sstm8s_tim2$TIM2_GetFlagStatus$880)
      000184 00 00r09r4A           6062 	.dw	0,(Sstm8s_tim2$TIM2_GetFlagStatus$881)
      000188 00 02                 6063 	.dw	2
      00018A 78                    6064 	.db	120
      00018B 0A                    6065 	.sleb128	10
      00018C 00 00r09r42           6066 	.dw	0,(Sstm8s_tim2$TIM2_GetFlagStatus$879)
      000190 00 00r09r44           6067 	.dw	0,(Sstm8s_tim2$TIM2_GetFlagStatus$880)
      000194 00 02                 6068 	.dw	2
      000196 78                    6069 	.db	120
      000197 09                    6070 	.sleb128	9
      000198 00 00r09r40           6071 	.dw	0,(Sstm8s_tim2$TIM2_GetFlagStatus$878)
      00019C 00 00r09r42           6072 	.dw	0,(Sstm8s_tim2$TIM2_GetFlagStatus$879)
      0001A0 00 02                 6073 	.dw	2
      0001A2 78                    6074 	.db	120
      0001A3 08                    6075 	.sleb128	8
      0001A4 00 00r09r3E           6076 	.dw	0,(Sstm8s_tim2$TIM2_GetFlagStatus$877)
      0001A8 00 00r09r40           6077 	.dw	0,(Sstm8s_tim2$TIM2_GetFlagStatus$878)
      0001AC 00 02                 6078 	.dw	2
      0001AE 78                    6079 	.db	120
      0001AF 07                    6080 	.sleb128	7
      0001B0 00 00r09r3C           6081 	.dw	0,(Sstm8s_tim2$TIM2_GetFlagStatus$876)
      0001B4 00 00r09r3E           6082 	.dw	0,(Sstm8s_tim2$TIM2_GetFlagStatus$877)
      0001B8 00 02                 6083 	.dw	2
      0001BA 78                    6084 	.db	120
      0001BB 06                    6085 	.sleb128	6
      0001BC 00 00r09r3B           6086 	.dw	0,(Sstm8s_tim2$TIM2_GetFlagStatus$875)
      0001C0 00 00r09r3C           6087 	.dw	0,(Sstm8s_tim2$TIM2_GetFlagStatus$876)
      0001C4 00 02                 6088 	.dw	2
      0001C6 78                    6089 	.db	120
      0001C7 04                    6090 	.sleb128	4
      0001C8 00 00r09r36           6091 	.dw	0,(Sstm8s_tim2$TIM2_GetFlagStatus$874)
      0001CC 00 00r09r3B           6092 	.dw	0,(Sstm8s_tim2$TIM2_GetFlagStatus$875)
      0001D0 00 02                 6093 	.dw	2
      0001D2 78                    6094 	.db	120
      0001D3 04                    6095 	.sleb128	4
      0001D4 00 00r09r31           6096 	.dw	0,(Sstm8s_tim2$TIM2_GetFlagStatus$873)
      0001D8 00 00r09r36           6097 	.dw	0,(Sstm8s_tim2$TIM2_GetFlagStatus$874)
      0001DC 00 02                 6098 	.dw	2
      0001DE 78                    6099 	.db	120
      0001DF 04                    6100 	.sleb128	4
      0001E0 00 00r09r2C           6101 	.dw	0,(Sstm8s_tim2$TIM2_GetFlagStatus$872)
      0001E4 00 00r09r31           6102 	.dw	0,(Sstm8s_tim2$TIM2_GetFlagStatus$873)
      0001E8 00 02                 6103 	.dw	2
      0001EA 78                    6104 	.db	120
      0001EB 04                    6105 	.sleb128	4
      0001EC 00 00r09r27           6106 	.dw	0,(Sstm8s_tim2$TIM2_GetFlagStatus$871)
      0001F0 00 00r09r2C           6107 	.dw	0,(Sstm8s_tim2$TIM2_GetFlagStatus$872)
      0001F4 00 02                 6108 	.dw	2
      0001F6 78                    6109 	.db	120
      0001F7 04                    6110 	.sleb128	4
      0001F8 00 00r09r22           6111 	.dw	0,(Sstm8s_tim2$TIM2_GetFlagStatus$870)
      0001FC 00 00r09r27           6112 	.dw	0,(Sstm8s_tim2$TIM2_GetFlagStatus$871)
      000200 00 02                 6113 	.dw	2
      000202 78                    6114 	.db	120
      000203 04                    6115 	.sleb128	4
      000204 00 00r09r1D           6116 	.dw	0,(Sstm8s_tim2$TIM2_GetFlagStatus$869)
      000208 00 00r09r22           6117 	.dw	0,(Sstm8s_tim2$TIM2_GetFlagStatus$870)
      00020C 00 02                 6118 	.dw	2
      00020E 78                    6119 	.db	120
      00020F 04                    6120 	.sleb128	4
      000210 00 00r09r16           6121 	.dw	0,(Sstm8s_tim2$TIM2_GetFlagStatus$867)
      000214 00 00r09r1D           6122 	.dw	0,(Sstm8s_tim2$TIM2_GetFlagStatus$869)
      000218 00 02                 6123 	.dw	2
      00021A 78                    6124 	.db	120
      00021B 04                    6125 	.sleb128	4
      00021C 00 00r09r14           6126 	.dw	0,(Sstm8s_tim2$TIM2_GetFlagStatus$866)
      000220 00 00r09r16           6127 	.dw	0,(Sstm8s_tim2$TIM2_GetFlagStatus$867)
      000224 00 02                 6128 	.dw	2
      000226 78                    6129 	.db	120
      000227 01                    6130 	.sleb128	1
      000228 00 00 00 00           6131 	.dw	0,0
      00022C 00 00 00 00           6132 	.dw	0,0
      000230 00 00r09r10           6133 	.dw	0,(Sstm8s_tim2$TIM2_GetPrescaler$860)
      000234 00 00r09r14           6134 	.dw	0,(Sstm8s_tim2$TIM2_GetPrescaler$864)
      000238 00 02                 6135 	.dw	2
      00023A 78                    6136 	.db	120
      00023B 01                    6137 	.sleb128	1
      00023C 00 00 00 00           6138 	.dw	0,0
      000240 00 00 00 00           6139 	.dw	0,0
      000244 00 00r09r0F           6140 	.dw	0,(Sstm8s_tim2$TIM2_GetCounter$856)
      000248 00 00r09r10           6141 	.dw	0,(Sstm8s_tim2$TIM2_GetCounter$858)
      00024C 00 02                 6142 	.dw	2
      00024E 78                    6143 	.db	120
      00024F 01                    6144 	.sleb128	1
      000250 00 00r08rFC           6145 	.dw	0,(Sstm8s_tim2$TIM2_GetCounter$852)
      000254 00 00r09r0F           6146 	.dw	0,(Sstm8s_tim2$TIM2_GetCounter$856)
      000258 00 02                 6147 	.dw	2
      00025A 78                    6148 	.db	120
      00025B 05                    6149 	.sleb128	5
      00025C 00 00r08rFA           6150 	.dw	0,(Sstm8s_tim2$TIM2_GetCounter$851)
      000260 00 00r08rFC           6151 	.dw	0,(Sstm8s_tim2$TIM2_GetCounter$852)
      000264 00 02                 6152 	.dw	2
      000266 78                    6153 	.db	120
      000267 01                    6154 	.sleb128	1
      000268 00 00 00 00           6155 	.dw	0,0
      00026C 00 00 00 00           6156 	.dw	0,0
      000270 00 00r08rF9           6157 	.dw	0,(Sstm8s_tim2$TIM2_GetCapture3$847)
      000274 00 00r08rFA           6158 	.dw	0,(Sstm8s_tim2$TIM2_GetCapture3$849)
      000278 00 02                 6159 	.dw	2
      00027A 78                    6160 	.db	120
      00027B 01                    6161 	.sleb128	1
      00027C 00 00r08rE6           6162 	.dw	0,(Sstm8s_tim2$TIM2_GetCapture3$840)
      000280 00 00r08rF9           6163 	.dw	0,(Sstm8s_tim2$TIM2_GetCapture3$847)
      000284 00 02                 6164 	.dw	2
      000286 78                    6165 	.db	120
      000287 03                    6166 	.sleb128	3
      000288 00 00r08rE5           6167 	.dw	0,(Sstm8s_tim2$TIM2_GetCapture3$839)
      00028C 00 00r08rE6           6168 	.dw	0,(Sstm8s_tim2$TIM2_GetCapture3$840)
      000290 00 02                 6169 	.dw	2
      000292 78                    6170 	.db	120
      000293 01                    6171 	.sleb128	1
      000294 00 00 00 00           6172 	.dw	0,0
      000298 00 00 00 00           6173 	.dw	0,0
      00029C 00 00r08rE4           6174 	.dw	0,(Sstm8s_tim2$TIM2_GetCapture2$835)
      0002A0 00 00r08rE5           6175 	.dw	0,(Sstm8s_tim2$TIM2_GetCapture2$837)
      0002A4 00 02                 6176 	.dw	2
      0002A6 78                    6177 	.db	120
      0002A7 01                    6178 	.sleb128	1
      0002A8 00 00r08rD1           6179 	.dw	0,(Sstm8s_tim2$TIM2_GetCapture2$828)
      0002AC 00 00r08rE4           6180 	.dw	0,(Sstm8s_tim2$TIM2_GetCapture2$835)
      0002B0 00 02                 6181 	.dw	2
      0002B2 78                    6182 	.db	120
      0002B3 03                    6183 	.sleb128	3
      0002B4 00 00r08rD0           6184 	.dw	0,(Sstm8s_tim2$TIM2_GetCapture2$827)
      0002B8 00 00r08rD1           6185 	.dw	0,(Sstm8s_tim2$TIM2_GetCapture2$828)
      0002BC 00 02                 6186 	.dw	2
      0002BE 78                    6187 	.db	120
      0002BF 01                    6188 	.sleb128	1
      0002C0 00 00 00 00           6189 	.dw	0,0
      0002C4 00 00 00 00           6190 	.dw	0,0
      0002C8 00 00r08rCF           6191 	.dw	0,(Sstm8s_tim2$TIM2_GetCapture1$823)
      0002CC 00 00r08rD0           6192 	.dw	0,(Sstm8s_tim2$TIM2_GetCapture1$825)
      0002D0 00 02                 6193 	.dw	2
      0002D2 78                    6194 	.db	120
      0002D3 01                    6195 	.sleb128	1
      0002D4 00 00r08rBC           6196 	.dw	0,(Sstm8s_tim2$TIM2_GetCapture1$816)
      0002D8 00 00r08rCF           6197 	.dw	0,(Sstm8s_tim2$TIM2_GetCapture1$823)
      0002DC 00 02                 6198 	.dw	2
      0002DE 78                    6199 	.db	120
      0002DF 03                    6200 	.sleb128	3
      0002E0 00 00r08rBB           6201 	.dw	0,(Sstm8s_tim2$TIM2_GetCapture1$815)
      0002E4 00 00r08rBC           6202 	.dw	0,(Sstm8s_tim2$TIM2_GetCapture1$816)
      0002E8 00 02                 6203 	.dw	2
      0002EA 78                    6204 	.db	120
      0002EB 01                    6205 	.sleb128	1
      0002EC 00 00 00 00           6206 	.dw	0,0
      0002F0 00 00 00 00           6207 	.dw	0,0
      0002F4 00 00r08rBA           6208 	.dw	0,(Sstm8s_tim2$TIM2_SetIC3Prescaler$811)
      0002F8 00 00r08rBB           6209 	.dw	0,(Sstm8s_tim2$TIM2_SetIC3Prescaler$813)
      0002FC 00 02                 6210 	.dw	2
      0002FE 78                    6211 	.db	120
      0002FF 01                    6212 	.sleb128	1
      000300 00 00r08rAF           6213 	.dw	0,(Sstm8s_tim2$TIM2_SetIC3Prescaler$807)
      000304 00 00r08rBA           6214 	.dw	0,(Sstm8s_tim2$TIM2_SetIC3Prescaler$811)
      000308 00 02                 6215 	.dw	2
      00030A 78                    6216 	.db	120
      00030B 02                    6217 	.sleb128	2
      00030C 00 00r08rA9           6218 	.dw	0,(Sstm8s_tim2$TIM2_SetIC3Prescaler$806)
      000310 00 00r08rAF           6219 	.dw	0,(Sstm8s_tim2$TIM2_SetIC3Prescaler$807)
      000314 00 02                 6220 	.dw	2
      000316 78                    6221 	.db	120
      000317 06                    6222 	.sleb128	6
      000318 00 00r08rA7           6223 	.dw	0,(Sstm8s_tim2$TIM2_SetIC3Prescaler$805)
      00031C 00 00r08rA9           6224 	.dw	0,(Sstm8s_tim2$TIM2_SetIC3Prescaler$806)
      000320 00 02                 6225 	.dw	2
      000322 78                    6226 	.db	120
      000323 04                    6227 	.sleb128	4
      000324 00 00r08rA5           6228 	.dw	0,(Sstm8s_tim2$TIM2_SetIC3Prescaler$804)
      000328 00 00r08rA7           6229 	.dw	0,(Sstm8s_tim2$TIM2_SetIC3Prescaler$805)
      00032C 00 02                 6230 	.dw	2
      00032E 78                    6231 	.db	120
      00032F 03                    6232 	.sleb128	3
      000330 00 00r08rA3           6233 	.dw	0,(Sstm8s_tim2$TIM2_SetIC3Prescaler$803)
      000334 00 00r08rA5           6234 	.dw	0,(Sstm8s_tim2$TIM2_SetIC3Prescaler$804)
      000338 00 02                 6235 	.dw	2
      00033A 78                    6236 	.db	120
      00033B 02                    6237 	.sleb128	2
      00033C 00 00r08r9D           6238 	.dw	0,(Sstm8s_tim2$TIM2_SetIC3Prescaler$802)
      000340 00 00r08rA3           6239 	.dw	0,(Sstm8s_tim2$TIM2_SetIC3Prescaler$803)
      000344 00 02                 6240 	.dw	2
      000346 78                    6241 	.db	120
      000347 02                    6242 	.sleb128	2
      000348 00 00r08r97           6243 	.dw	0,(Sstm8s_tim2$TIM2_SetIC3Prescaler$801)
      00034C 00 00r08r9D           6244 	.dw	0,(Sstm8s_tim2$TIM2_SetIC3Prescaler$802)
      000350 00 02                 6245 	.dw	2
      000352 78                    6246 	.db	120
      000353 02                    6247 	.sleb128	2
      000354 00 00r08r8D           6248 	.dw	0,(Sstm8s_tim2$TIM2_SetIC3Prescaler$799)
      000358 00 00r08r97           6249 	.dw	0,(Sstm8s_tim2$TIM2_SetIC3Prescaler$801)
      00035C 00 02                 6250 	.dw	2
      00035E 78                    6251 	.db	120
      00035F 02                    6252 	.sleb128	2
      000360 00 00r08r8C           6253 	.dw	0,(Sstm8s_tim2$TIM2_SetIC3Prescaler$798)
      000364 00 00r08r8D           6254 	.dw	0,(Sstm8s_tim2$TIM2_SetIC3Prescaler$799)
      000368 00 02                 6255 	.dw	2
      00036A 78                    6256 	.db	120
      00036B 01                    6257 	.sleb128	1
      00036C 00 00 00 00           6258 	.dw	0,0
      000370 00 00 00 00           6259 	.dw	0,0
      000374 00 00r08r8B           6260 	.dw	0,(Sstm8s_tim2$TIM2_SetIC2Prescaler$794)
      000378 00 00r08r8C           6261 	.dw	0,(Sstm8s_tim2$TIM2_SetIC2Prescaler$796)
      00037C 00 02                 6262 	.dw	2
      00037E 78                    6263 	.db	120
      00037F 01                    6264 	.sleb128	1
      000380 00 00r08r80           6265 	.dw	0,(Sstm8s_tim2$TIM2_SetIC2Prescaler$790)
      000384 00 00r08r8B           6266 	.dw	0,(Sstm8s_tim2$TIM2_SetIC2Prescaler$794)
      000388 00 02                 6267 	.dw	2
      00038A 78                    6268 	.db	120
      00038B 02                    6269 	.sleb128	2
      00038C 00 00r08r7A           6270 	.dw	0,(Sstm8s_tim2$TIM2_SetIC2Prescaler$789)
      000390 00 00r08r80           6271 	.dw	0,(Sstm8s_tim2$TIM2_SetIC2Prescaler$790)
      000394 00 02                 6272 	.dw	2
      000396 78                    6273 	.db	120
      000397 06                    6274 	.sleb128	6
      000398 00 00r08r78           6275 	.dw	0,(Sstm8s_tim2$TIM2_SetIC2Prescaler$788)
      00039C 00 00r08r7A           6276 	.dw	0,(Sstm8s_tim2$TIM2_SetIC2Prescaler$789)
      0003A0 00 02                 6277 	.dw	2
      0003A2 78                    6278 	.db	120
      0003A3 04                    6279 	.sleb128	4
      0003A4 00 00r08r76           6280 	.dw	0,(Sstm8s_tim2$TIM2_SetIC2Prescaler$787)
      0003A8 00 00r08r78           6281 	.dw	0,(Sstm8s_tim2$TIM2_SetIC2Prescaler$788)
      0003AC 00 02                 6282 	.dw	2
      0003AE 78                    6283 	.db	120
      0003AF 03                    6284 	.sleb128	3
      0003B0 00 00r08r74           6285 	.dw	0,(Sstm8s_tim2$TIM2_SetIC2Prescaler$786)
      0003B4 00 00r08r76           6286 	.dw	0,(Sstm8s_tim2$TIM2_SetIC2Prescaler$787)
      0003B8 00 02                 6287 	.dw	2
      0003BA 78                    6288 	.db	120
      0003BB 02                    6289 	.sleb128	2
      0003BC 00 00r08r6E           6290 	.dw	0,(Sstm8s_tim2$TIM2_SetIC2Prescaler$785)
      0003C0 00 00r08r74           6291 	.dw	0,(Sstm8s_tim2$TIM2_SetIC2Prescaler$786)
      0003C4 00 02                 6292 	.dw	2
      0003C6 78                    6293 	.db	120
      0003C7 02                    6294 	.sleb128	2
      0003C8 00 00r08r68           6295 	.dw	0,(Sstm8s_tim2$TIM2_SetIC2Prescaler$784)
      0003CC 00 00r08r6E           6296 	.dw	0,(Sstm8s_tim2$TIM2_SetIC2Prescaler$785)
      0003D0 00 02                 6297 	.dw	2
      0003D2 78                    6298 	.db	120
      0003D3 02                    6299 	.sleb128	2
      0003D4 00 00r08r5E           6300 	.dw	0,(Sstm8s_tim2$TIM2_SetIC2Prescaler$782)
      0003D8 00 00r08r68           6301 	.dw	0,(Sstm8s_tim2$TIM2_SetIC2Prescaler$784)
      0003DC 00 02                 6302 	.dw	2
      0003DE 78                    6303 	.db	120
      0003DF 02                    6304 	.sleb128	2
      0003E0 00 00r08r5D           6305 	.dw	0,(Sstm8s_tim2$TIM2_SetIC2Prescaler$781)
      0003E4 00 00r08r5E           6306 	.dw	0,(Sstm8s_tim2$TIM2_SetIC2Prescaler$782)
      0003E8 00 02                 6307 	.dw	2
      0003EA 78                    6308 	.db	120
      0003EB 01                    6309 	.sleb128	1
      0003EC 00 00 00 00           6310 	.dw	0,0
      0003F0 00 00 00 00           6311 	.dw	0,0
      0003F4 00 00r08r5C           6312 	.dw	0,(Sstm8s_tim2$TIM2_SetIC1Prescaler$777)
      0003F8 00 00r08r5D           6313 	.dw	0,(Sstm8s_tim2$TIM2_SetIC1Prescaler$779)
      0003FC 00 02                 6314 	.dw	2
      0003FE 78                    6315 	.db	120
      0003FF 01                    6316 	.sleb128	1
      000400 00 00r08r51           6317 	.dw	0,(Sstm8s_tim2$TIM2_SetIC1Prescaler$773)
      000404 00 00r08r5C           6318 	.dw	0,(Sstm8s_tim2$TIM2_SetIC1Prescaler$777)
      000408 00 02                 6319 	.dw	2
      00040A 78                    6320 	.db	120
      00040B 02                    6321 	.sleb128	2
      00040C 00 00r08r4B           6322 	.dw	0,(Sstm8s_tim2$TIM2_SetIC1Prescaler$772)
      000410 00 00r08r51           6323 	.dw	0,(Sstm8s_tim2$TIM2_SetIC1Prescaler$773)
      000414 00 02                 6324 	.dw	2
      000416 78                    6325 	.db	120
      000417 06                    6326 	.sleb128	6
      000418 00 00r08r49           6327 	.dw	0,(Sstm8s_tim2$TIM2_SetIC1Prescaler$771)
      00041C 00 00r08r4B           6328 	.dw	0,(Sstm8s_tim2$TIM2_SetIC1Prescaler$772)
      000420 00 02                 6329 	.dw	2
      000422 78                    6330 	.db	120
      000423 04                    6331 	.sleb128	4
      000424 00 00r08r47           6332 	.dw	0,(Sstm8s_tim2$TIM2_SetIC1Prescaler$770)
      000428 00 00r08r49           6333 	.dw	0,(Sstm8s_tim2$TIM2_SetIC1Prescaler$771)
      00042C 00 02                 6334 	.dw	2
      00042E 78                    6335 	.db	120
      00042F 03                    6336 	.sleb128	3
      000430 00 00r08r45           6337 	.dw	0,(Sstm8s_tim2$TIM2_SetIC1Prescaler$769)
      000434 00 00r08r47           6338 	.dw	0,(Sstm8s_tim2$TIM2_SetIC1Prescaler$770)
      000438 00 02                 6339 	.dw	2
      00043A 78                    6340 	.db	120
      00043B 02                    6341 	.sleb128	2
      00043C 00 00r08r3F           6342 	.dw	0,(Sstm8s_tim2$TIM2_SetIC1Prescaler$768)
      000440 00 00r08r45           6343 	.dw	0,(Sstm8s_tim2$TIM2_SetIC1Prescaler$769)
      000444 00 02                 6344 	.dw	2
      000446 78                    6345 	.db	120
      000447 02                    6346 	.sleb128	2
      000448 00 00r08r39           6347 	.dw	0,(Sstm8s_tim2$TIM2_SetIC1Prescaler$767)
      00044C 00 00r08r3F           6348 	.dw	0,(Sstm8s_tim2$TIM2_SetIC1Prescaler$768)
      000450 00 02                 6349 	.dw	2
      000452 78                    6350 	.db	120
      000453 02                    6351 	.sleb128	2
      000454 00 00r08r2F           6352 	.dw	0,(Sstm8s_tim2$TIM2_SetIC1Prescaler$765)
      000458 00 00r08r39           6353 	.dw	0,(Sstm8s_tim2$TIM2_SetIC1Prescaler$767)
      00045C 00 02                 6354 	.dw	2
      00045E 78                    6355 	.db	120
      00045F 02                    6356 	.sleb128	2
      000460 00 00r08r2E           6357 	.dw	0,(Sstm8s_tim2$TIM2_SetIC1Prescaler$764)
      000464 00 00r08r2F           6358 	.dw	0,(Sstm8s_tim2$TIM2_SetIC1Prescaler$765)
      000468 00 02                 6359 	.dw	2
      00046A 78                    6360 	.db	120
      00046B 01                    6361 	.sleb128	1
      00046C 00 00 00 00           6362 	.dw	0,0
      000470 00 00 00 00           6363 	.dw	0,0
      000474 00 00r08r25           6364 	.dw	0,(Sstm8s_tim2$TIM2_SetCompare3$757)
      000478 00 00r08r2E           6365 	.dw	0,(Sstm8s_tim2$TIM2_SetCompare3$762)
      00047C 00 02                 6366 	.dw	2
      00047E 78                    6367 	.db	120
      00047F 01                    6368 	.sleb128	1
      000480 00 00 00 00           6369 	.dw	0,0
      000484 00 00 00 00           6370 	.dw	0,0
      000488 00 00r08r1C           6371 	.dw	0,(Sstm8s_tim2$TIM2_SetCompare2$750)
      00048C 00 00r08r25           6372 	.dw	0,(Sstm8s_tim2$TIM2_SetCompare2$755)
      000490 00 02                 6373 	.dw	2
      000492 78                    6374 	.db	120
      000493 01                    6375 	.sleb128	1
      000494 00 00 00 00           6376 	.dw	0,0
      000498 00 00 00 00           6377 	.dw	0,0
      00049C 00 00r08r13           6378 	.dw	0,(Sstm8s_tim2$TIM2_SetCompare1$743)
      0004A0 00 00r08r1C           6379 	.dw	0,(Sstm8s_tim2$TIM2_SetCompare1$748)
      0004A4 00 02                 6380 	.dw	2
      0004A6 78                    6381 	.db	120
      0004A7 01                    6382 	.sleb128	1
      0004A8 00 00 00 00           6383 	.dw	0,0
      0004AC 00 00 00 00           6384 	.dw	0,0
      0004B0 00 00r08r0A           6385 	.dw	0,(Sstm8s_tim2$TIM2_SetAutoreload$736)
      0004B4 00 00r08r13           6386 	.dw	0,(Sstm8s_tim2$TIM2_SetAutoreload$741)
      0004B8 00 02                 6387 	.dw	2
      0004BA 78                    6388 	.db	120
      0004BB 01                    6389 	.sleb128	1
      0004BC 00 00 00 00           6390 	.dw	0,0
      0004C0 00 00 00 00           6391 	.dw	0,0
      0004C4 00 00r08r01           6392 	.dw	0,(Sstm8s_tim2$TIM2_SetCounter$729)
      0004C8 00 00r08r0A           6393 	.dw	0,(Sstm8s_tim2$TIM2_SetCounter$734)
      0004CC 00 02                 6394 	.dw	2
      0004CE 78                    6395 	.db	120
      0004CF 01                    6396 	.sleb128	1
      0004D0 00 00r08r00           6397 	.dw	0,(Sstm8s_tim2$TIM2_SelectOCxM$726)
      0004D4 00 00r08r01           6398 	.dw	0,(Sstm8s_tim2$TIM2_SelectOCxM$727)
      0004D8 00 02                 6399 	.dw	2
      0004DA 78                    6400 	.db	120
      0004DB 7E                    6401 	.sleb128	-2
      0004DC 00 00r07rFF           6402 	.dw	0,(Sstm8s_tim2$TIM2_SelectOCxM$725)
      0004E0 00 00r08r00           6403 	.dw	0,(Sstm8s_tim2$TIM2_SelectOCxM$726)
      0004E4 00 02                 6404 	.dw	2
      0004E6 78                    6405 	.db	120
      0004E7 7F                    6406 	.sleb128	-1
      0004E8 00 00r07rFE           6407 	.dw	0,(Sstm8s_tim2$TIM2_SelectOCxM$724)
      0004EC 00 00r07rFF           6408 	.dw	0,(Sstm8s_tim2$TIM2_SelectOCxM$725)
      0004F0 00 02                 6409 	.dw	2
      0004F2 78                    6410 	.db	120
      0004F3 01                    6411 	.sleb128	1
      0004F4 00 00r07rC7           6412 	.dw	0,(Sstm8s_tim2$TIM2_SelectOCxM$705)
      0004F8 00 00r07rFE           6413 	.dw	0,(Sstm8s_tim2$TIM2_SelectOCxM$724)
      0004FC 00 02                 6414 	.dw	2
      0004FE 78                    6415 	.db	120
      0004FF 03                    6416 	.sleb128	3
      000500 00 00r07rC1           6417 	.dw	0,(Sstm8s_tim2$TIM2_SelectOCxM$704)
      000504 00 00r07rC7           6418 	.dw	0,(Sstm8s_tim2$TIM2_SelectOCxM$705)
      000508 00 02                 6419 	.dw	2
      00050A 78                    6420 	.db	120
      00050B 07                    6421 	.sleb128	7
      00050C 00 00r07rBF           6422 	.dw	0,(Sstm8s_tim2$TIM2_SelectOCxM$703)
      000510 00 00r07rC1           6423 	.dw	0,(Sstm8s_tim2$TIM2_SelectOCxM$704)
      000514 00 02                 6424 	.dw	2
      000516 78                    6425 	.db	120
      000517 05                    6426 	.sleb128	5
      000518 00 00r07rBD           6427 	.dw	0,(Sstm8s_tim2$TIM2_SelectOCxM$702)
      00051C 00 00r07rBF           6428 	.dw	0,(Sstm8s_tim2$TIM2_SelectOCxM$703)
      000520 00 02                 6429 	.dw	2
      000522 78                    6430 	.db	120
      000523 04                    6431 	.sleb128	4
      000524 00 00r07rBB           6432 	.dw	0,(Sstm8s_tim2$TIM2_SelectOCxM$701)
      000528 00 00r07rBD           6433 	.dw	0,(Sstm8s_tim2$TIM2_SelectOCxM$702)
      00052C 00 02                 6434 	.dw	2
      00052E 78                    6435 	.db	120
      00052F 03                    6436 	.sleb128	3
      000530 00 00r07rB5           6437 	.dw	0,(Sstm8s_tim2$TIM2_SelectOCxM$700)
      000534 00 00r07rBB           6438 	.dw	0,(Sstm8s_tim2$TIM2_SelectOCxM$701)
      000538 00 02                 6439 	.dw	2
      00053A 78                    6440 	.db	120
      00053B 03                    6441 	.sleb128	3
      00053C 00 00r07rAF           6442 	.dw	0,(Sstm8s_tim2$TIM2_SelectOCxM$699)
      000540 00 00r07rB5           6443 	.dw	0,(Sstm8s_tim2$TIM2_SelectOCxM$700)
      000544 00 02                 6444 	.dw	2
      000546 78                    6445 	.db	120
      000547 03                    6446 	.sleb128	3
      000548 00 00r07rA9           6447 	.dw	0,(Sstm8s_tim2$TIM2_SelectOCxM$698)
      00054C 00 00r07rAF           6448 	.dw	0,(Sstm8s_tim2$TIM2_SelectOCxM$699)
      000550 00 02                 6449 	.dw	2
      000552 78                    6450 	.db	120
      000553 03                    6451 	.sleb128	3
      000554 00 00r07rA3           6452 	.dw	0,(Sstm8s_tim2$TIM2_SelectOCxM$697)
      000558 00 00r07rA9           6453 	.dw	0,(Sstm8s_tim2$TIM2_SelectOCxM$698)
      00055C 00 02                 6454 	.dw	2
      00055E 78                    6455 	.db	120
      00055F 03                    6456 	.sleb128	3
      000560 00 00r07r9D           6457 	.dw	0,(Sstm8s_tim2$TIM2_SelectOCxM$696)
      000564 00 00r07rA3           6458 	.dw	0,(Sstm8s_tim2$TIM2_SelectOCxM$697)
      000568 00 02                 6459 	.dw	2
      00056A 78                    6460 	.db	120
      00056B 03                    6461 	.sleb128	3
      00056C 00 00r07r97           6462 	.dw	0,(Sstm8s_tim2$TIM2_SelectOCxM$695)
      000570 00 00r07r9D           6463 	.dw	0,(Sstm8s_tim2$TIM2_SelectOCxM$696)
      000574 00 02                 6464 	.dw	2
      000576 78                    6465 	.db	120
      000577 03                    6466 	.sleb128	3
      000578 00 00r07r8D           6467 	.dw	0,(Sstm8s_tim2$TIM2_SelectOCxM$693)
      00057C 00 00r07r97           6468 	.dw	0,(Sstm8s_tim2$TIM2_SelectOCxM$695)
      000580 00 02                 6469 	.dw	2
      000582 78                    6470 	.db	120
      000583 03                    6471 	.sleb128	3
      000584 00 00r07r87           6472 	.dw	0,(Sstm8s_tim2$TIM2_SelectOCxM$692)
      000588 00 00r07r8D           6473 	.dw	0,(Sstm8s_tim2$TIM2_SelectOCxM$693)
      00058C 00 02                 6474 	.dw	2
      00058E 78                    6475 	.db	120
      00058F 07                    6476 	.sleb128	7
      000590 00 00r07r85           6477 	.dw	0,(Sstm8s_tim2$TIM2_SelectOCxM$691)
      000594 00 00r07r87           6478 	.dw	0,(Sstm8s_tim2$TIM2_SelectOCxM$692)
      000598 00 02                 6479 	.dw	2
      00059A 78                    6480 	.db	120
      00059B 05                    6481 	.sleb128	5
      00059C 00 00r07r83           6482 	.dw	0,(Sstm8s_tim2$TIM2_SelectOCxM$690)
      0005A0 00 00r07r85           6483 	.dw	0,(Sstm8s_tim2$TIM2_SelectOCxM$691)
      0005A4 00 02                 6484 	.dw	2
      0005A6 78                    6485 	.db	120
      0005A7 04                    6486 	.sleb128	4
      0005A8 00 00r07r81           6487 	.dw	0,(Sstm8s_tim2$TIM2_SelectOCxM$689)
      0005AC 00 00r07r83           6488 	.dw	0,(Sstm8s_tim2$TIM2_SelectOCxM$690)
      0005B0 00 02                 6489 	.dw	2
      0005B2 78                    6490 	.db	120
      0005B3 03                    6491 	.sleb128	3
      0005B4 00 00r07r73           6492 	.dw	0,(Sstm8s_tim2$TIM2_SelectOCxM$688)
      0005B8 00 00r07r81           6493 	.dw	0,(Sstm8s_tim2$TIM2_SelectOCxM$689)
      0005BC 00 02                 6494 	.dw	2
      0005BE 78                    6495 	.db	120
      0005BF 03                    6496 	.sleb128	3
      0005C0 00 00r07r67           6497 	.dw	0,(Sstm8s_tim2$TIM2_SelectOCxM$686)
      0005C4 00 00r07r73           6498 	.dw	0,(Sstm8s_tim2$TIM2_SelectOCxM$688)
      0005C8 00 02                 6499 	.dw	2
      0005CA 78                    6500 	.db	120
      0005CB 03                    6501 	.sleb128	3
      0005CC 00 00r07r66           6502 	.dw	0,(Sstm8s_tim2$TIM2_SelectOCxM$685)
      0005D0 00 00r07r67           6503 	.dw	0,(Sstm8s_tim2$TIM2_SelectOCxM$686)
      0005D4 00 02                 6504 	.dw	2
      0005D6 78                    6505 	.db	120
      0005D7 01                    6506 	.sleb128	1
      0005D8 00 00r07r65           6507 	.dw	0,(Sstm8s_tim2$TIM2_CCxCmd$682)
      0005DC 00 00r07r66           6508 	.dw	0,(Sstm8s_tim2$TIM2_CCxCmd$683)
      0005E0 00 02                 6509 	.dw	2
      0005E2 78                    6510 	.db	120
      0005E3 7E                    6511 	.sleb128	-2
      0005E4 00 00r07r64           6512 	.dw	0,(Sstm8s_tim2$TIM2_CCxCmd$681)
      0005E8 00 00r07r65           6513 	.dw	0,(Sstm8s_tim2$TIM2_CCxCmd$682)
      0005EC 00 02                 6514 	.dw	2
      0005EE 78                    6515 	.db	120
      0005EF 7F                    6516 	.sleb128	-1
      0005F0 00 00r07r63           6517 	.dw	0,(Sstm8s_tim2$TIM2_CCxCmd$680)
      0005F4 00 00r07r64           6518 	.dw	0,(Sstm8s_tim2$TIM2_CCxCmd$681)
      0005F8 00 02                 6519 	.dw	2
      0005FA 78                    6520 	.db	120
      0005FB 01                    6521 	.sleb128	1
      0005FC 00 00r07r1E           6522 	.dw	0,(Sstm8s_tim2$TIM2_CCxCmd$649)
      000600 00 00r07r63           6523 	.dw	0,(Sstm8s_tim2$TIM2_CCxCmd$680)
      000604 00 02                 6524 	.dw	2
      000606 78                    6525 	.db	120
      000607 02                    6526 	.sleb128	2
      000608 00 00r07r1D           6527 	.dw	0,(Sstm8s_tim2$TIM2_CCxCmd$648)
      00060C 00 00r07r1E           6528 	.dw	0,(Sstm8s_tim2$TIM2_CCxCmd$649)
      000610 00 02                 6529 	.dw	2
      000612 78                    6530 	.db	120
      000613 03                    6531 	.sleb128	3
      000614 00 00r07r17           6532 	.dw	0,(Sstm8s_tim2$TIM2_CCxCmd$647)
      000618 00 00r07r1D           6533 	.dw	0,(Sstm8s_tim2$TIM2_CCxCmd$648)
      00061C 00 02                 6534 	.dw	2
      00061E 78                    6535 	.db	120
      00061F 07                    6536 	.sleb128	7
      000620 00 00r07r15           6537 	.dw	0,(Sstm8s_tim2$TIM2_CCxCmd$646)
      000624 00 00r07r17           6538 	.dw	0,(Sstm8s_tim2$TIM2_CCxCmd$647)
      000628 00 02                 6539 	.dw	2
      00062A 78                    6540 	.db	120
      00062B 05                    6541 	.sleb128	5
      00062C 00 00r07r13           6542 	.dw	0,(Sstm8s_tim2$TIM2_CCxCmd$645)
      000630 00 00r07r15           6543 	.dw	0,(Sstm8s_tim2$TIM2_CCxCmd$646)
      000634 00 02                 6544 	.dw	2
      000636 78                    6545 	.db	120
      000637 04                    6546 	.sleb128	4
      000638 00 00r07r11           6547 	.dw	0,(Sstm8s_tim2$TIM2_CCxCmd$644)
      00063C 00 00r07r13           6548 	.dw	0,(Sstm8s_tim2$TIM2_CCxCmd$645)
      000640 00 02                 6549 	.dw	2
      000642 78                    6550 	.db	120
      000643 03                    6551 	.sleb128	3
      000644 00 00r07r08           6552 	.dw	0,(Sstm8s_tim2$TIM2_CCxCmd$642)
      000648 00 00r07r11           6553 	.dw	0,(Sstm8s_tim2$TIM2_CCxCmd$644)
      00064C 00 02                 6554 	.dw	2
      00064E 78                    6555 	.db	120
      00064F 02                    6556 	.sleb128	2
      000650 00 00r07r07           6557 	.dw	0,(Sstm8s_tim2$TIM2_CCxCmd$641)
      000654 00 00r07r08           6558 	.dw	0,(Sstm8s_tim2$TIM2_CCxCmd$642)
      000658 00 02                 6559 	.dw	2
      00065A 78                    6560 	.db	120
      00065B 03                    6561 	.sleb128	3
      00065C 00 00r07r01           6562 	.dw	0,(Sstm8s_tim2$TIM2_CCxCmd$640)
      000660 00 00r07r07           6563 	.dw	0,(Sstm8s_tim2$TIM2_CCxCmd$641)
      000664 00 02                 6564 	.dw	2
      000666 78                    6565 	.db	120
      000667 07                    6566 	.sleb128	7
      000668 00 00r06rFF           6567 	.dw	0,(Sstm8s_tim2$TIM2_CCxCmd$639)
      00066C 00 00r07r01           6568 	.dw	0,(Sstm8s_tim2$TIM2_CCxCmd$640)
      000670 00 02                 6569 	.dw	2
      000672 78                    6570 	.db	120
      000673 05                    6571 	.sleb128	5
      000674 00 00r06rFD           6572 	.dw	0,(Sstm8s_tim2$TIM2_CCxCmd$638)
      000678 00 00r06rFF           6573 	.dw	0,(Sstm8s_tim2$TIM2_CCxCmd$639)
      00067C 00 02                 6574 	.dw	2
      00067E 78                    6575 	.db	120
      00067F 04                    6576 	.sleb128	4
      000680 00 00r06rFB           6577 	.dw	0,(Sstm8s_tim2$TIM2_CCxCmd$637)
      000684 00 00r06rFD           6578 	.dw	0,(Sstm8s_tim2$TIM2_CCxCmd$638)
      000688 00 02                 6579 	.dw	2
      00068A 78                    6580 	.db	120
      00068B 03                    6581 	.sleb128	3
      00068C 00 00r06rFA           6582 	.dw	0,(Sstm8s_tim2$TIM2_CCxCmd$636)
      000690 00 00r06rFB           6583 	.dw	0,(Sstm8s_tim2$TIM2_CCxCmd$637)
      000694 00 02                 6584 	.dw	2
      000696 78                    6585 	.db	120
      000697 02                    6586 	.sleb128	2
      000698 00 00r06rEF           6587 	.dw	0,(Sstm8s_tim2$TIM2_CCxCmd$635)
      00069C 00 00r06rFA           6588 	.dw	0,(Sstm8s_tim2$TIM2_CCxCmd$636)
      0006A0 00 02                 6589 	.dw	2
      0006A2 78                    6590 	.db	120
      0006A3 02                    6591 	.sleb128	2
      0006A4 00 00r06rEC           6592 	.dw	0,(Sstm8s_tim2$TIM2_CCxCmd$634)
      0006A8 00 00r06rEF           6593 	.dw	0,(Sstm8s_tim2$TIM2_CCxCmd$635)
      0006AC 00 02                 6594 	.dw	2
      0006AE 78                    6595 	.db	120
      0006AF 02                    6596 	.sleb128	2
      0006B0 00 00r06rE7           6597 	.dw	0,(Sstm8s_tim2$TIM2_CCxCmd$633)
      0006B4 00 00r06rEC           6598 	.dw	0,(Sstm8s_tim2$TIM2_CCxCmd$634)
      0006B8 00 02                 6599 	.dw	2
      0006BA 78                    6600 	.db	120
      0006BB 03                    6601 	.sleb128	3
      0006BC 00 00r06rE2           6602 	.dw	0,(Sstm8s_tim2$TIM2_CCxCmd$631)
      0006C0 00 00r06rE7           6603 	.dw	0,(Sstm8s_tim2$TIM2_CCxCmd$633)
      0006C4 00 02                 6604 	.dw	2
      0006C6 78                    6605 	.db	120
      0006C7 02                    6606 	.sleb128	2
      0006C8 00 00r06rE1           6607 	.dw	0,(Sstm8s_tim2$TIM2_CCxCmd$630)
      0006CC 00 00r06rE2           6608 	.dw	0,(Sstm8s_tim2$TIM2_CCxCmd$631)
      0006D0 00 02                 6609 	.dw	2
      0006D2 78                    6610 	.db	120
      0006D3 01                    6611 	.sleb128	1
      0006D4 00 00 00 00           6612 	.dw	0,0
      0006D8 00 00 00 00           6613 	.dw	0,0
      0006DC 00 00r06rE0           6614 	.dw	0,(Sstm8s_tim2$TIM2_OC3PolarityConfig$626)
      0006E0 00 00r06rE1           6615 	.dw	0,(Sstm8s_tim2$TIM2_OC3PolarityConfig$628)
      0006E4 00 02                 6616 	.dw	2
      0006E6 78                    6617 	.db	120
      0006E7 01                    6618 	.sleb128	1
      0006E8 00 00r06rCC           6619 	.dw	0,(Sstm8s_tim2$TIM2_OC3PolarityConfig$616)
      0006EC 00 00r06rE0           6620 	.dw	0,(Sstm8s_tim2$TIM2_OC3PolarityConfig$626)
      0006F0 00 02                 6621 	.dw	2
      0006F2 78                    6622 	.db	120
      0006F3 02                    6623 	.sleb128	2
      0006F4 00 00r06rC6           6624 	.dw	0,(Sstm8s_tim2$TIM2_OC3PolarityConfig$615)
      0006F8 00 00r06rCC           6625 	.dw	0,(Sstm8s_tim2$TIM2_OC3PolarityConfig$616)
      0006FC 00 02                 6626 	.dw	2
      0006FE 78                    6627 	.db	120
      0006FF 06                    6628 	.sleb128	6
      000700 00 00r06rC4           6629 	.dw	0,(Sstm8s_tim2$TIM2_OC3PolarityConfig$614)
      000704 00 00r06rC6           6630 	.dw	0,(Sstm8s_tim2$TIM2_OC3PolarityConfig$615)
      000708 00 02                 6631 	.dw	2
      00070A 78                    6632 	.db	120
      00070B 04                    6633 	.sleb128	4
      00070C 00 00r06rC2           6634 	.dw	0,(Sstm8s_tim2$TIM2_OC3PolarityConfig$613)
      000710 00 00r06rC4           6635 	.dw	0,(Sstm8s_tim2$TIM2_OC3PolarityConfig$614)
      000714 00 02                 6636 	.dw	2
      000716 78                    6637 	.db	120
      000717 03                    6638 	.sleb128	3
      000718 00 00r06rC0           6639 	.dw	0,(Sstm8s_tim2$TIM2_OC3PolarityConfig$612)
      00071C 00 00r06rC2           6640 	.dw	0,(Sstm8s_tim2$TIM2_OC3PolarityConfig$613)
      000720 00 02                 6641 	.dw	2
      000722 78                    6642 	.db	120
      000723 02                    6643 	.sleb128	2
      000724 00 00r06rB6           6644 	.dw	0,(Sstm8s_tim2$TIM2_OC3PolarityConfig$610)
      000728 00 00r06rC0           6645 	.dw	0,(Sstm8s_tim2$TIM2_OC3PolarityConfig$612)
      00072C 00 02                 6646 	.dw	2
      00072E 78                    6647 	.db	120
      00072F 02                    6648 	.sleb128	2
      000730 00 00r06rB5           6649 	.dw	0,(Sstm8s_tim2$TIM2_OC3PolarityConfig$609)
      000734 00 00r06rB6           6650 	.dw	0,(Sstm8s_tim2$TIM2_OC3PolarityConfig$610)
      000738 00 02                 6651 	.dw	2
      00073A 78                    6652 	.db	120
      00073B 01                    6653 	.sleb128	1
      00073C 00 00 00 00           6654 	.dw	0,0
      000740 00 00 00 00           6655 	.dw	0,0
      000744 00 00r06rB4           6656 	.dw	0,(Sstm8s_tim2$TIM2_OC2PolarityConfig$605)
      000748 00 00r06rB5           6657 	.dw	0,(Sstm8s_tim2$TIM2_OC2PolarityConfig$607)
      00074C 00 02                 6658 	.dw	2
      00074E 78                    6659 	.db	120
      00074F 01                    6660 	.sleb128	1
      000750 00 00r06rA0           6661 	.dw	0,(Sstm8s_tim2$TIM2_OC2PolarityConfig$595)
      000754 00 00r06rB4           6662 	.dw	0,(Sstm8s_tim2$TIM2_OC2PolarityConfig$605)
      000758 00 02                 6663 	.dw	2
      00075A 78                    6664 	.db	120
      00075B 02                    6665 	.sleb128	2
      00075C 00 00r06r9A           6666 	.dw	0,(Sstm8s_tim2$TIM2_OC2PolarityConfig$594)
      000760 00 00r06rA0           6667 	.dw	0,(Sstm8s_tim2$TIM2_OC2PolarityConfig$595)
      000764 00 02                 6668 	.dw	2
      000766 78                    6669 	.db	120
      000767 06                    6670 	.sleb128	6
      000768 00 00r06r98           6671 	.dw	0,(Sstm8s_tim2$TIM2_OC2PolarityConfig$593)
      00076C 00 00r06r9A           6672 	.dw	0,(Sstm8s_tim2$TIM2_OC2PolarityConfig$594)
      000770 00 02                 6673 	.dw	2
      000772 78                    6674 	.db	120
      000773 04                    6675 	.sleb128	4
      000774 00 00r06r96           6676 	.dw	0,(Sstm8s_tim2$TIM2_OC2PolarityConfig$592)
      000778 00 00r06r98           6677 	.dw	0,(Sstm8s_tim2$TIM2_OC2PolarityConfig$593)
      00077C 00 02                 6678 	.dw	2
      00077E 78                    6679 	.db	120
      00077F 03                    6680 	.sleb128	3
      000780 00 00r06r94           6681 	.dw	0,(Sstm8s_tim2$TIM2_OC2PolarityConfig$591)
      000784 00 00r06r96           6682 	.dw	0,(Sstm8s_tim2$TIM2_OC2PolarityConfig$592)
      000788 00 02                 6683 	.dw	2
      00078A 78                    6684 	.db	120
      00078B 02                    6685 	.sleb128	2
      00078C 00 00r06r8A           6686 	.dw	0,(Sstm8s_tim2$TIM2_OC2PolarityConfig$589)
      000790 00 00r06r94           6687 	.dw	0,(Sstm8s_tim2$TIM2_OC2PolarityConfig$591)
      000794 00 02                 6688 	.dw	2
      000796 78                    6689 	.db	120
      000797 02                    6690 	.sleb128	2
      000798 00 00r06r89           6691 	.dw	0,(Sstm8s_tim2$TIM2_OC2PolarityConfig$588)
      00079C 00 00r06r8A           6692 	.dw	0,(Sstm8s_tim2$TIM2_OC2PolarityConfig$589)
      0007A0 00 02                 6693 	.dw	2
      0007A2 78                    6694 	.db	120
      0007A3 01                    6695 	.sleb128	1
      0007A4 00 00 00 00           6696 	.dw	0,0
      0007A8 00 00 00 00           6697 	.dw	0,0
      0007AC 00 00r06r88           6698 	.dw	0,(Sstm8s_tim2$TIM2_OC1PolarityConfig$584)
      0007B0 00 00r06r89           6699 	.dw	0,(Sstm8s_tim2$TIM2_OC1PolarityConfig$586)
      0007B4 00 02                 6700 	.dw	2
      0007B6 78                    6701 	.db	120
      0007B7 01                    6702 	.sleb128	1
      0007B8 00 00r06r74           6703 	.dw	0,(Sstm8s_tim2$TIM2_OC1PolarityConfig$574)
      0007BC 00 00r06r88           6704 	.dw	0,(Sstm8s_tim2$TIM2_OC1PolarityConfig$584)
      0007C0 00 02                 6705 	.dw	2
      0007C2 78                    6706 	.db	120
      0007C3 02                    6707 	.sleb128	2
      0007C4 00 00r06r6E           6708 	.dw	0,(Sstm8s_tim2$TIM2_OC1PolarityConfig$573)
      0007C8 00 00r06r74           6709 	.dw	0,(Sstm8s_tim2$TIM2_OC1PolarityConfig$574)
      0007CC 00 02                 6710 	.dw	2
      0007CE 78                    6711 	.db	120
      0007CF 06                    6712 	.sleb128	6
      0007D0 00 00r06r6C           6713 	.dw	0,(Sstm8s_tim2$TIM2_OC1PolarityConfig$572)
      0007D4 00 00r06r6E           6714 	.dw	0,(Sstm8s_tim2$TIM2_OC1PolarityConfig$573)
      0007D8 00 02                 6715 	.dw	2
      0007DA 78                    6716 	.db	120
      0007DB 04                    6717 	.sleb128	4
      0007DC 00 00r06r6A           6718 	.dw	0,(Sstm8s_tim2$TIM2_OC1PolarityConfig$571)
      0007E0 00 00r06r6C           6719 	.dw	0,(Sstm8s_tim2$TIM2_OC1PolarityConfig$572)
      0007E4 00 02                 6720 	.dw	2
      0007E6 78                    6721 	.db	120
      0007E7 03                    6722 	.sleb128	3
      0007E8 00 00r06r68           6723 	.dw	0,(Sstm8s_tim2$TIM2_OC1PolarityConfig$570)
      0007EC 00 00r06r6A           6724 	.dw	0,(Sstm8s_tim2$TIM2_OC1PolarityConfig$571)
      0007F0 00 02                 6725 	.dw	2
      0007F2 78                    6726 	.db	120
      0007F3 02                    6727 	.sleb128	2
      0007F4 00 00r06r5E           6728 	.dw	0,(Sstm8s_tim2$TIM2_OC1PolarityConfig$568)
      0007F8 00 00r06r68           6729 	.dw	0,(Sstm8s_tim2$TIM2_OC1PolarityConfig$570)
      0007FC 00 02                 6730 	.dw	2
      0007FE 78                    6731 	.db	120
      0007FF 02                    6732 	.sleb128	2
      000800 00 00r06r5D           6733 	.dw	0,(Sstm8s_tim2$TIM2_OC1PolarityConfig$567)
      000804 00 00r06r5E           6734 	.dw	0,(Sstm8s_tim2$TIM2_OC1PolarityConfig$568)
      000808 00 02                 6735 	.dw	2
      00080A 78                    6736 	.db	120
      00080B 01                    6737 	.sleb128	1
      00080C 00 00 00 00           6738 	.dw	0,0
      000810 00 00 00 00           6739 	.dw	0,0
      000814 00 00r06r59           6740 	.dw	0,(Sstm8s_tim2$TIM2_GenerateEvent$561)
      000818 00 00r06r5D           6741 	.dw	0,(Sstm8s_tim2$TIM2_GenerateEvent$565)
      00081C 00 02                 6742 	.dw	2
      00081E 78                    6743 	.db	120
      00081F 01                    6744 	.sleb128	1
      000820 00 00r06r58           6745 	.dw	0,(Sstm8s_tim2$TIM2_GenerateEvent$560)
      000824 00 00r06r59           6746 	.dw	0,(Sstm8s_tim2$TIM2_GenerateEvent$561)
      000828 00 02                 6747 	.dw	2
      00082A 78                    6748 	.db	120
      00082B 02                    6749 	.sleb128	2
      00082C 00 00r06r52           6750 	.dw	0,(Sstm8s_tim2$TIM2_GenerateEvent$559)
      000830 00 00r06r58           6751 	.dw	0,(Sstm8s_tim2$TIM2_GenerateEvent$560)
      000834 00 02                 6752 	.dw	2
      000836 78                    6753 	.db	120
      000837 06                    6754 	.sleb128	6
      000838 00 00r06r50           6755 	.dw	0,(Sstm8s_tim2$TIM2_GenerateEvent$558)
      00083C 00 00r06r52           6756 	.dw	0,(Sstm8s_tim2$TIM2_GenerateEvent$559)
      000840 00 02                 6757 	.dw	2
      000842 78                    6758 	.db	120
      000843 04                    6759 	.sleb128	4
      000844 00 00r06r4E           6760 	.dw	0,(Sstm8s_tim2$TIM2_GenerateEvent$557)
      000848 00 00r06r50           6761 	.dw	0,(Sstm8s_tim2$TIM2_GenerateEvent$558)
      00084C 00 02                 6762 	.dw	2
      00084E 78                    6763 	.db	120
      00084F 03                    6764 	.sleb128	3
      000850 00 00r06r4C           6765 	.dw	0,(Sstm8s_tim2$TIM2_GenerateEvent$556)
      000854 00 00r06r4E           6766 	.dw	0,(Sstm8s_tim2$TIM2_GenerateEvent$557)
      000858 00 02                 6767 	.dw	2
      00085A 78                    6768 	.db	120
      00085B 02                    6769 	.sleb128	2
      00085C 00 00r06r48           6770 	.dw	0,(Sstm8s_tim2$TIM2_GenerateEvent$554)
      000860 00 00r06r4C           6771 	.dw	0,(Sstm8s_tim2$TIM2_GenerateEvent$556)
      000864 00 02                 6772 	.dw	2
      000866 78                    6773 	.db	120
      000867 01                    6774 	.sleb128	1
      000868 00 00 00 00           6775 	.dw	0,0
      00086C 00 00 00 00           6776 	.dw	0,0
      000870 00 00r06r47           6777 	.dw	0,(Sstm8s_tim2$TIM2_OC3PreloadConfig$550)
      000874 00 00r06r48           6778 	.dw	0,(Sstm8s_tim2$TIM2_OC3PreloadConfig$552)
      000878 00 02                 6779 	.dw	2
      00087A 78                    6780 	.db	120
      00087B 01                    6781 	.sleb128	1
      00087C 00 00r06r33           6782 	.dw	0,(Sstm8s_tim2$TIM2_OC3PreloadConfig$540)
      000880 00 00r06r47           6783 	.dw	0,(Sstm8s_tim2$TIM2_OC3PreloadConfig$550)
      000884 00 02                 6784 	.dw	2
      000886 78                    6785 	.db	120
      000887 02                    6786 	.sleb128	2
      000888 00 00r06r2D           6787 	.dw	0,(Sstm8s_tim2$TIM2_OC3PreloadConfig$539)
      00088C 00 00r06r33           6788 	.dw	0,(Sstm8s_tim2$TIM2_OC3PreloadConfig$540)
      000890 00 02                 6789 	.dw	2
      000892 78                    6790 	.db	120
      000893 06                    6791 	.sleb128	6
      000894 00 00r06r2B           6792 	.dw	0,(Sstm8s_tim2$TIM2_OC3PreloadConfig$538)
      000898 00 00r06r2D           6793 	.dw	0,(Sstm8s_tim2$TIM2_OC3PreloadConfig$539)
      00089C 00 02                 6794 	.dw	2
      00089E 78                    6795 	.db	120
      00089F 04                    6796 	.sleb128	4
      0008A0 00 00r06r29           6797 	.dw	0,(Sstm8s_tim2$TIM2_OC3PreloadConfig$537)
      0008A4 00 00r06r2B           6798 	.dw	0,(Sstm8s_tim2$TIM2_OC3PreloadConfig$538)
      0008A8 00 02                 6799 	.dw	2
      0008AA 78                    6800 	.db	120
      0008AB 03                    6801 	.sleb128	3
      0008AC 00 00r06r1F           6802 	.dw	0,(Sstm8s_tim2$TIM2_OC3PreloadConfig$535)
      0008B0 00 00r06r29           6803 	.dw	0,(Sstm8s_tim2$TIM2_OC3PreloadConfig$537)
      0008B4 00 02                 6804 	.dw	2
      0008B6 78                    6805 	.db	120
      0008B7 02                    6806 	.sleb128	2
      0008B8 00 00r06r1E           6807 	.dw	0,(Sstm8s_tim2$TIM2_OC3PreloadConfig$534)
      0008BC 00 00r06r1F           6808 	.dw	0,(Sstm8s_tim2$TIM2_OC3PreloadConfig$535)
      0008C0 00 02                 6809 	.dw	2
      0008C2 78                    6810 	.db	120
      0008C3 01                    6811 	.sleb128	1
      0008C4 00 00 00 00           6812 	.dw	0,0
      0008C8 00 00 00 00           6813 	.dw	0,0
      0008CC 00 00r06r1D           6814 	.dw	0,(Sstm8s_tim2$TIM2_OC2PreloadConfig$530)
      0008D0 00 00r06r1E           6815 	.dw	0,(Sstm8s_tim2$TIM2_OC2PreloadConfig$532)
      0008D4 00 02                 6816 	.dw	2
      0008D6 78                    6817 	.db	120
      0008D7 01                    6818 	.sleb128	1
      0008D8 00 00r06r09           6819 	.dw	0,(Sstm8s_tim2$TIM2_OC2PreloadConfig$520)
      0008DC 00 00r06r1D           6820 	.dw	0,(Sstm8s_tim2$TIM2_OC2PreloadConfig$530)
      0008E0 00 02                 6821 	.dw	2
      0008E2 78                    6822 	.db	120
      0008E3 02                    6823 	.sleb128	2
      0008E4 00 00r06r03           6824 	.dw	0,(Sstm8s_tim2$TIM2_OC2PreloadConfig$519)
      0008E8 00 00r06r09           6825 	.dw	0,(Sstm8s_tim2$TIM2_OC2PreloadConfig$520)
      0008EC 00 02                 6826 	.dw	2
      0008EE 78                    6827 	.db	120
      0008EF 06                    6828 	.sleb128	6
      0008F0 00 00r06r01           6829 	.dw	0,(Sstm8s_tim2$TIM2_OC2PreloadConfig$518)
      0008F4 00 00r06r03           6830 	.dw	0,(Sstm8s_tim2$TIM2_OC2PreloadConfig$519)
      0008F8 00 02                 6831 	.dw	2
      0008FA 78                    6832 	.db	120
      0008FB 04                    6833 	.sleb128	4
      0008FC 00 00r05rFF           6834 	.dw	0,(Sstm8s_tim2$TIM2_OC2PreloadConfig$517)
      000900 00 00r06r01           6835 	.dw	0,(Sstm8s_tim2$TIM2_OC2PreloadConfig$518)
      000904 00 02                 6836 	.dw	2
      000906 78                    6837 	.db	120
      000907 03                    6838 	.sleb128	3
      000908 00 00r05rF5           6839 	.dw	0,(Sstm8s_tim2$TIM2_OC2PreloadConfig$515)
      00090C 00 00r05rFF           6840 	.dw	0,(Sstm8s_tim2$TIM2_OC2PreloadConfig$517)
      000910 00 02                 6841 	.dw	2
      000912 78                    6842 	.db	120
      000913 02                    6843 	.sleb128	2
      000914 00 00r05rF4           6844 	.dw	0,(Sstm8s_tim2$TIM2_OC2PreloadConfig$514)
      000918 00 00r05rF5           6845 	.dw	0,(Sstm8s_tim2$TIM2_OC2PreloadConfig$515)
      00091C 00 02                 6846 	.dw	2
      00091E 78                    6847 	.db	120
      00091F 01                    6848 	.sleb128	1
      000920 00 00 00 00           6849 	.dw	0,0
      000924 00 00 00 00           6850 	.dw	0,0
      000928 00 00r05rF3           6851 	.dw	0,(Sstm8s_tim2$TIM2_OC1PreloadConfig$510)
      00092C 00 00r05rF4           6852 	.dw	0,(Sstm8s_tim2$TIM2_OC1PreloadConfig$512)
      000930 00 02                 6853 	.dw	2
      000932 78                    6854 	.db	120
      000933 01                    6855 	.sleb128	1
      000934 00 00r05rDF           6856 	.dw	0,(Sstm8s_tim2$TIM2_OC1PreloadConfig$500)
      000938 00 00r05rF3           6857 	.dw	0,(Sstm8s_tim2$TIM2_OC1PreloadConfig$510)
      00093C 00 02                 6858 	.dw	2
      00093E 78                    6859 	.db	120
      00093F 02                    6860 	.sleb128	2
      000940 00 00r05rD9           6861 	.dw	0,(Sstm8s_tim2$TIM2_OC1PreloadConfig$499)
      000944 00 00r05rDF           6862 	.dw	0,(Sstm8s_tim2$TIM2_OC1PreloadConfig$500)
      000948 00 02                 6863 	.dw	2
      00094A 78                    6864 	.db	120
      00094B 06                    6865 	.sleb128	6
      00094C 00 00r05rD7           6866 	.dw	0,(Sstm8s_tim2$TIM2_OC1PreloadConfig$498)
      000950 00 00r05rD9           6867 	.dw	0,(Sstm8s_tim2$TIM2_OC1PreloadConfig$499)
      000954 00 02                 6868 	.dw	2
      000956 78                    6869 	.db	120
      000957 04                    6870 	.sleb128	4
      000958 00 00r05rD5           6871 	.dw	0,(Sstm8s_tim2$TIM2_OC1PreloadConfig$497)
      00095C 00 00r05rD7           6872 	.dw	0,(Sstm8s_tim2$TIM2_OC1PreloadConfig$498)
      000960 00 02                 6873 	.dw	2
      000962 78                    6874 	.db	120
      000963 03                    6875 	.sleb128	3
      000964 00 00r05rCB           6876 	.dw	0,(Sstm8s_tim2$TIM2_OC1PreloadConfig$495)
      000968 00 00r05rD5           6877 	.dw	0,(Sstm8s_tim2$TIM2_OC1PreloadConfig$497)
      00096C 00 02                 6878 	.dw	2
      00096E 78                    6879 	.db	120
      00096F 02                    6880 	.sleb128	2
      000970 00 00r05rCA           6881 	.dw	0,(Sstm8s_tim2$TIM2_OC1PreloadConfig$494)
      000974 00 00r05rCB           6882 	.dw	0,(Sstm8s_tim2$TIM2_OC1PreloadConfig$495)
      000978 00 02                 6883 	.dw	2
      00097A 78                    6884 	.db	120
      00097B 01                    6885 	.sleb128	1
      00097C 00 00 00 00           6886 	.dw	0,0
      000980 00 00 00 00           6887 	.dw	0,0
      000984 00 00r05rC9           6888 	.dw	0,(Sstm8s_tim2$TIM2_ARRPreloadConfig$490)
      000988 00 00r05rCA           6889 	.dw	0,(Sstm8s_tim2$TIM2_ARRPreloadConfig$492)
      00098C 00 02                 6890 	.dw	2
      00098E 78                    6891 	.db	120
      00098F 01                    6892 	.sleb128	1
      000990 00 00r05rB5           6893 	.dw	0,(Sstm8s_tim2$TIM2_ARRPreloadConfig$480)
      000994 00 00r05rC9           6894 	.dw	0,(Sstm8s_tim2$TIM2_ARRPreloadConfig$490)
      000998 00 02                 6895 	.dw	2
      00099A 78                    6896 	.db	120
      00099B 02                    6897 	.sleb128	2
      00099C 00 00r05rAF           6898 	.dw	0,(Sstm8s_tim2$TIM2_ARRPreloadConfig$479)
      0009A0 00 00r05rB5           6899 	.dw	0,(Sstm8s_tim2$TIM2_ARRPreloadConfig$480)
      0009A4 00 02                 6900 	.dw	2
      0009A6 78                    6901 	.db	120
      0009A7 06                    6902 	.sleb128	6
      0009A8 00 00r05rAD           6903 	.dw	0,(Sstm8s_tim2$TIM2_ARRPreloadConfig$478)
      0009AC 00 00r05rAF           6904 	.dw	0,(Sstm8s_tim2$TIM2_ARRPreloadConfig$479)
      0009B0 00 02                 6905 	.dw	2
      0009B2 78                    6906 	.db	120
      0009B3 04                    6907 	.sleb128	4
      0009B4 00 00r05rAB           6908 	.dw	0,(Sstm8s_tim2$TIM2_ARRPreloadConfig$477)
      0009B8 00 00r05rAD           6909 	.dw	0,(Sstm8s_tim2$TIM2_ARRPreloadConfig$478)
      0009BC 00 02                 6910 	.dw	2
      0009BE 78                    6911 	.db	120
      0009BF 03                    6912 	.sleb128	3
      0009C0 00 00r05rA1           6913 	.dw	0,(Sstm8s_tim2$TIM2_ARRPreloadConfig$475)
      0009C4 00 00r05rAB           6914 	.dw	0,(Sstm8s_tim2$TIM2_ARRPreloadConfig$477)
      0009C8 00 02                 6915 	.dw	2
      0009CA 78                    6916 	.db	120
      0009CB 02                    6917 	.sleb128	2
      0009CC 00 00r05rA0           6918 	.dw	0,(Sstm8s_tim2$TIM2_ARRPreloadConfig$474)
      0009D0 00 00r05rA1           6919 	.dw	0,(Sstm8s_tim2$TIM2_ARRPreloadConfig$475)
      0009D4 00 02                 6920 	.dw	2
      0009D6 78                    6921 	.db	120
      0009D7 01                    6922 	.sleb128	1
      0009D8 00 00 00 00           6923 	.dw	0,0
      0009DC 00 00 00 00           6924 	.dw	0,0
      0009E0 00 00r05r9F           6925 	.dw	0,(Sstm8s_tim2$TIM2_ForcedOC3Config$470)
      0009E4 00 00r05rA0           6926 	.dw	0,(Sstm8s_tim2$TIM2_ForcedOC3Config$472)
      0009E8 00 02                 6927 	.dw	2
      0009EA 78                    6928 	.db	120
      0009EB 01                    6929 	.sleb128	1
      0009EC 00 00r05r94           6930 	.dw	0,(Sstm8s_tim2$TIM2_ForcedOC3Config$466)
      0009F0 00 00r05r9F           6931 	.dw	0,(Sstm8s_tim2$TIM2_ForcedOC3Config$470)
      0009F4 00 02                 6932 	.dw	2
      0009F6 78                    6933 	.db	120
      0009F7 02                    6934 	.sleb128	2
      0009F8 00 00r05r8E           6935 	.dw	0,(Sstm8s_tim2$TIM2_ForcedOC3Config$465)
      0009FC 00 00r05r94           6936 	.dw	0,(Sstm8s_tim2$TIM2_ForcedOC3Config$466)
      000A00 00 02                 6937 	.dw	2
      000A02 78                    6938 	.db	120
      000A03 06                    6939 	.sleb128	6
      000A04 00 00r05r8C           6940 	.dw	0,(Sstm8s_tim2$TIM2_ForcedOC3Config$464)
      000A08 00 00r05r8E           6941 	.dw	0,(Sstm8s_tim2$TIM2_ForcedOC3Config$465)
      000A0C 00 02                 6942 	.dw	2
      000A0E 78                    6943 	.db	120
      000A0F 04                    6944 	.sleb128	4
      000A10 00 00r05r8A           6945 	.dw	0,(Sstm8s_tim2$TIM2_ForcedOC3Config$463)
      000A14 00 00r05r8C           6946 	.dw	0,(Sstm8s_tim2$TIM2_ForcedOC3Config$464)
      000A18 00 02                 6947 	.dw	2
      000A1A 78                    6948 	.db	120
      000A1B 03                    6949 	.sleb128	3
      000A1C 00 00r05r88           6950 	.dw	0,(Sstm8s_tim2$TIM2_ForcedOC3Config$462)
      000A20 00 00r05r8A           6951 	.dw	0,(Sstm8s_tim2$TIM2_ForcedOC3Config$463)
      000A24 00 02                 6952 	.dw	2
      000A26 78                    6953 	.db	120
      000A27 02                    6954 	.sleb128	2
      000A28 00 00r05r82           6955 	.dw	0,(Sstm8s_tim2$TIM2_ForcedOC3Config$461)
      000A2C 00 00r05r88           6956 	.dw	0,(Sstm8s_tim2$TIM2_ForcedOC3Config$462)
      000A30 00 02                 6957 	.dw	2
      000A32 78                    6958 	.db	120
      000A33 02                    6959 	.sleb128	2
      000A34 00 00r05r7C           6960 	.dw	0,(Sstm8s_tim2$TIM2_ForcedOC3Config$459)
      000A38 00 00r05r82           6961 	.dw	0,(Sstm8s_tim2$TIM2_ForcedOC3Config$461)
      000A3C 00 02                 6962 	.dw	2
      000A3E 78                    6963 	.db	120
      000A3F 02                    6964 	.sleb128	2
      000A40 00 00r05r7B           6965 	.dw	0,(Sstm8s_tim2$TIM2_ForcedOC3Config$458)
      000A44 00 00r05r7C           6966 	.dw	0,(Sstm8s_tim2$TIM2_ForcedOC3Config$459)
      000A48 00 02                 6967 	.dw	2
      000A4A 78                    6968 	.db	120
      000A4B 01                    6969 	.sleb128	1
      000A4C 00 00 00 00           6970 	.dw	0,0
      000A50 00 00 00 00           6971 	.dw	0,0
      000A54 00 00r05r7A           6972 	.dw	0,(Sstm8s_tim2$TIM2_ForcedOC2Config$454)
      000A58 00 00r05r7B           6973 	.dw	0,(Sstm8s_tim2$TIM2_ForcedOC2Config$456)
      000A5C 00 02                 6974 	.dw	2
      000A5E 78                    6975 	.db	120
      000A5F 01                    6976 	.sleb128	1
      000A60 00 00r05r6F           6977 	.dw	0,(Sstm8s_tim2$TIM2_ForcedOC2Config$450)
      000A64 00 00r05r7A           6978 	.dw	0,(Sstm8s_tim2$TIM2_ForcedOC2Config$454)
      000A68 00 02                 6979 	.dw	2
      000A6A 78                    6980 	.db	120
      000A6B 02                    6981 	.sleb128	2
      000A6C 00 00r05r69           6982 	.dw	0,(Sstm8s_tim2$TIM2_ForcedOC2Config$449)
      000A70 00 00r05r6F           6983 	.dw	0,(Sstm8s_tim2$TIM2_ForcedOC2Config$450)
      000A74 00 02                 6984 	.dw	2
      000A76 78                    6985 	.db	120
      000A77 06                    6986 	.sleb128	6
      000A78 00 00r05r67           6987 	.dw	0,(Sstm8s_tim2$TIM2_ForcedOC2Config$448)
      000A7C 00 00r05r69           6988 	.dw	0,(Sstm8s_tim2$TIM2_ForcedOC2Config$449)
      000A80 00 02                 6989 	.dw	2
      000A82 78                    6990 	.db	120
      000A83 04                    6991 	.sleb128	4
      000A84 00 00r05r65           6992 	.dw	0,(Sstm8s_tim2$TIM2_ForcedOC2Config$447)
      000A88 00 00r05r67           6993 	.dw	0,(Sstm8s_tim2$TIM2_ForcedOC2Config$448)
      000A8C 00 02                 6994 	.dw	2
      000A8E 78                    6995 	.db	120
      000A8F 03                    6996 	.sleb128	3
      000A90 00 00r05r63           6997 	.dw	0,(Sstm8s_tim2$TIM2_ForcedOC2Config$446)
      000A94 00 00r05r65           6998 	.dw	0,(Sstm8s_tim2$TIM2_ForcedOC2Config$447)
      000A98 00 02                 6999 	.dw	2
      000A9A 78                    7000 	.db	120
      000A9B 02                    7001 	.sleb128	2
      000A9C 00 00r05r5D           7002 	.dw	0,(Sstm8s_tim2$TIM2_ForcedOC2Config$445)
      000AA0 00 00r05r63           7003 	.dw	0,(Sstm8s_tim2$TIM2_ForcedOC2Config$446)
      000AA4 00 02                 7004 	.dw	2
      000AA6 78                    7005 	.db	120
      000AA7 02                    7006 	.sleb128	2
      000AA8 00 00r05r57           7007 	.dw	0,(Sstm8s_tim2$TIM2_ForcedOC2Config$443)
      000AAC 00 00r05r5D           7008 	.dw	0,(Sstm8s_tim2$TIM2_ForcedOC2Config$445)
      000AB0 00 02                 7009 	.dw	2
      000AB2 78                    7010 	.db	120
      000AB3 02                    7011 	.sleb128	2
      000AB4 00 00r05r56           7012 	.dw	0,(Sstm8s_tim2$TIM2_ForcedOC2Config$442)
      000AB8 00 00r05r57           7013 	.dw	0,(Sstm8s_tim2$TIM2_ForcedOC2Config$443)
      000ABC 00 02                 7014 	.dw	2
      000ABE 78                    7015 	.db	120
      000ABF 01                    7016 	.sleb128	1
      000AC0 00 00 00 00           7017 	.dw	0,0
      000AC4 00 00 00 00           7018 	.dw	0,0
      000AC8 00 00r05r55           7019 	.dw	0,(Sstm8s_tim2$TIM2_ForcedOC1Config$438)
      000ACC 00 00r05r56           7020 	.dw	0,(Sstm8s_tim2$TIM2_ForcedOC1Config$440)
      000AD0 00 02                 7021 	.dw	2
      000AD2 78                    7022 	.db	120
      000AD3 01                    7023 	.sleb128	1
      000AD4 00 00r05r4A           7024 	.dw	0,(Sstm8s_tim2$TIM2_ForcedOC1Config$434)
      000AD8 00 00r05r55           7025 	.dw	0,(Sstm8s_tim2$TIM2_ForcedOC1Config$438)
      000ADC 00 02                 7026 	.dw	2
      000ADE 78                    7027 	.db	120
      000ADF 02                    7028 	.sleb128	2
      000AE0 00 00r05r44           7029 	.dw	0,(Sstm8s_tim2$TIM2_ForcedOC1Config$433)
      000AE4 00 00r05r4A           7030 	.dw	0,(Sstm8s_tim2$TIM2_ForcedOC1Config$434)
      000AE8 00 02                 7031 	.dw	2
      000AEA 78                    7032 	.db	120
      000AEB 06                    7033 	.sleb128	6
      000AEC 00 00r05r42           7034 	.dw	0,(Sstm8s_tim2$TIM2_ForcedOC1Config$432)
      000AF0 00 00r05r44           7035 	.dw	0,(Sstm8s_tim2$TIM2_ForcedOC1Config$433)
      000AF4 00 02                 7036 	.dw	2
      000AF6 78                    7037 	.db	120
      000AF7 04                    7038 	.sleb128	4
      000AF8 00 00r05r40           7039 	.dw	0,(Sstm8s_tim2$TIM2_ForcedOC1Config$431)
      000AFC 00 00r05r42           7040 	.dw	0,(Sstm8s_tim2$TIM2_ForcedOC1Config$432)
      000B00 00 02                 7041 	.dw	2
      000B02 78                    7042 	.db	120
      000B03 03                    7043 	.sleb128	3
      000B04 00 00r05r3E           7044 	.dw	0,(Sstm8s_tim2$TIM2_ForcedOC1Config$430)
      000B08 00 00r05r40           7045 	.dw	0,(Sstm8s_tim2$TIM2_ForcedOC1Config$431)
      000B0C 00 02                 7046 	.dw	2
      000B0E 78                    7047 	.db	120
      000B0F 02                    7048 	.sleb128	2
      000B10 00 00r05r38           7049 	.dw	0,(Sstm8s_tim2$TIM2_ForcedOC1Config$429)
      000B14 00 00r05r3E           7050 	.dw	0,(Sstm8s_tim2$TIM2_ForcedOC1Config$430)
      000B18 00 02                 7051 	.dw	2
      000B1A 78                    7052 	.db	120
      000B1B 02                    7053 	.sleb128	2
      000B1C 00 00r05r32           7054 	.dw	0,(Sstm8s_tim2$TIM2_ForcedOC1Config$427)
      000B20 00 00r05r38           7055 	.dw	0,(Sstm8s_tim2$TIM2_ForcedOC1Config$429)
      000B24 00 02                 7056 	.dw	2
      000B26 78                    7057 	.db	120
      000B27 02                    7058 	.sleb128	2
      000B28 00 00r05r31           7059 	.dw	0,(Sstm8s_tim2$TIM2_ForcedOC1Config$426)
      000B2C 00 00r05r32           7060 	.dw	0,(Sstm8s_tim2$TIM2_ForcedOC1Config$427)
      000B30 00 02                 7061 	.dw	2
      000B32 78                    7062 	.db	120
      000B33 01                    7063 	.sleb128	1
      000B34 00 00r05r30           7064 	.dw	0,(Sstm8s_tim2$TIM2_PrescalerConfig$423)
      000B38 00 00r05r31           7065 	.dw	0,(Sstm8s_tim2$TIM2_PrescalerConfig$424)
      000B3C 00 02                 7066 	.dw	2
      000B3E 78                    7067 	.db	120
      000B3F 7E                    7068 	.sleb128	-2
      000B40 00 00r05r2F           7069 	.dw	0,(Sstm8s_tim2$TIM2_PrescalerConfig$422)
      000B44 00 00r05r30           7070 	.dw	0,(Sstm8s_tim2$TIM2_PrescalerConfig$423)
      000B48 00 02                 7071 	.dw	2
      000B4A 78                    7072 	.db	120
      000B4B 7F                    7073 	.sleb128	-1
      000B4C 00 00r05r26           7074 	.dw	0,(Sstm8s_tim2$TIM2_PrescalerConfig$418)
      000B50 00 00r05r2F           7075 	.dw	0,(Sstm8s_tim2$TIM2_PrescalerConfig$422)
      000B54 00 02                 7076 	.dw	2
      000B56 78                    7077 	.db	120
      000B57 01                    7078 	.sleb128	1
      000B58 00 00r05r25           7079 	.dw	0,(Sstm8s_tim2$TIM2_PrescalerConfig$417)
      000B5C 00 00r05r26           7080 	.dw	0,(Sstm8s_tim2$TIM2_PrescalerConfig$418)
      000B60 00 02                 7081 	.dw	2
      000B62 78                    7082 	.db	120
      000B63 02                    7083 	.sleb128	2
      000B64 00 00r05r1F           7084 	.dw	0,(Sstm8s_tim2$TIM2_PrescalerConfig$416)
      000B68 00 00r05r25           7085 	.dw	0,(Sstm8s_tim2$TIM2_PrescalerConfig$417)
      000B6C 00 02                 7086 	.dw	2
      000B6E 78                    7087 	.db	120
      000B6F 06                    7088 	.sleb128	6
      000B70 00 00r05r1D           7089 	.dw	0,(Sstm8s_tim2$TIM2_PrescalerConfig$415)
      000B74 00 00r05r1F           7090 	.dw	0,(Sstm8s_tim2$TIM2_PrescalerConfig$416)
      000B78 00 02                 7091 	.dw	2
      000B7A 78                    7092 	.db	120
      000B7B 04                    7093 	.sleb128	4
      000B7C 00 00r05r1B           7094 	.dw	0,(Sstm8s_tim2$TIM2_PrescalerConfig$414)
      000B80 00 00r05r1D           7095 	.dw	0,(Sstm8s_tim2$TIM2_PrescalerConfig$415)
      000B84 00 02                 7096 	.dw	2
      000B86 78                    7097 	.db	120
      000B87 03                    7098 	.sleb128	3
      000B88 00 00r05r19           7099 	.dw	0,(Sstm8s_tim2$TIM2_PrescalerConfig$413)
      000B8C 00 00r05r1B           7100 	.dw	0,(Sstm8s_tim2$TIM2_PrescalerConfig$414)
      000B90 00 02                 7101 	.dw	2
      000B92 78                    7102 	.db	120
      000B93 02                    7103 	.sleb128	2
      000B94 00 00r05r18           7104 	.dw	0,(Sstm8s_tim2$TIM2_PrescalerConfig$412)
      000B98 00 00r05r19           7105 	.dw	0,(Sstm8s_tim2$TIM2_PrescalerConfig$413)
      000B9C 00 02                 7106 	.dw	2
      000B9E 78                    7107 	.db	120
      000B9F 01                    7108 	.sleb128	1
      000BA0 00 00r05r14           7109 	.dw	0,(Sstm8s_tim2$TIM2_PrescalerConfig$411)
      000BA4 00 00r05r18           7110 	.dw	0,(Sstm8s_tim2$TIM2_PrescalerConfig$412)
      000BA8 00 02                 7111 	.dw	2
      000BAA 78                    7112 	.db	120
      000BAB 01                    7113 	.sleb128	1
      000BAC 00 00r05r10           7114 	.dw	0,(Sstm8s_tim2$TIM2_PrescalerConfig$410)
      000BB0 00 00r05r14           7115 	.dw	0,(Sstm8s_tim2$TIM2_PrescalerConfig$411)
      000BB4 00 02                 7116 	.dw	2
      000BB6 78                    7117 	.db	120
      000BB7 01                    7118 	.sleb128	1
      000BB8 00 00r05r0C           7119 	.dw	0,(Sstm8s_tim2$TIM2_PrescalerConfig$409)
      000BBC 00 00r05r10           7120 	.dw	0,(Sstm8s_tim2$TIM2_PrescalerConfig$410)
      000BC0 00 02                 7121 	.dw	2
      000BC2 78                    7122 	.db	120
      000BC3 01                    7123 	.sleb128	1
      000BC4 00 00r05r08           7124 	.dw	0,(Sstm8s_tim2$TIM2_PrescalerConfig$408)
      000BC8 00 00r05r0C           7125 	.dw	0,(Sstm8s_tim2$TIM2_PrescalerConfig$409)
      000BCC 00 02                 7126 	.dw	2
      000BCE 78                    7127 	.db	120
      000BCF 01                    7128 	.sleb128	1
      000BD0 00 00r05r04           7129 	.dw	0,(Sstm8s_tim2$TIM2_PrescalerConfig$407)
      000BD4 00 00r05r08           7130 	.dw	0,(Sstm8s_tim2$TIM2_PrescalerConfig$408)
      000BD8 00 02                 7131 	.dw	2
      000BDA 78                    7132 	.db	120
      000BDB 01                    7133 	.sleb128	1
      000BDC 00 00r05r00           7134 	.dw	0,(Sstm8s_tim2$TIM2_PrescalerConfig$406)
      000BE0 00 00r05r04           7135 	.dw	0,(Sstm8s_tim2$TIM2_PrescalerConfig$407)
      000BE4 00 02                 7136 	.dw	2
      000BE6 78                    7137 	.db	120
      000BE7 01                    7138 	.sleb128	1
      000BE8 00 00r04rFC           7139 	.dw	0,(Sstm8s_tim2$TIM2_PrescalerConfig$405)
      000BEC 00 00r05r00           7140 	.dw	0,(Sstm8s_tim2$TIM2_PrescalerConfig$406)
      000BF0 00 02                 7141 	.dw	2
      000BF2 78                    7142 	.db	120
      000BF3 01                    7143 	.sleb128	1
      000BF4 00 00r04rF8           7144 	.dw	0,(Sstm8s_tim2$TIM2_PrescalerConfig$404)
      000BF8 00 00r04rFC           7145 	.dw	0,(Sstm8s_tim2$TIM2_PrescalerConfig$405)
      000BFC 00 02                 7146 	.dw	2
      000BFE 78                    7147 	.db	120
      000BFF 01                    7148 	.sleb128	1
      000C00 00 00r04rF4           7149 	.dw	0,(Sstm8s_tim2$TIM2_PrescalerConfig$403)
      000C04 00 00r04rF8           7150 	.dw	0,(Sstm8s_tim2$TIM2_PrescalerConfig$404)
      000C08 00 02                 7151 	.dw	2
      000C0A 78                    7152 	.db	120
      000C0B 01                    7153 	.sleb128	1
      000C0C 00 00r04rF0           7154 	.dw	0,(Sstm8s_tim2$TIM2_PrescalerConfig$402)
      000C10 00 00r04rF4           7155 	.dw	0,(Sstm8s_tim2$TIM2_PrescalerConfig$403)
      000C14 00 02                 7156 	.dw	2
      000C16 78                    7157 	.db	120
      000C17 01                    7158 	.sleb128	1
      000C18 00 00r04rEC           7159 	.dw	0,(Sstm8s_tim2$TIM2_PrescalerConfig$401)
      000C1C 00 00r04rF0           7160 	.dw	0,(Sstm8s_tim2$TIM2_PrescalerConfig$402)
      000C20 00 02                 7161 	.dw	2
      000C22 78                    7162 	.db	120
      000C23 01                    7163 	.sleb128	1
      000C24 00 00r04rE8           7164 	.dw	0,(Sstm8s_tim2$TIM2_PrescalerConfig$400)
      000C28 00 00r04rEC           7165 	.dw	0,(Sstm8s_tim2$TIM2_PrescalerConfig$401)
      000C2C 00 02                 7166 	.dw	2
      000C2E 78                    7167 	.db	120
      000C2F 01                    7168 	.sleb128	1
      000C30 00 00r04rE4           7169 	.dw	0,(Sstm8s_tim2$TIM2_PrescalerConfig$399)
      000C34 00 00r04rE8           7170 	.dw	0,(Sstm8s_tim2$TIM2_PrescalerConfig$400)
      000C38 00 02                 7171 	.dw	2
      000C3A 78                    7172 	.db	120
      000C3B 01                    7173 	.sleb128	1
      000C3C 00 00r04rE0           7174 	.dw	0,(Sstm8s_tim2$TIM2_PrescalerConfig$398)
      000C40 00 00r04rE4           7175 	.dw	0,(Sstm8s_tim2$TIM2_PrescalerConfig$399)
      000C44 00 02                 7176 	.dw	2
      000C46 78                    7177 	.db	120
      000C47 01                    7178 	.sleb128	1
      000C48 00 00r04rD9           7179 	.dw	0,(Sstm8s_tim2$TIM2_PrescalerConfig$396)
      000C4C 00 00r04rE0           7180 	.dw	0,(Sstm8s_tim2$TIM2_PrescalerConfig$398)
      000C50 00 02                 7181 	.dw	2
      000C52 78                    7182 	.db	120
      000C53 01                    7183 	.sleb128	1
      000C54 00 00r04rD8           7184 	.dw	0,(Sstm8s_tim2$TIM2_PrescalerConfig$395)
      000C58 00 00r04rD9           7185 	.dw	0,(Sstm8s_tim2$TIM2_PrescalerConfig$396)
      000C5C 00 02                 7186 	.dw	2
      000C5E 78                    7187 	.db	120
      000C5F 02                    7188 	.sleb128	2
      000C60 00 00r04rD2           7189 	.dw	0,(Sstm8s_tim2$TIM2_PrescalerConfig$394)
      000C64 00 00r04rD8           7190 	.dw	0,(Sstm8s_tim2$TIM2_PrescalerConfig$395)
      000C68 00 02                 7191 	.dw	2
      000C6A 78                    7192 	.db	120
      000C6B 06                    7193 	.sleb128	6
      000C6C 00 00r04rD0           7194 	.dw	0,(Sstm8s_tim2$TIM2_PrescalerConfig$393)
      000C70 00 00r04rD2           7195 	.dw	0,(Sstm8s_tim2$TIM2_PrescalerConfig$394)
      000C74 00 02                 7196 	.dw	2
      000C76 78                    7197 	.db	120
      000C77 04                    7198 	.sleb128	4
      000C78 00 00r04rCE           7199 	.dw	0,(Sstm8s_tim2$TIM2_PrescalerConfig$392)
      000C7C 00 00r04rD0           7200 	.dw	0,(Sstm8s_tim2$TIM2_PrescalerConfig$393)
      000C80 00 02                 7201 	.dw	2
      000C82 78                    7202 	.db	120
      000C83 03                    7203 	.sleb128	3
      000C84 00 00r04rCC           7204 	.dw	0,(Sstm8s_tim2$TIM2_PrescalerConfig$391)
      000C88 00 00r04rCE           7205 	.dw	0,(Sstm8s_tim2$TIM2_PrescalerConfig$392)
      000C8C 00 02                 7206 	.dw	2
      000C8E 78                    7207 	.db	120
      000C8F 02                    7208 	.sleb128	2
      000C90 00 00r04rC3           7209 	.dw	0,(Sstm8s_tim2$TIM2_PrescalerConfig$389)
      000C94 00 00r04rCC           7210 	.dw	0,(Sstm8s_tim2$TIM2_PrescalerConfig$391)
      000C98 00 02                 7211 	.dw	2
      000C9A 78                    7212 	.db	120
      000C9B 01                    7213 	.sleb128	1
      000C9C 00 00 00 00           7214 	.dw	0,0
      000CA0 00 00 00 00           7215 	.dw	0,0
      000CA4 00 00r04rC2           7216 	.dw	0,(Sstm8s_tim2$TIM2_SelectOnePulseMode$385)
      000CA8 00 00r04rC3           7217 	.dw	0,(Sstm8s_tim2$TIM2_SelectOnePulseMode$387)
      000CAC 00 02                 7218 	.dw	2
      000CAE 78                    7219 	.db	120
      000CAF 01                    7220 	.sleb128	1
      000CB0 00 00r04rAE           7221 	.dw	0,(Sstm8s_tim2$TIM2_SelectOnePulseMode$375)
      000CB4 00 00r04rC2           7222 	.dw	0,(Sstm8s_tim2$TIM2_SelectOnePulseMode$385)
      000CB8 00 02                 7223 	.dw	2
      000CBA 78                    7224 	.db	120
      000CBB 02                    7225 	.sleb128	2
      000CBC 00 00r04rA8           7226 	.dw	0,(Sstm8s_tim2$TIM2_SelectOnePulseMode$374)
      000CC0 00 00r04rAE           7227 	.dw	0,(Sstm8s_tim2$TIM2_SelectOnePulseMode$375)
      000CC4 00 02                 7228 	.dw	2
      000CC6 78                    7229 	.db	120
      000CC7 06                    7230 	.sleb128	6
      000CC8 00 00r04rA6           7231 	.dw	0,(Sstm8s_tim2$TIM2_SelectOnePulseMode$373)
      000CCC 00 00r04rA8           7232 	.dw	0,(Sstm8s_tim2$TIM2_SelectOnePulseMode$374)
      000CD0 00 02                 7233 	.dw	2
      000CD2 78                    7234 	.db	120
      000CD3 04                    7235 	.sleb128	4
      000CD4 00 00r04rA4           7236 	.dw	0,(Sstm8s_tim2$TIM2_SelectOnePulseMode$372)
      000CD8 00 00r04rA6           7237 	.dw	0,(Sstm8s_tim2$TIM2_SelectOnePulseMode$373)
      000CDC 00 02                 7238 	.dw	2
      000CDE 78                    7239 	.db	120
      000CDF 03                    7240 	.sleb128	3
      000CE0 00 00r04r9A           7241 	.dw	0,(Sstm8s_tim2$TIM2_SelectOnePulseMode$370)
      000CE4 00 00r04rA4           7242 	.dw	0,(Sstm8s_tim2$TIM2_SelectOnePulseMode$372)
      000CE8 00 02                 7243 	.dw	2
      000CEA 78                    7244 	.db	120
      000CEB 02                    7245 	.sleb128	2
      000CEC 00 00r04r99           7246 	.dw	0,(Sstm8s_tim2$TIM2_SelectOnePulseMode$369)
      000CF0 00 00r04r9A           7247 	.dw	0,(Sstm8s_tim2$TIM2_SelectOnePulseMode$370)
      000CF4 00 02                 7248 	.dw	2
      000CF6 78                    7249 	.db	120
      000CF7 01                    7250 	.sleb128	1
      000CF8 00 00 00 00           7251 	.dw	0,0
      000CFC 00 00 00 00           7252 	.dw	0,0
      000D00 00 00r04r98           7253 	.dw	0,(Sstm8s_tim2$TIM2_UpdateRequestConfig$365)
      000D04 00 00r04r99           7254 	.dw	0,(Sstm8s_tim2$TIM2_UpdateRequestConfig$367)
      000D08 00 02                 7255 	.dw	2
      000D0A 78                    7256 	.db	120
      000D0B 01                    7257 	.sleb128	1
      000D0C 00 00r04r84           7258 	.dw	0,(Sstm8s_tim2$TIM2_UpdateRequestConfig$355)
      000D10 00 00r04r98           7259 	.dw	0,(Sstm8s_tim2$TIM2_UpdateRequestConfig$365)
      000D14 00 02                 7260 	.dw	2
      000D16 78                    7261 	.db	120
      000D17 02                    7262 	.sleb128	2
      000D18 00 00r04r7E           7263 	.dw	0,(Sstm8s_tim2$TIM2_UpdateRequestConfig$354)
      000D1C 00 00r04r84           7264 	.dw	0,(Sstm8s_tim2$TIM2_UpdateRequestConfig$355)
      000D20 00 02                 7265 	.dw	2
      000D22 78                    7266 	.db	120
      000D23 06                    7267 	.sleb128	6
      000D24 00 00r04r7C           7268 	.dw	0,(Sstm8s_tim2$TIM2_UpdateRequestConfig$353)
      000D28 00 00r04r7E           7269 	.dw	0,(Sstm8s_tim2$TIM2_UpdateRequestConfig$354)
      000D2C 00 02                 7270 	.dw	2
      000D2E 78                    7271 	.db	120
      000D2F 04                    7272 	.sleb128	4
      000D30 00 00r04r7A           7273 	.dw	0,(Sstm8s_tim2$TIM2_UpdateRequestConfig$352)
      000D34 00 00r04r7C           7274 	.dw	0,(Sstm8s_tim2$TIM2_UpdateRequestConfig$353)
      000D38 00 02                 7275 	.dw	2
      000D3A 78                    7276 	.db	120
      000D3B 03                    7277 	.sleb128	3
      000D3C 00 00r04r70           7278 	.dw	0,(Sstm8s_tim2$TIM2_UpdateRequestConfig$350)
      000D40 00 00r04r7A           7279 	.dw	0,(Sstm8s_tim2$TIM2_UpdateRequestConfig$352)
      000D44 00 02                 7280 	.dw	2
      000D46 78                    7281 	.db	120
      000D47 02                    7282 	.sleb128	2
      000D48 00 00r04r6F           7283 	.dw	0,(Sstm8s_tim2$TIM2_UpdateRequestConfig$349)
      000D4C 00 00r04r70           7284 	.dw	0,(Sstm8s_tim2$TIM2_UpdateRequestConfig$350)
      000D50 00 02                 7285 	.dw	2
      000D52 78                    7286 	.db	120
      000D53 01                    7287 	.sleb128	1
      000D54 00 00 00 00           7288 	.dw	0,0
      000D58 00 00 00 00           7289 	.dw	0,0
      000D5C 00 00r04r6E           7290 	.dw	0,(Sstm8s_tim2$TIM2_UpdateDisableConfig$345)
      000D60 00 00r04r6F           7291 	.dw	0,(Sstm8s_tim2$TIM2_UpdateDisableConfig$347)
      000D64 00 02                 7292 	.dw	2
      000D66 78                    7293 	.db	120
      000D67 01                    7294 	.sleb128	1
      000D68 00 00r04r5A           7295 	.dw	0,(Sstm8s_tim2$TIM2_UpdateDisableConfig$335)
      000D6C 00 00r04r6E           7296 	.dw	0,(Sstm8s_tim2$TIM2_UpdateDisableConfig$345)
      000D70 00 02                 7297 	.dw	2
      000D72 78                    7298 	.db	120
      000D73 02                    7299 	.sleb128	2
      000D74 00 00r04r54           7300 	.dw	0,(Sstm8s_tim2$TIM2_UpdateDisableConfig$334)
      000D78 00 00r04r5A           7301 	.dw	0,(Sstm8s_tim2$TIM2_UpdateDisableConfig$335)
      000D7C 00 02                 7302 	.dw	2
      000D7E 78                    7303 	.db	120
      000D7F 06                    7304 	.sleb128	6
      000D80 00 00r04r52           7305 	.dw	0,(Sstm8s_tim2$TIM2_UpdateDisableConfig$333)
      000D84 00 00r04r54           7306 	.dw	0,(Sstm8s_tim2$TIM2_UpdateDisableConfig$334)
      000D88 00 02                 7307 	.dw	2
      000D8A 78                    7308 	.db	120
      000D8B 04                    7309 	.sleb128	4
      000D8C 00 00r04r50           7310 	.dw	0,(Sstm8s_tim2$TIM2_UpdateDisableConfig$332)
      000D90 00 00r04r52           7311 	.dw	0,(Sstm8s_tim2$TIM2_UpdateDisableConfig$333)
      000D94 00 02                 7312 	.dw	2
      000D96 78                    7313 	.db	120
      000D97 03                    7314 	.sleb128	3
      000D98 00 00r04r46           7315 	.dw	0,(Sstm8s_tim2$TIM2_UpdateDisableConfig$330)
      000D9C 00 00r04r50           7316 	.dw	0,(Sstm8s_tim2$TIM2_UpdateDisableConfig$332)
      000DA0 00 02                 7317 	.dw	2
      000DA2 78                    7318 	.db	120
      000DA3 02                    7319 	.sleb128	2
      000DA4 00 00r04r45           7320 	.dw	0,(Sstm8s_tim2$TIM2_UpdateDisableConfig$329)
      000DA8 00 00r04r46           7321 	.dw	0,(Sstm8s_tim2$TIM2_UpdateDisableConfig$330)
      000DAC 00 02                 7322 	.dw	2
      000DAE 78                    7323 	.db	120
      000DAF 01                    7324 	.sleb128	1
      000DB0 00 00r04r44           7325 	.dw	0,(Sstm8s_tim2$TIM2_ITConfig$326)
      000DB4 00 00r04r45           7326 	.dw	0,(Sstm8s_tim2$TIM2_ITConfig$327)
      000DB8 00 02                 7327 	.dw	2
      000DBA 78                    7328 	.db	120
      000DBB 7E                    7329 	.sleb128	-2
      000DBC 00 00r04r43           7330 	.dw	0,(Sstm8s_tim2$TIM2_ITConfig$325)
      000DC0 00 00r04r44           7331 	.dw	0,(Sstm8s_tim2$TIM2_ITConfig$326)
      000DC4 00 02                 7332 	.dw	2
      000DC6 78                    7333 	.db	120
      000DC7 7F                    7334 	.sleb128	-1
      000DC8 00 00r04r42           7335 	.dw	0,(Sstm8s_tim2$TIM2_ITConfig$324)
      000DCC 00 00r04r43           7336 	.dw	0,(Sstm8s_tim2$TIM2_ITConfig$325)
      000DD0 00 02                 7337 	.dw	2
      000DD2 78                    7338 	.db	120
      000DD3 01                    7339 	.sleb128	1
      000DD4 00 00r04r30           7340 	.dw	0,(Sstm8s_tim2$TIM2_ITConfig$315)
      000DD8 00 00r04r42           7341 	.dw	0,(Sstm8s_tim2$TIM2_ITConfig$324)
      000DDC 00 02                 7342 	.dw	2
      000DDE 78                    7343 	.db	120
      000DDF 02                    7344 	.sleb128	2
      000DE0 00 00r04r2C           7345 	.dw	0,(Sstm8s_tim2$TIM2_ITConfig$314)
      000DE4 00 00r04r30           7346 	.dw	0,(Sstm8s_tim2$TIM2_ITConfig$315)
      000DE8 00 02                 7347 	.dw	2
      000DEA 78                    7348 	.db	120
      000DEB 03                    7349 	.sleb128	3
      000DEC 00 00r04r28           7350 	.dw	0,(Sstm8s_tim2$TIM2_ITConfig$312)
      000DF0 00 00r04r2C           7351 	.dw	0,(Sstm8s_tim2$TIM2_ITConfig$314)
      000DF4 00 02                 7352 	.dw	2
      000DF6 78                    7353 	.db	120
      000DF7 02                    7354 	.sleb128	2
      000DF8 00 00r04r27           7355 	.dw	0,(Sstm8s_tim2$TIM2_ITConfig$311)
      000DFC 00 00r04r28           7356 	.dw	0,(Sstm8s_tim2$TIM2_ITConfig$312)
      000E00 00 02                 7357 	.dw	2
      000E02 78                    7358 	.db	120
      000E03 03                    7359 	.sleb128	3
      000E04 00 00r04r21           7360 	.dw	0,(Sstm8s_tim2$TIM2_ITConfig$310)
      000E08 00 00r04r27           7361 	.dw	0,(Sstm8s_tim2$TIM2_ITConfig$311)
      000E0C 00 02                 7362 	.dw	2
      000E0E 78                    7363 	.db	120
      000E0F 07                    7364 	.sleb128	7
      000E10 00 00r04r1F           7365 	.dw	0,(Sstm8s_tim2$TIM2_ITConfig$309)
      000E14 00 00r04r21           7366 	.dw	0,(Sstm8s_tim2$TIM2_ITConfig$310)
      000E18 00 02                 7367 	.dw	2
      000E1A 78                    7368 	.db	120
      000E1B 05                    7369 	.sleb128	5
      000E1C 00 00r04r1D           7370 	.dw	0,(Sstm8s_tim2$TIM2_ITConfig$308)
      000E20 00 00r04r1F           7371 	.dw	0,(Sstm8s_tim2$TIM2_ITConfig$309)
      000E24 00 02                 7372 	.dw	2
      000E26 78                    7373 	.db	120
      000E27 04                    7374 	.sleb128	4
      000E28 00 00r04r1B           7375 	.dw	0,(Sstm8s_tim2$TIM2_ITConfig$307)
      000E2C 00 00r04r1D           7376 	.dw	0,(Sstm8s_tim2$TIM2_ITConfig$308)
      000E30 00 02                 7377 	.dw	2
      000E32 78                    7378 	.db	120
      000E33 03                    7379 	.sleb128	3
      000E34 00 00r04r12           7380 	.dw	0,(Sstm8s_tim2$TIM2_ITConfig$305)
      000E38 00 00r04r1B           7381 	.dw	0,(Sstm8s_tim2$TIM2_ITConfig$307)
      000E3C 00 02                 7382 	.dw	2
      000E3E 78                    7383 	.db	120
      000E3F 02                    7384 	.sleb128	2
      000E40 00 00r04r11           7385 	.dw	0,(Sstm8s_tim2$TIM2_ITConfig$304)
      000E44 00 00r04r12           7386 	.dw	0,(Sstm8s_tim2$TIM2_ITConfig$305)
      000E48 00 02                 7387 	.dw	2
      000E4A 78                    7388 	.db	120
      000E4B 03                    7389 	.sleb128	3
      000E4C 00 00r04r0B           7390 	.dw	0,(Sstm8s_tim2$TIM2_ITConfig$303)
      000E50 00 00r04r11           7391 	.dw	0,(Sstm8s_tim2$TIM2_ITConfig$304)
      000E54 00 02                 7392 	.dw	2
      000E56 78                    7393 	.db	120
      000E57 07                    7394 	.sleb128	7
      000E58 00 00r04r09           7395 	.dw	0,(Sstm8s_tim2$TIM2_ITConfig$302)
      000E5C 00 00r04r0B           7396 	.dw	0,(Sstm8s_tim2$TIM2_ITConfig$303)
      000E60 00 02                 7397 	.dw	2
      000E62 78                    7398 	.db	120
      000E63 05                    7399 	.sleb128	5
      000E64 00 00r04r07           7400 	.dw	0,(Sstm8s_tim2$TIM2_ITConfig$301)
      000E68 00 00r04r09           7401 	.dw	0,(Sstm8s_tim2$TIM2_ITConfig$302)
      000E6C 00 02                 7402 	.dw	2
      000E6E 78                    7403 	.db	120
      000E6F 04                    7404 	.sleb128	4
      000E70 00 00r04r05           7405 	.dw	0,(Sstm8s_tim2$TIM2_ITConfig$300)
      000E74 00 00r04r07           7406 	.dw	0,(Sstm8s_tim2$TIM2_ITConfig$301)
      000E78 00 02                 7407 	.dw	2
      000E7A 78                    7408 	.db	120
      000E7B 03                    7409 	.sleb128	3
      000E7C 00 00r03rFD           7410 	.dw	0,(Sstm8s_tim2$TIM2_ITConfig$298)
      000E80 00 00r04r05           7411 	.dw	0,(Sstm8s_tim2$TIM2_ITConfig$300)
      000E84 00 02                 7412 	.dw	2
      000E86 78                    7413 	.db	120
      000E87 02                    7414 	.sleb128	2
      000E88 00 00r03rFC           7415 	.dw	0,(Sstm8s_tim2$TIM2_ITConfig$297)
      000E8C 00 00r03rFD           7416 	.dw	0,(Sstm8s_tim2$TIM2_ITConfig$298)
      000E90 00 02                 7417 	.dw	2
      000E92 78                    7418 	.db	120
      000E93 01                    7419 	.sleb128	1
      000E94 00 00 00 00           7420 	.dw	0,0
      000E98 00 00 00 00           7421 	.dw	0,0
      000E9C 00 00r03rFB           7422 	.dw	0,(Sstm8s_tim2$TIM2_Cmd$293)
      000EA0 00 00r03rFC           7423 	.dw	0,(Sstm8s_tim2$TIM2_Cmd$295)
      000EA4 00 02                 7424 	.dw	2
      000EA6 78                    7425 	.db	120
      000EA7 01                    7426 	.sleb128	1
      000EA8 00 00r03rE7           7427 	.dw	0,(Sstm8s_tim2$TIM2_Cmd$283)
      000EAC 00 00r03rFB           7428 	.dw	0,(Sstm8s_tim2$TIM2_Cmd$293)
      000EB0 00 02                 7429 	.dw	2
      000EB2 78                    7430 	.db	120
      000EB3 02                    7431 	.sleb128	2
      000EB4 00 00r03rE1           7432 	.dw	0,(Sstm8s_tim2$TIM2_Cmd$282)
      000EB8 00 00r03rE7           7433 	.dw	0,(Sstm8s_tim2$TIM2_Cmd$283)
      000EBC 00 02                 7434 	.dw	2
      000EBE 78                    7435 	.db	120
      000EBF 06                    7436 	.sleb128	6
      000EC0 00 00r03rDF           7437 	.dw	0,(Sstm8s_tim2$TIM2_Cmd$281)
      000EC4 00 00r03rE1           7438 	.dw	0,(Sstm8s_tim2$TIM2_Cmd$282)
      000EC8 00 02                 7439 	.dw	2
      000ECA 78                    7440 	.db	120
      000ECB 04                    7441 	.sleb128	4
      000ECC 00 00r03rDD           7442 	.dw	0,(Sstm8s_tim2$TIM2_Cmd$280)
      000ED0 00 00r03rDF           7443 	.dw	0,(Sstm8s_tim2$TIM2_Cmd$281)
      000ED4 00 02                 7444 	.dw	2
      000ED6 78                    7445 	.db	120
      000ED7 03                    7446 	.sleb128	3
      000ED8 00 00r03rD3           7447 	.dw	0,(Sstm8s_tim2$TIM2_Cmd$278)
      000EDC 00 00r03rDD           7448 	.dw	0,(Sstm8s_tim2$TIM2_Cmd$280)
      000EE0 00 02                 7449 	.dw	2
      000EE2 78                    7450 	.db	120
      000EE3 02                    7451 	.sleb128	2
      000EE4 00 00r03rD2           7452 	.dw	0,(Sstm8s_tim2$TIM2_Cmd$277)
      000EE8 00 00r03rD3           7453 	.dw	0,(Sstm8s_tim2$TIM2_Cmd$278)
      000EEC 00 02                 7454 	.dw	2
      000EEE 78                    7455 	.db	120
      000EEF 01                    7456 	.sleb128	1
      000EF0 00 00r03rD1           7457 	.dw	0,(Sstm8s_tim2$TIM2_PWMIConfig$274)
      000EF4 00 00r03rD2           7458 	.dw	0,(Sstm8s_tim2$TIM2_PWMIConfig$275)
      000EF8 00 02                 7459 	.dw	2
      000EFA 78                    7460 	.db	120
      000EFB 7B                    7461 	.sleb128	-5
      000EFC 00 00r03rC8           7462 	.dw	0,(Sstm8s_tim2$TIM2_PWMIConfig$270)
      000F00 00 00r03rD1           7463 	.dw	0,(Sstm8s_tim2$TIM2_PWMIConfig$274)
      000F04 00 02                 7464 	.dw	2
      000F06 78                    7465 	.db	120
      000F07 04                    7466 	.sleb128	4
      000F08 00 00r03rC3           7467 	.dw	0,(Sstm8s_tim2$TIM2_PWMIConfig$269)
      000F0C 00 00r03rC8           7468 	.dw	0,(Sstm8s_tim2$TIM2_PWMIConfig$270)
      000F10 00 02                 7469 	.dw	2
      000F12 78                    7470 	.db	120
      000F13 06                    7471 	.sleb128	6
      000F14 00 00r03rC0           7472 	.dw	0,(Sstm8s_tim2$TIM2_PWMIConfig$268)
      000F18 00 00r03rC3           7473 	.dw	0,(Sstm8s_tim2$TIM2_PWMIConfig$269)
      000F1C 00 02                 7474 	.dw	2
      000F1E 78                    7475 	.db	120
      000F1F 05                    7476 	.sleb128	5
      000F20 00 00r03rB8           7477 	.dw	0,(Sstm8s_tim2$TIM2_PWMIConfig$265)
      000F24 00 00r03rC0           7478 	.dw	0,(Sstm8s_tim2$TIM2_PWMIConfig$268)
      000F28 00 02                 7479 	.dw	2
      000F2A 78                    7480 	.db	120
      000F2B 04                    7481 	.sleb128	4
      000F2C 00 00r03rB3           7482 	.dw	0,(Sstm8s_tim2$TIM2_PWMIConfig$264)
      000F30 00 00r03rB8           7483 	.dw	0,(Sstm8s_tim2$TIM2_PWMIConfig$265)
      000F34 00 02                 7484 	.dw	2
      000F36 78                    7485 	.db	120
      000F37 06                    7486 	.sleb128	6
      000F38 00 00r03rB0           7487 	.dw	0,(Sstm8s_tim2$TIM2_PWMIConfig$263)
      000F3C 00 00r03rB3           7488 	.dw	0,(Sstm8s_tim2$TIM2_PWMIConfig$264)
      000F40 00 02                 7489 	.dw	2
      000F42 78                    7490 	.db	120
      000F43 05                    7491 	.sleb128	5
      000F44 00 00r03rA6           7492 	.dw	0,(Sstm8s_tim2$TIM2_PWMIConfig$258)
      000F48 00 00r03rB0           7493 	.dw	0,(Sstm8s_tim2$TIM2_PWMIConfig$263)
      000F4C 00 02                 7494 	.dw	2
      000F4E 78                    7495 	.db	120
      000F4F 04                    7496 	.sleb128	4
      000F50 00 00r03rA1           7497 	.dw	0,(Sstm8s_tim2$TIM2_PWMIConfig$257)
      000F54 00 00r03rA6           7498 	.dw	0,(Sstm8s_tim2$TIM2_PWMIConfig$258)
      000F58 00 02                 7499 	.dw	2
      000F5A 78                    7500 	.db	120
      000F5B 06                    7501 	.sleb128	6
      000F5C 00 00r03r9E           7502 	.dw	0,(Sstm8s_tim2$TIM2_PWMIConfig$256)
      000F60 00 00r03rA1           7503 	.dw	0,(Sstm8s_tim2$TIM2_PWMIConfig$257)
      000F64 00 02                 7504 	.dw	2
      000F66 78                    7505 	.db	120
      000F67 05                    7506 	.sleb128	5
      000F68 00 00r03r96           7507 	.dw	0,(Sstm8s_tim2$TIM2_PWMIConfig$253)
      000F6C 00 00r03r9E           7508 	.dw	0,(Sstm8s_tim2$TIM2_PWMIConfig$256)
      000F70 00 02                 7509 	.dw	2
      000F72 78                    7510 	.db	120
      000F73 04                    7511 	.sleb128	4
      000F74 00 00r03r91           7512 	.dw	0,(Sstm8s_tim2$TIM2_PWMIConfig$252)
      000F78 00 00r03r96           7513 	.dw	0,(Sstm8s_tim2$TIM2_PWMIConfig$253)
      000F7C 00 02                 7514 	.dw	2
      000F7E 78                    7515 	.db	120
      000F7F 06                    7516 	.sleb128	6
      000F80 00 00r03r8E           7517 	.dw	0,(Sstm8s_tim2$TIM2_PWMIConfig$251)
      000F84 00 00r03r91           7518 	.dw	0,(Sstm8s_tim2$TIM2_PWMIConfig$252)
      000F88 00 02                 7519 	.dw	2
      000F8A 78                    7520 	.db	120
      000F8B 05                    7521 	.sleb128	5
      000F8C 00 00r03r6E           7522 	.dw	0,(Sstm8s_tim2$TIM2_PWMIConfig$233)
      000F90 00 00r03r8E           7523 	.dw	0,(Sstm8s_tim2$TIM2_PWMIConfig$251)
      000F94 00 02                 7524 	.dw	2
      000F96 78                    7525 	.db	120
      000F97 04                    7526 	.sleb128	4
      000F98 00 00r03r68           7527 	.dw	0,(Sstm8s_tim2$TIM2_PWMIConfig$232)
      000F9C 00 00r03r6E           7528 	.dw	0,(Sstm8s_tim2$TIM2_PWMIConfig$233)
      000FA0 00 02                 7529 	.dw	2
      000FA2 78                    7530 	.db	120
      000FA3 08                    7531 	.sleb128	8
      000FA4 00 00r03r66           7532 	.dw	0,(Sstm8s_tim2$TIM2_PWMIConfig$231)
      000FA8 00 00r03r68           7533 	.dw	0,(Sstm8s_tim2$TIM2_PWMIConfig$232)
      000FAC 00 02                 7534 	.dw	2
      000FAE 78                    7535 	.db	120
      000FAF 06                    7536 	.sleb128	6
      000FB0 00 00r03r64           7537 	.dw	0,(Sstm8s_tim2$TIM2_PWMIConfig$230)
      000FB4 00 00r03r66           7538 	.dw	0,(Sstm8s_tim2$TIM2_PWMIConfig$231)
      000FB8 00 02                 7539 	.dw	2
      000FBA 78                    7540 	.db	120
      000FBB 05                    7541 	.sleb128	5
      000FBC 00 00r03r62           7542 	.dw	0,(Sstm8s_tim2$TIM2_PWMIConfig$229)
      000FC0 00 00r03r64           7543 	.dw	0,(Sstm8s_tim2$TIM2_PWMIConfig$230)
      000FC4 00 02                 7544 	.dw	2
      000FC6 78                    7545 	.db	120
      000FC7 04                    7546 	.sleb128	4
      000FC8 00 00r03r5C           7547 	.dw	0,(Sstm8s_tim2$TIM2_PWMIConfig$228)
      000FCC 00 00r03r62           7548 	.dw	0,(Sstm8s_tim2$TIM2_PWMIConfig$229)
      000FD0 00 02                 7549 	.dw	2
      000FD2 78                    7550 	.db	120
      000FD3 04                    7551 	.sleb128	4
      000FD4 00 00r03r56           7552 	.dw	0,(Sstm8s_tim2$TIM2_PWMIConfig$227)
      000FD8 00 00r03r5C           7553 	.dw	0,(Sstm8s_tim2$TIM2_PWMIConfig$228)
      000FDC 00 02                 7554 	.dw	2
      000FDE 78                    7555 	.db	120
      000FDF 04                    7556 	.sleb128	4
      000FE0 00 00r03r4C           7557 	.dw	0,(Sstm8s_tim2$TIM2_PWMIConfig$225)
      000FE4 00 00r03r56           7558 	.dw	0,(Sstm8s_tim2$TIM2_PWMIConfig$227)
      000FE8 00 02                 7559 	.dw	2
      000FEA 78                    7560 	.db	120
      000FEB 04                    7561 	.sleb128	4
      000FEC 00 00r03r46           7562 	.dw	0,(Sstm8s_tim2$TIM2_PWMIConfig$224)
      000FF0 00 00r03r4C           7563 	.dw	0,(Sstm8s_tim2$TIM2_PWMIConfig$225)
      000FF4 00 02                 7564 	.dw	2
      000FF6 78                    7565 	.db	120
      000FF7 08                    7566 	.sleb128	8
      000FF8 00 00r03r44           7567 	.dw	0,(Sstm8s_tim2$TIM2_PWMIConfig$223)
      000FFC 00 00r03r46           7568 	.dw	0,(Sstm8s_tim2$TIM2_PWMIConfig$224)
      001000 00 02                 7569 	.dw	2
      001002 78                    7570 	.db	120
      001003 06                    7571 	.sleb128	6
      001004 00 00r03r42           7572 	.dw	0,(Sstm8s_tim2$TIM2_PWMIConfig$222)
      001008 00 00r03r44           7573 	.dw	0,(Sstm8s_tim2$TIM2_PWMIConfig$223)
      00100C 00 02                 7574 	.dw	2
      00100E 78                    7575 	.db	120
      00100F 05                    7576 	.sleb128	5
      001010 00 00r03r40           7577 	.dw	0,(Sstm8s_tim2$TIM2_PWMIConfig$221)
      001014 00 00r03r42           7578 	.dw	0,(Sstm8s_tim2$TIM2_PWMIConfig$222)
      001018 00 02                 7579 	.dw	2
      00101A 78                    7580 	.db	120
      00101B 04                    7581 	.sleb128	4
      00101C 00 00r03r3A           7582 	.dw	0,(Sstm8s_tim2$TIM2_PWMIConfig$220)
      001020 00 00r03r40           7583 	.dw	0,(Sstm8s_tim2$TIM2_PWMIConfig$221)
      001024 00 02                 7584 	.dw	2
      001026 78                    7585 	.db	120
      001027 04                    7586 	.sleb128	4
      001028 00 00r03r30           7587 	.dw	0,(Sstm8s_tim2$TIM2_PWMIConfig$219)
      00102C 00 00r03r3A           7588 	.dw	0,(Sstm8s_tim2$TIM2_PWMIConfig$220)
      001030 00 02                 7589 	.dw	2
      001032 78                    7590 	.db	120
      001033 04                    7591 	.sleb128	4
      001034 00 00r03r24           7592 	.dw	0,(Sstm8s_tim2$TIM2_PWMIConfig$217)
      001038 00 00r03r30           7593 	.dw	0,(Sstm8s_tim2$TIM2_PWMIConfig$219)
      00103C 00 02                 7594 	.dw	2
      00103E 78                    7595 	.db	120
      00103F 04                    7596 	.sleb128	4
      001040 00 00r03r1E           7597 	.dw	0,(Sstm8s_tim2$TIM2_PWMIConfig$216)
      001044 00 00r03r24           7598 	.dw	0,(Sstm8s_tim2$TIM2_PWMIConfig$217)
      001048 00 02                 7599 	.dw	2
      00104A 78                    7600 	.db	120
      00104B 08                    7601 	.sleb128	8
      00104C 00 00r03r1C           7602 	.dw	0,(Sstm8s_tim2$TIM2_PWMIConfig$215)
      001050 00 00r03r1E           7603 	.dw	0,(Sstm8s_tim2$TIM2_PWMIConfig$216)
      001054 00 02                 7604 	.dw	2
      001056 78                    7605 	.db	120
      001057 06                    7606 	.sleb128	6
      001058 00 00r03r1A           7607 	.dw	0,(Sstm8s_tim2$TIM2_PWMIConfig$214)
      00105C 00 00r03r1C           7608 	.dw	0,(Sstm8s_tim2$TIM2_PWMIConfig$215)
      001060 00 02                 7609 	.dw	2
      001062 78                    7610 	.db	120
      001063 05                    7611 	.sleb128	5
      001064 00 00r03r10           7612 	.dw	0,(Sstm8s_tim2$TIM2_PWMIConfig$213)
      001068 00 00r03r1A           7613 	.dw	0,(Sstm8s_tim2$TIM2_PWMIConfig$214)
      00106C 00 02                 7614 	.dw	2
      00106E 78                    7615 	.db	120
      00106F 04                    7616 	.sleb128	4
      001070 00 00r03r04           7617 	.dw	0,(Sstm8s_tim2$TIM2_PWMIConfig$211)
      001074 00 00r03r10           7618 	.dw	0,(Sstm8s_tim2$TIM2_PWMIConfig$213)
      001078 00 02                 7619 	.dw	2
      00107A 78                    7620 	.db	120
      00107B 04                    7621 	.sleb128	4
      00107C 00 00r02rFE           7622 	.dw	0,(Sstm8s_tim2$TIM2_PWMIConfig$210)
      001080 00 00r03r04           7623 	.dw	0,(Sstm8s_tim2$TIM2_PWMIConfig$211)
      001084 00 02                 7624 	.dw	2
      001086 78                    7625 	.db	120
      001087 08                    7626 	.sleb128	8
      001088 00 00r02rFC           7627 	.dw	0,(Sstm8s_tim2$TIM2_PWMIConfig$209)
      00108C 00 00r02rFE           7628 	.dw	0,(Sstm8s_tim2$TIM2_PWMIConfig$210)
      001090 00 02                 7629 	.dw	2
      001092 78                    7630 	.db	120
      001093 06                    7631 	.sleb128	6
      001094 00 00r02rFA           7632 	.dw	0,(Sstm8s_tim2$TIM2_PWMIConfig$208)
      001098 00 00r02rFC           7633 	.dw	0,(Sstm8s_tim2$TIM2_PWMIConfig$209)
      00109C 00 02                 7634 	.dw	2
      00109E 78                    7635 	.db	120
      00109F 05                    7636 	.sleb128	5
      0010A0 00 00r02rF8           7637 	.dw	0,(Sstm8s_tim2$TIM2_PWMIConfig$207)
      0010A4 00 00r02rFA           7638 	.dw	0,(Sstm8s_tim2$TIM2_PWMIConfig$208)
      0010A8 00 02                 7639 	.dw	2
      0010AA 78                    7640 	.db	120
      0010AB 04                    7641 	.sleb128	4
      0010AC 00 00r02rEF           7642 	.dw	0,(Sstm8s_tim2$TIM2_PWMIConfig$205)
      0010B0 00 00r02rF8           7643 	.dw	0,(Sstm8s_tim2$TIM2_PWMIConfig$207)
      0010B4 00 02                 7644 	.dw	2
      0010B6 78                    7645 	.db	120
      0010B7 04                    7646 	.sleb128	4
      0010B8 00 00r02rED           7647 	.dw	0,(Sstm8s_tim2$TIM2_PWMIConfig$204)
      0010BC 00 00r02rEF           7648 	.dw	0,(Sstm8s_tim2$TIM2_PWMIConfig$205)
      0010C0 00 02                 7649 	.dw	2
      0010C2 78                    7650 	.db	120
      0010C3 01                    7651 	.sleb128	1
      0010C4 00 00r02rEC           7652 	.dw	0,(Sstm8s_tim2$TIM2_ICInit$201)
      0010C8 00 00r02rED           7653 	.dw	0,(Sstm8s_tim2$TIM2_ICInit$202)
      0010CC 00 02                 7654 	.dw	2
      0010CE 78                    7655 	.db	120
      0010CF 7B                    7656 	.sleb128	-5
      0010D0 00 00r02rE3           7657 	.dw	0,(Sstm8s_tim2$TIM2_ICInit$197)
      0010D4 00 00r02rEC           7658 	.dw	0,(Sstm8s_tim2$TIM2_ICInit$201)
      0010D8 00 02                 7659 	.dw	2
      0010DA 78                    7660 	.db	120
      0010DB 03                    7661 	.sleb128	3
      0010DC 00 00r02rDE           7662 	.dw	0,(Sstm8s_tim2$TIM2_ICInit$196)
      0010E0 00 00r02rE3           7663 	.dw	0,(Sstm8s_tim2$TIM2_ICInit$197)
      0010E4 00 02                 7664 	.dw	2
      0010E6 78                    7665 	.db	120
      0010E7 05                    7666 	.sleb128	5
      0010E8 00 00r02rDB           7667 	.dw	0,(Sstm8s_tim2$TIM2_ICInit$195)
      0010EC 00 00r02rDE           7668 	.dw	0,(Sstm8s_tim2$TIM2_ICInit$196)
      0010F0 00 02                 7669 	.dw	2
      0010F2 78                    7670 	.db	120
      0010F3 04                    7671 	.sleb128	4
      0010F4 00 00r02rD1           7672 	.dw	0,(Sstm8s_tim2$TIM2_ICInit$190)
      0010F8 00 00r02rDB           7673 	.dw	0,(Sstm8s_tim2$TIM2_ICInit$195)
      0010FC 00 02                 7674 	.dw	2
      0010FE 78                    7675 	.db	120
      0010FF 03                    7676 	.sleb128	3
      001100 00 00r02rCC           7677 	.dw	0,(Sstm8s_tim2$TIM2_ICInit$189)
      001104 00 00r02rD1           7678 	.dw	0,(Sstm8s_tim2$TIM2_ICInit$190)
      001108 00 02                 7679 	.dw	2
      00110A 78                    7680 	.db	120
      00110B 05                    7681 	.sleb128	5
      00110C 00 00r02rC9           7682 	.dw	0,(Sstm8s_tim2$TIM2_ICInit$188)
      001110 00 00r02rCC           7683 	.dw	0,(Sstm8s_tim2$TIM2_ICInit$189)
      001114 00 02                 7684 	.dw	2
      001116 78                    7685 	.db	120
      001117 04                    7686 	.sleb128	4
      001118 00 00r02rBB           7687 	.dw	0,(Sstm8s_tim2$TIM2_ICInit$182)
      00111C 00 00r02rC9           7688 	.dw	0,(Sstm8s_tim2$TIM2_ICInit$188)
      001120 00 02                 7689 	.dw	2
      001122 78                    7690 	.db	120
      001123 03                    7691 	.sleb128	3
      001124 00 00r02rB6           7692 	.dw	0,(Sstm8s_tim2$TIM2_ICInit$181)
      001128 00 00r02rBB           7693 	.dw	0,(Sstm8s_tim2$TIM2_ICInit$182)
      00112C 00 02                 7694 	.dw	2
      00112E 78                    7695 	.db	120
      00112F 05                    7696 	.sleb128	5
      001130 00 00r02rB3           7697 	.dw	0,(Sstm8s_tim2$TIM2_ICInit$180)
      001134 00 00r02rB6           7698 	.dw	0,(Sstm8s_tim2$TIM2_ICInit$181)
      001138 00 02                 7699 	.dw	2
      00113A 78                    7700 	.db	120
      00113B 04                    7701 	.sleb128	4
      00113C 00 00r02rAC           7702 	.dw	0,(Sstm8s_tim2$TIM2_ICInit$176)
      001140 00 00r02rB3           7703 	.dw	0,(Sstm8s_tim2$TIM2_ICInit$180)
      001144 00 02                 7704 	.dw	2
      001146 78                    7705 	.db	120
      001147 03                    7706 	.sleb128	3
      001148 00 00r02rA6           7707 	.dw	0,(Sstm8s_tim2$TIM2_ICInit$175)
      00114C 00 00r02rAC           7708 	.dw	0,(Sstm8s_tim2$TIM2_ICInit$176)
      001150 00 02                 7709 	.dw	2
      001152 78                    7710 	.db	120
      001153 07                    7711 	.sleb128	7
      001154 00 00r02rA4           7712 	.dw	0,(Sstm8s_tim2$TIM2_ICInit$174)
      001158 00 00r02rA6           7713 	.dw	0,(Sstm8s_tim2$TIM2_ICInit$175)
      00115C 00 02                 7714 	.dw	2
      00115E 78                    7715 	.db	120
      00115F 06                    7716 	.sleb128	6
      001160 00 00r02rA2           7717 	.dw	0,(Sstm8s_tim2$TIM2_ICInit$173)
      001164 00 00r02rA4           7718 	.dw	0,(Sstm8s_tim2$TIM2_ICInit$174)
      001168 00 02                 7719 	.dw	2
      00116A 78                    7720 	.db	120
      00116B 04                    7721 	.sleb128	4
      00116C 00 00r02r9A           7722 	.dw	0,(Sstm8s_tim2$TIM2_ICInit$171)
      001170 00 00r02rA2           7723 	.dw	0,(Sstm8s_tim2$TIM2_ICInit$173)
      001174 00 02                 7724 	.dw	2
      001176 78                    7725 	.db	120
      001177 03                    7726 	.sleb128	3
      001178 00 00r02r94           7727 	.dw	0,(Sstm8s_tim2$TIM2_ICInit$170)
      00117C 00 00r02r9A           7728 	.dw	0,(Sstm8s_tim2$TIM2_ICInit$171)
      001180 00 02                 7729 	.dw	2
      001182 78                    7730 	.db	120
      001183 07                    7731 	.sleb128	7
      001184 00 00r02r92           7732 	.dw	0,(Sstm8s_tim2$TIM2_ICInit$169)
      001188 00 00r02r94           7733 	.dw	0,(Sstm8s_tim2$TIM2_ICInit$170)
      00118C 00 02                 7734 	.dw	2
      00118E 78                    7735 	.db	120
      00118F 06                    7736 	.sleb128	6
      001190 00 00r02r90           7737 	.dw	0,(Sstm8s_tim2$TIM2_ICInit$168)
      001194 00 00r02r92           7738 	.dw	0,(Sstm8s_tim2$TIM2_ICInit$169)
      001198 00 02                 7739 	.dw	2
      00119A 78                    7740 	.db	120
      00119B 04                    7741 	.sleb128	4
      00119C 00 00r02r8E           7742 	.dw	0,(Sstm8s_tim2$TIM2_ICInit$167)
      0011A0 00 00r02r90           7743 	.dw	0,(Sstm8s_tim2$TIM2_ICInit$168)
      0011A4 00 02                 7744 	.dw	2
      0011A6 78                    7745 	.db	120
      0011A7 03                    7746 	.sleb128	3
      0011A8 00 00r02r88           7747 	.dw	0,(Sstm8s_tim2$TIM2_ICInit$166)
      0011AC 00 00r02r8E           7748 	.dw	0,(Sstm8s_tim2$TIM2_ICInit$167)
      0011B0 00 02                 7749 	.dw	2
      0011B2 78                    7750 	.db	120
      0011B3 03                    7751 	.sleb128	3
      0011B4 00 00r02r82           7752 	.dw	0,(Sstm8s_tim2$TIM2_ICInit$165)
      0011B8 00 00r02r88           7753 	.dw	0,(Sstm8s_tim2$TIM2_ICInit$166)
      0011BC 00 02                 7754 	.dw	2
      0011BE 78                    7755 	.db	120
      0011BF 03                    7756 	.sleb128	3
      0011C0 00 00r02r78           7757 	.dw	0,(Sstm8s_tim2$TIM2_ICInit$163)
      0011C4 00 00r02r82           7758 	.dw	0,(Sstm8s_tim2$TIM2_ICInit$165)
      0011C8 00 02                 7759 	.dw	2
      0011CA 78                    7760 	.db	120
      0011CB 03                    7761 	.sleb128	3
      0011CC 00 00r02r72           7762 	.dw	0,(Sstm8s_tim2$TIM2_ICInit$162)
      0011D0 00 00r02r78           7763 	.dw	0,(Sstm8s_tim2$TIM2_ICInit$163)
      0011D4 00 02                 7764 	.dw	2
      0011D6 78                    7765 	.db	120
      0011D7 07                    7766 	.sleb128	7
      0011D8 00 00r02r70           7767 	.dw	0,(Sstm8s_tim2$TIM2_ICInit$161)
      0011DC 00 00r02r72           7768 	.dw	0,(Sstm8s_tim2$TIM2_ICInit$162)
      0011E0 00 02                 7769 	.dw	2
      0011E2 78                    7770 	.db	120
      0011E3 06                    7771 	.sleb128	6
      0011E4 00 00r02r6E           7772 	.dw	0,(Sstm8s_tim2$TIM2_ICInit$160)
      0011E8 00 00r02r70           7773 	.dw	0,(Sstm8s_tim2$TIM2_ICInit$161)
      0011EC 00 02                 7774 	.dw	2
      0011EE 78                    7775 	.db	120
      0011EF 04                    7776 	.sleb128	4
      0011F0 00 00r02r6C           7777 	.dw	0,(Sstm8s_tim2$TIM2_ICInit$159)
      0011F4 00 00r02r6E           7778 	.dw	0,(Sstm8s_tim2$TIM2_ICInit$160)
      0011F8 00 02                 7779 	.dw	2
      0011FA 78                    7780 	.db	120
      0011FB 03                    7781 	.sleb128	3
      0011FC 00 00r02r66           7782 	.dw	0,(Sstm8s_tim2$TIM2_ICInit$158)
      001200 00 00r02r6C           7783 	.dw	0,(Sstm8s_tim2$TIM2_ICInit$159)
      001204 00 02                 7784 	.dw	2
      001206 78                    7785 	.db	120
      001207 03                    7786 	.sleb128	3
      001208 00 00r02r60           7787 	.dw	0,(Sstm8s_tim2$TIM2_ICInit$157)
      00120C 00 00r02r66           7788 	.dw	0,(Sstm8s_tim2$TIM2_ICInit$158)
      001210 00 02                 7789 	.dw	2
      001212 78                    7790 	.db	120
      001213 03                    7791 	.sleb128	3
      001214 00 00r02r5B           7792 	.dw	0,(Sstm8s_tim2$TIM2_ICInit$155)
      001218 00 00r02r60           7793 	.dw	0,(Sstm8s_tim2$TIM2_ICInit$157)
      00121C 00 02                 7794 	.dw	2
      00121E 78                    7795 	.db	120
      00121F 03                    7796 	.sleb128	3
      001220 00 00r02r55           7797 	.dw	0,(Sstm8s_tim2$TIM2_ICInit$154)
      001224 00 00r02r5B           7798 	.dw	0,(Sstm8s_tim2$TIM2_ICInit$155)
      001228 00 02                 7799 	.dw	2
      00122A 78                    7800 	.db	120
      00122B 07                    7801 	.sleb128	7
      00122C 00 00r02r53           7802 	.dw	0,(Sstm8s_tim2$TIM2_ICInit$153)
      001230 00 00r02r55           7803 	.dw	0,(Sstm8s_tim2$TIM2_ICInit$154)
      001234 00 02                 7804 	.dw	2
      001236 78                    7805 	.db	120
      001237 06                    7806 	.sleb128	6
      001238 00 00r02r51           7807 	.dw	0,(Sstm8s_tim2$TIM2_ICInit$152)
      00123C 00 00r02r53           7808 	.dw	0,(Sstm8s_tim2$TIM2_ICInit$153)
      001240 00 02                 7809 	.dw	2
      001242 78                    7810 	.db	120
      001243 04                    7811 	.sleb128	4
      001244 00 00r02r4F           7812 	.dw	0,(Sstm8s_tim2$TIM2_ICInit$151)
      001248 00 00r02r51           7813 	.dw	0,(Sstm8s_tim2$TIM2_ICInit$152)
      00124C 00 02                 7814 	.dw	2
      00124E 78                    7815 	.db	120
      00124F 03                    7816 	.sleb128	3
      001250 00 00r02r45           7817 	.dw	0,(Sstm8s_tim2$TIM2_ICInit$149)
      001254 00 00r02r4F           7818 	.dw	0,(Sstm8s_tim2$TIM2_ICInit$151)
      001258 00 02                 7819 	.dw	2
      00125A 78                    7820 	.db	120
      00125B 03                    7821 	.sleb128	3
      00125C 00 00r02r3F           7822 	.dw	0,(Sstm8s_tim2$TIM2_ICInit$148)
      001260 00 00r02r45           7823 	.dw	0,(Sstm8s_tim2$TIM2_ICInit$149)
      001264 00 02                 7824 	.dw	2
      001266 78                    7825 	.db	120
      001267 07                    7826 	.sleb128	7
      001268 00 00r02r3D           7827 	.dw	0,(Sstm8s_tim2$TIM2_ICInit$147)
      00126C 00 00r02r3F           7828 	.dw	0,(Sstm8s_tim2$TIM2_ICInit$148)
      001270 00 02                 7829 	.dw	2
      001272 78                    7830 	.db	120
      001273 06                    7831 	.sleb128	6
      001274 00 00r02r3B           7832 	.dw	0,(Sstm8s_tim2$TIM2_ICInit$146)
      001278 00 00r02r3D           7833 	.dw	0,(Sstm8s_tim2$TIM2_ICInit$147)
      00127C 00 02                 7834 	.dw	2
      00127E 78                    7835 	.db	120
      00127F 04                    7836 	.sleb128	4
      001280 00 00r02r39           7837 	.dw	0,(Sstm8s_tim2$TIM2_ICInit$145)
      001284 00 00r02r3B           7838 	.dw	0,(Sstm8s_tim2$TIM2_ICInit$146)
      001288 00 02                 7839 	.dw	2
      00128A 78                    7840 	.db	120
      00128B 03                    7841 	.sleb128	3
      00128C 00 00r02r2B           7842 	.dw	0,(Sstm8s_tim2$TIM2_ICInit$144)
      001290 00 00r02r39           7843 	.dw	0,(Sstm8s_tim2$TIM2_ICInit$145)
      001294 00 02                 7844 	.dw	2
      001296 78                    7845 	.db	120
      001297 03                    7846 	.sleb128	3
      001298 00 00r02r1F           7847 	.dw	0,(Sstm8s_tim2$TIM2_ICInit$142)
      00129C 00 00r02r2B           7848 	.dw	0,(Sstm8s_tim2$TIM2_ICInit$144)
      0012A0 00 02                 7849 	.dw	2
      0012A2 78                    7850 	.db	120
      0012A3 03                    7851 	.sleb128	3
      0012A4 00 00r02r1E           7852 	.dw	0,(Sstm8s_tim2$TIM2_ICInit$141)
      0012A8 00 00r02r1F           7853 	.dw	0,(Sstm8s_tim2$TIM2_ICInit$142)
      0012AC 00 02                 7854 	.dw	2
      0012AE 78                    7855 	.db	120
      0012AF 01                    7856 	.sleb128	1
      0012B0 00 00r02r1D           7857 	.dw	0,(Sstm8s_tim2$TIM2_OC3Init$138)
      0012B4 00 00r02r1E           7858 	.dw	0,(Sstm8s_tim2$TIM2_OC3Init$139)
      0012B8 00 02                 7859 	.dw	2
      0012BA 78                    7860 	.db	120
      0012BB 7B                    7861 	.sleb128	-5
      0012BC 00 00r01rE7           7862 	.dw	0,(Sstm8s_tim2$TIM2_OC3Init$129)
      0012C0 00 00r02r1D           7863 	.dw	0,(Sstm8s_tim2$TIM2_OC3Init$138)
      0012C4 00 02                 7864 	.dw	2
      0012C6 78                    7865 	.db	120
      0012C7 04                    7866 	.sleb128	4
      0012C8 00 00r01rE1           7867 	.dw	0,(Sstm8s_tim2$TIM2_OC3Init$128)
      0012CC 00 00r01rE7           7868 	.dw	0,(Sstm8s_tim2$TIM2_OC3Init$129)
      0012D0 00 02                 7869 	.dw	2
      0012D2 78                    7870 	.db	120
      0012D3 08                    7871 	.sleb128	8
      0012D4 00 00r01rDF           7872 	.dw	0,(Sstm8s_tim2$TIM2_OC3Init$127)
      0012D8 00 00r01rE1           7873 	.dw	0,(Sstm8s_tim2$TIM2_OC3Init$128)
      0012DC 00 02                 7874 	.dw	2
      0012DE 78                    7875 	.db	120
      0012DF 07                    7876 	.sleb128	7
      0012E0 00 00r01rDD           7877 	.dw	0,(Sstm8s_tim2$TIM2_OC3Init$126)
      0012E4 00 00r01rDF           7878 	.dw	0,(Sstm8s_tim2$TIM2_OC3Init$127)
      0012E8 00 02                 7879 	.dw	2
      0012EA 78                    7880 	.db	120
      0012EB 05                    7881 	.sleb128	5
      0012EC 00 00r01rDB           7882 	.dw	0,(Sstm8s_tim2$TIM2_OC3Init$125)
      0012F0 00 00r01rDD           7883 	.dw	0,(Sstm8s_tim2$TIM2_OC3Init$126)
      0012F4 00 02                 7884 	.dw	2
      0012F6 78                    7885 	.db	120
      0012F7 04                    7886 	.sleb128	4
      0012F8 00 00r01rD1           7887 	.dw	0,(Sstm8s_tim2$TIM2_OC3Init$123)
      0012FC 00 00r01rDB           7888 	.dw	0,(Sstm8s_tim2$TIM2_OC3Init$125)
      001300 00 02                 7889 	.dw	2
      001302 78                    7890 	.db	120
      001303 04                    7891 	.sleb128	4
      001304 00 00r01rCB           7892 	.dw	0,(Sstm8s_tim2$TIM2_OC3Init$122)
      001308 00 00r01rD1           7893 	.dw	0,(Sstm8s_tim2$TIM2_OC3Init$123)
      00130C 00 02                 7894 	.dw	2
      00130E 78                    7895 	.db	120
      00130F 08                    7896 	.sleb128	8
      001310 00 00r01rC9           7897 	.dw	0,(Sstm8s_tim2$TIM2_OC3Init$121)
      001314 00 00r01rCB           7898 	.dw	0,(Sstm8s_tim2$TIM2_OC3Init$122)
      001318 00 02                 7899 	.dw	2
      00131A 78                    7900 	.db	120
      00131B 07                    7901 	.sleb128	7
      00131C 00 00r01rC7           7902 	.dw	0,(Sstm8s_tim2$TIM2_OC3Init$120)
      001320 00 00r01rC9           7903 	.dw	0,(Sstm8s_tim2$TIM2_OC3Init$121)
      001324 00 02                 7904 	.dw	2
      001326 78                    7905 	.db	120
      001327 05                    7906 	.sleb128	5
      001328 00 00r01rC5           7907 	.dw	0,(Sstm8s_tim2$TIM2_OC3Init$119)
      00132C 00 00r01rC7           7908 	.dw	0,(Sstm8s_tim2$TIM2_OC3Init$120)
      001330 00 02                 7909 	.dw	2
      001332 78                    7910 	.db	120
      001333 04                    7911 	.sleb128	4
      001334 00 00r01rBB           7912 	.dw	0,(Sstm8s_tim2$TIM2_OC3Init$117)
      001338 00 00r01rC5           7913 	.dw	0,(Sstm8s_tim2$TIM2_OC3Init$119)
      00133C 00 02                 7914 	.dw	2
      00133E 78                    7915 	.db	120
      00133F 04                    7916 	.sleb128	4
      001340 00 00r01rB5           7917 	.dw	0,(Sstm8s_tim2$TIM2_OC3Init$116)
      001344 00 00r01rBB           7918 	.dw	0,(Sstm8s_tim2$TIM2_OC3Init$117)
      001348 00 02                 7919 	.dw	2
      00134A 78                    7920 	.db	120
      00134B 08                    7921 	.sleb128	8
      00134C 00 00r01rB3           7922 	.dw	0,(Sstm8s_tim2$TIM2_OC3Init$115)
      001350 00 00r01rB5           7923 	.dw	0,(Sstm8s_tim2$TIM2_OC3Init$116)
      001354 00 02                 7924 	.dw	2
      001356 78                    7925 	.db	120
      001357 07                    7926 	.sleb128	7
      001358 00 00r01rB1           7927 	.dw	0,(Sstm8s_tim2$TIM2_OC3Init$114)
      00135C 00 00r01rB3           7928 	.dw	0,(Sstm8s_tim2$TIM2_OC3Init$115)
      001360 00 02                 7929 	.dw	2
      001362 78                    7930 	.db	120
      001363 05                    7931 	.sleb128	5
      001364 00 00r01rAF           7932 	.dw	0,(Sstm8s_tim2$TIM2_OC3Init$113)
      001368 00 00r01rB1           7933 	.dw	0,(Sstm8s_tim2$TIM2_OC3Init$114)
      00136C 00 02                 7934 	.dw	2
      00136E 78                    7935 	.db	120
      00136F 04                    7936 	.sleb128	4
      001370 00 00r01rA9           7937 	.dw	0,(Sstm8s_tim2$TIM2_OC3Init$112)
      001374 00 00r01rAF           7938 	.dw	0,(Sstm8s_tim2$TIM2_OC3Init$113)
      001378 00 02                 7939 	.dw	2
      00137A 78                    7940 	.db	120
      00137B 04                    7941 	.sleb128	4
      00137C 00 00r01rA3           7942 	.dw	0,(Sstm8s_tim2$TIM2_OC3Init$111)
      001380 00 00r01rA9           7943 	.dw	0,(Sstm8s_tim2$TIM2_OC3Init$112)
      001384 00 02                 7944 	.dw	2
      001386 78                    7945 	.db	120
      001387 04                    7946 	.sleb128	4
      001388 00 00r01r9D           7947 	.dw	0,(Sstm8s_tim2$TIM2_OC3Init$110)
      00138C 00 00r01rA3           7948 	.dw	0,(Sstm8s_tim2$TIM2_OC3Init$111)
      001390 00 02                 7949 	.dw	2
      001392 78                    7950 	.db	120
      001393 04                    7951 	.sleb128	4
      001394 00 00r01r97           7952 	.dw	0,(Sstm8s_tim2$TIM2_OC3Init$109)
      001398 00 00r01r9D           7953 	.dw	0,(Sstm8s_tim2$TIM2_OC3Init$110)
      00139C 00 02                 7954 	.dw	2
      00139E 78                    7955 	.db	120
      00139F 04                    7956 	.sleb128	4
      0013A0 00 00r01r8D           7957 	.dw	0,(Sstm8s_tim2$TIM2_OC3Init$107)
      0013A4 00 00r01r97           7958 	.dw	0,(Sstm8s_tim2$TIM2_OC3Init$109)
      0013A8 00 02                 7959 	.dw	2
      0013AA 78                    7960 	.db	120
      0013AB 04                    7961 	.sleb128	4
      0013AC 00 00r01r8B           7962 	.dw	0,(Sstm8s_tim2$TIM2_OC3Init$106)
      0013B0 00 00r01r8D           7963 	.dw	0,(Sstm8s_tim2$TIM2_OC3Init$107)
      0013B4 00 02                 7964 	.dw	2
      0013B6 78                    7965 	.db	120
      0013B7 01                    7966 	.sleb128	1
      0013B8 00 00r01r8A           7967 	.dw	0,(Sstm8s_tim2$TIM2_OC2Init$103)
      0013BC 00 00r01r8B           7968 	.dw	0,(Sstm8s_tim2$TIM2_OC2Init$104)
      0013C0 00 02                 7969 	.dw	2
      0013C2 78                    7970 	.db	120
      0013C3 7B                    7971 	.sleb128	-5
      0013C4 00 00r01r54           7972 	.dw	0,(Sstm8s_tim2$TIM2_OC2Init$94)
      0013C8 00 00r01r8A           7973 	.dw	0,(Sstm8s_tim2$TIM2_OC2Init$103)
      0013CC 00 02                 7974 	.dw	2
      0013CE 78                    7975 	.db	120
      0013CF 04                    7976 	.sleb128	4
      0013D0 00 00r01r4E           7977 	.dw	0,(Sstm8s_tim2$TIM2_OC2Init$93)
      0013D4 00 00r01r54           7978 	.dw	0,(Sstm8s_tim2$TIM2_OC2Init$94)
      0013D8 00 02                 7979 	.dw	2
      0013DA 78                    7980 	.db	120
      0013DB 08                    7981 	.sleb128	8
      0013DC 00 00r01r4C           7982 	.dw	0,(Sstm8s_tim2$TIM2_OC2Init$92)
      0013E0 00 00r01r4E           7983 	.dw	0,(Sstm8s_tim2$TIM2_OC2Init$93)
      0013E4 00 02                 7984 	.dw	2
      0013E6 78                    7985 	.db	120
      0013E7 07                    7986 	.sleb128	7
      0013E8 00 00r01r4A           7987 	.dw	0,(Sstm8s_tim2$TIM2_OC2Init$91)
      0013EC 00 00r01r4C           7988 	.dw	0,(Sstm8s_tim2$TIM2_OC2Init$92)
      0013F0 00 02                 7989 	.dw	2
      0013F2 78                    7990 	.db	120
      0013F3 05                    7991 	.sleb128	5
      0013F4 00 00r01r48           7992 	.dw	0,(Sstm8s_tim2$TIM2_OC2Init$90)
      0013F8 00 00r01r4A           7993 	.dw	0,(Sstm8s_tim2$TIM2_OC2Init$91)
      0013FC 00 02                 7994 	.dw	2
      0013FE 78                    7995 	.db	120
      0013FF 04                    7996 	.sleb128	4
      001400 00 00r01r3E           7997 	.dw	0,(Sstm8s_tim2$TIM2_OC2Init$88)
      001404 00 00r01r48           7998 	.dw	0,(Sstm8s_tim2$TIM2_OC2Init$90)
      001408 00 02                 7999 	.dw	2
      00140A 78                    8000 	.db	120
      00140B 04                    8001 	.sleb128	4
      00140C 00 00r01r38           8002 	.dw	0,(Sstm8s_tim2$TIM2_OC2Init$87)
      001410 00 00r01r3E           8003 	.dw	0,(Sstm8s_tim2$TIM2_OC2Init$88)
      001414 00 02                 8004 	.dw	2
      001416 78                    8005 	.db	120
      001417 08                    8006 	.sleb128	8
      001418 00 00r01r36           8007 	.dw	0,(Sstm8s_tim2$TIM2_OC2Init$86)
      00141C 00 00r01r38           8008 	.dw	0,(Sstm8s_tim2$TIM2_OC2Init$87)
      001420 00 02                 8009 	.dw	2
      001422 78                    8010 	.db	120
      001423 07                    8011 	.sleb128	7
      001424 00 00r01r34           8012 	.dw	0,(Sstm8s_tim2$TIM2_OC2Init$85)
      001428 00 00r01r36           8013 	.dw	0,(Sstm8s_tim2$TIM2_OC2Init$86)
      00142C 00 02                 8014 	.dw	2
      00142E 78                    8015 	.db	120
      00142F 05                    8016 	.sleb128	5
      001430 00 00r01r32           8017 	.dw	0,(Sstm8s_tim2$TIM2_OC2Init$84)
      001434 00 00r01r34           8018 	.dw	0,(Sstm8s_tim2$TIM2_OC2Init$85)
      001438 00 02                 8019 	.dw	2
      00143A 78                    8020 	.db	120
      00143B 04                    8021 	.sleb128	4
      00143C 00 00r01r28           8022 	.dw	0,(Sstm8s_tim2$TIM2_OC2Init$82)
      001440 00 00r01r32           8023 	.dw	0,(Sstm8s_tim2$TIM2_OC2Init$84)
      001444 00 02                 8024 	.dw	2
      001446 78                    8025 	.db	120
      001447 04                    8026 	.sleb128	4
      001448 00 00r01r22           8027 	.dw	0,(Sstm8s_tim2$TIM2_OC2Init$81)
      00144C 00 00r01r28           8028 	.dw	0,(Sstm8s_tim2$TIM2_OC2Init$82)
      001450 00 02                 8029 	.dw	2
      001452 78                    8030 	.db	120
      001453 08                    8031 	.sleb128	8
      001454 00 00r01r20           8032 	.dw	0,(Sstm8s_tim2$TIM2_OC2Init$80)
      001458 00 00r01r22           8033 	.dw	0,(Sstm8s_tim2$TIM2_OC2Init$81)
      00145C 00 02                 8034 	.dw	2
      00145E 78                    8035 	.db	120
      00145F 07                    8036 	.sleb128	7
      001460 00 00r01r1E           8037 	.dw	0,(Sstm8s_tim2$TIM2_OC2Init$79)
      001464 00 00r01r20           8038 	.dw	0,(Sstm8s_tim2$TIM2_OC2Init$80)
      001468 00 02                 8039 	.dw	2
      00146A 78                    8040 	.db	120
      00146B 05                    8041 	.sleb128	5
      00146C 00 00r01r1C           8042 	.dw	0,(Sstm8s_tim2$TIM2_OC2Init$78)
      001470 00 00r01r1E           8043 	.dw	0,(Sstm8s_tim2$TIM2_OC2Init$79)
      001474 00 02                 8044 	.dw	2
      001476 78                    8045 	.db	120
      001477 04                    8046 	.sleb128	4
      001478 00 00r01r16           8047 	.dw	0,(Sstm8s_tim2$TIM2_OC2Init$77)
      00147C 00 00r01r1C           8048 	.dw	0,(Sstm8s_tim2$TIM2_OC2Init$78)
      001480 00 02                 8049 	.dw	2
      001482 78                    8050 	.db	120
      001483 04                    8051 	.sleb128	4
      001484 00 00r01r10           8052 	.dw	0,(Sstm8s_tim2$TIM2_OC2Init$76)
      001488 00 00r01r16           8053 	.dw	0,(Sstm8s_tim2$TIM2_OC2Init$77)
      00148C 00 02                 8054 	.dw	2
      00148E 78                    8055 	.db	120
      00148F 04                    8056 	.sleb128	4
      001490 00 00r01r0A           8057 	.dw	0,(Sstm8s_tim2$TIM2_OC2Init$75)
      001494 00 00r01r10           8058 	.dw	0,(Sstm8s_tim2$TIM2_OC2Init$76)
      001498 00 02                 8059 	.dw	2
      00149A 78                    8060 	.db	120
      00149B 04                    8061 	.sleb128	4
      00149C 00 00r01r04           8062 	.dw	0,(Sstm8s_tim2$TIM2_OC2Init$74)
      0014A0 00 00r01r0A           8063 	.dw	0,(Sstm8s_tim2$TIM2_OC2Init$75)
      0014A4 00 02                 8064 	.dw	2
      0014A6 78                    8065 	.db	120
      0014A7 04                    8066 	.sleb128	4
      0014A8 00 00r00rFA           8067 	.dw	0,(Sstm8s_tim2$TIM2_OC2Init$72)
      0014AC 00 00r01r04           8068 	.dw	0,(Sstm8s_tim2$TIM2_OC2Init$74)
      0014B0 00 02                 8069 	.dw	2
      0014B2 78                    8070 	.db	120
      0014B3 04                    8071 	.sleb128	4
      0014B4 00 00r00rF8           8072 	.dw	0,(Sstm8s_tim2$TIM2_OC2Init$71)
      0014B8 00 00r00rFA           8073 	.dw	0,(Sstm8s_tim2$TIM2_OC2Init$72)
      0014BC 00 02                 8074 	.dw	2
      0014BE 78                    8075 	.db	120
      0014BF 01                    8076 	.sleb128	1
      0014C0 00 00r00rF7           8077 	.dw	0,(Sstm8s_tim2$TIM2_OC1Init$68)
      0014C4 00 00r00rF8           8078 	.dw	0,(Sstm8s_tim2$TIM2_OC1Init$69)
      0014C8 00 02                 8079 	.dw	2
      0014CA 78                    8080 	.db	120
      0014CB 7B                    8081 	.sleb128	-5
      0014CC 00 00r00rC1           8082 	.dw	0,(Sstm8s_tim2$TIM2_OC1Init$59)
      0014D0 00 00r00rF7           8083 	.dw	0,(Sstm8s_tim2$TIM2_OC1Init$68)
      0014D4 00 02                 8084 	.dw	2
      0014D6 78                    8085 	.db	120
      0014D7 04                    8086 	.sleb128	4
      0014D8 00 00r00rBB           8087 	.dw	0,(Sstm8s_tim2$TIM2_OC1Init$58)
      0014DC 00 00r00rC1           8088 	.dw	0,(Sstm8s_tim2$TIM2_OC1Init$59)
      0014E0 00 02                 8089 	.dw	2
      0014E2 78                    8090 	.db	120
      0014E3 08                    8091 	.sleb128	8
      0014E4 00 00r00rB9           8092 	.dw	0,(Sstm8s_tim2$TIM2_OC1Init$57)
      0014E8 00 00r00rBB           8093 	.dw	0,(Sstm8s_tim2$TIM2_OC1Init$58)
      0014EC 00 02                 8094 	.dw	2
      0014EE 78                    8095 	.db	120
      0014EF 07                    8096 	.sleb128	7
      0014F0 00 00r00rB7           8097 	.dw	0,(Sstm8s_tim2$TIM2_OC1Init$56)
      0014F4 00 00r00rB9           8098 	.dw	0,(Sstm8s_tim2$TIM2_OC1Init$57)
      0014F8 00 02                 8099 	.dw	2
      0014FA 78                    8100 	.db	120
      0014FB 05                    8101 	.sleb128	5
      0014FC 00 00r00rB5           8102 	.dw	0,(Sstm8s_tim2$TIM2_OC1Init$55)
      001500 00 00r00rB7           8103 	.dw	0,(Sstm8s_tim2$TIM2_OC1Init$56)
      001504 00 02                 8104 	.dw	2
      001506 78                    8105 	.db	120
      001507 04                    8106 	.sleb128	4
      001508 00 00r00rAB           8107 	.dw	0,(Sstm8s_tim2$TIM2_OC1Init$53)
      00150C 00 00r00rB5           8108 	.dw	0,(Sstm8s_tim2$TIM2_OC1Init$55)
      001510 00 02                 8109 	.dw	2
      001512 78                    8110 	.db	120
      001513 04                    8111 	.sleb128	4
      001514 00 00r00rA5           8112 	.dw	0,(Sstm8s_tim2$TIM2_OC1Init$52)
      001518 00 00r00rAB           8113 	.dw	0,(Sstm8s_tim2$TIM2_OC1Init$53)
      00151C 00 02                 8114 	.dw	2
      00151E 78                    8115 	.db	120
      00151F 08                    8116 	.sleb128	8
      001520 00 00r00rA3           8117 	.dw	0,(Sstm8s_tim2$TIM2_OC1Init$51)
      001524 00 00r00rA5           8118 	.dw	0,(Sstm8s_tim2$TIM2_OC1Init$52)
      001528 00 02                 8119 	.dw	2
      00152A 78                    8120 	.db	120
      00152B 07                    8121 	.sleb128	7
      00152C 00 00r00rA1           8122 	.dw	0,(Sstm8s_tim2$TIM2_OC1Init$50)
      001530 00 00r00rA3           8123 	.dw	0,(Sstm8s_tim2$TIM2_OC1Init$51)
      001534 00 02                 8124 	.dw	2
      001536 78                    8125 	.db	120
      001537 05                    8126 	.sleb128	5
      001538 00 00r00r9F           8127 	.dw	0,(Sstm8s_tim2$TIM2_OC1Init$49)
      00153C 00 00r00rA1           8128 	.dw	0,(Sstm8s_tim2$TIM2_OC1Init$50)
      001540 00 02                 8129 	.dw	2
      001542 78                    8130 	.db	120
      001543 04                    8131 	.sleb128	4
      001544 00 00r00r95           8132 	.dw	0,(Sstm8s_tim2$TIM2_OC1Init$47)
      001548 00 00r00r9F           8133 	.dw	0,(Sstm8s_tim2$TIM2_OC1Init$49)
      00154C 00 02                 8134 	.dw	2
      00154E 78                    8135 	.db	120
      00154F 04                    8136 	.sleb128	4
      001550 00 00r00r8F           8137 	.dw	0,(Sstm8s_tim2$TIM2_OC1Init$46)
      001554 00 00r00r95           8138 	.dw	0,(Sstm8s_tim2$TIM2_OC1Init$47)
      001558 00 02                 8139 	.dw	2
      00155A 78                    8140 	.db	120
      00155B 08                    8141 	.sleb128	8
      00155C 00 00r00r8D           8142 	.dw	0,(Sstm8s_tim2$TIM2_OC1Init$45)
      001560 00 00r00r8F           8143 	.dw	0,(Sstm8s_tim2$TIM2_OC1Init$46)
      001564 00 02                 8144 	.dw	2
      001566 78                    8145 	.db	120
      001567 07                    8146 	.sleb128	7
      001568 00 00r00r8B           8147 	.dw	0,(Sstm8s_tim2$TIM2_OC1Init$44)
      00156C 00 00r00r8D           8148 	.dw	0,(Sstm8s_tim2$TIM2_OC1Init$45)
      001570 00 02                 8149 	.dw	2
      001572 78                    8150 	.db	120
      001573 05                    8151 	.sleb128	5
      001574 00 00r00r89           8152 	.dw	0,(Sstm8s_tim2$TIM2_OC1Init$43)
      001578 00 00r00r8B           8153 	.dw	0,(Sstm8s_tim2$TIM2_OC1Init$44)
      00157C 00 02                 8154 	.dw	2
      00157E 78                    8155 	.db	120
      00157F 04                    8156 	.sleb128	4
      001580 00 00r00r83           8157 	.dw	0,(Sstm8s_tim2$TIM2_OC1Init$42)
      001584 00 00r00r89           8158 	.dw	0,(Sstm8s_tim2$TIM2_OC1Init$43)
      001588 00 02                 8159 	.dw	2
      00158A 78                    8160 	.db	120
      00158B 04                    8161 	.sleb128	4
      00158C 00 00r00r7D           8162 	.dw	0,(Sstm8s_tim2$TIM2_OC1Init$41)
      001590 00 00r00r83           8163 	.dw	0,(Sstm8s_tim2$TIM2_OC1Init$42)
      001594 00 02                 8164 	.dw	2
      001596 78                    8165 	.db	120
      001597 04                    8166 	.sleb128	4
      001598 00 00r00r77           8167 	.dw	0,(Sstm8s_tim2$TIM2_OC1Init$40)
      00159C 00 00r00r7D           8168 	.dw	0,(Sstm8s_tim2$TIM2_OC1Init$41)
      0015A0 00 02                 8169 	.dw	2
      0015A2 78                    8170 	.db	120
      0015A3 04                    8171 	.sleb128	4
      0015A4 00 00r00r71           8172 	.dw	0,(Sstm8s_tim2$TIM2_OC1Init$39)
      0015A8 00 00r00r77           8173 	.dw	0,(Sstm8s_tim2$TIM2_OC1Init$40)
      0015AC 00 02                 8174 	.dw	2
      0015AE 78                    8175 	.db	120
      0015AF 04                    8176 	.sleb128	4
      0015B0 00 00r00r67           8177 	.dw	0,(Sstm8s_tim2$TIM2_OC1Init$37)
      0015B4 00 00r00r71           8178 	.dw	0,(Sstm8s_tim2$TIM2_OC1Init$39)
      0015B8 00 02                 8179 	.dw	2
      0015BA 78                    8180 	.db	120
      0015BB 04                    8181 	.sleb128	4
      0015BC 00 00r00r65           8182 	.dw	0,(Sstm8s_tim2$TIM2_OC1Init$36)
      0015C0 00 00r00r67           8183 	.dw	0,(Sstm8s_tim2$TIM2_OC1Init$37)
      0015C4 00 02                 8184 	.dw	2
      0015C6 78                    8185 	.db	120
      0015C7 01                    8186 	.sleb128	1
      0015C8 00 00 00 00           8187 	.dw	0,0
      0015CC 00 00 00 00           8188 	.dw	0,0
      0015D0 00 00r00r59           8189 	.dw	0,(Sstm8s_tim2$TIM2_TimeBaseInit$28)
      0015D4 00 00r00r65           8190 	.dw	0,(Sstm8s_tim2$TIM2_TimeBaseInit$34)
      0015D8 00 02                 8191 	.dw	2
      0015DA 78                    8192 	.db	120
      0015DB 01                    8193 	.sleb128	1
      0015DC 00 00 00 00           8194 	.dw	0,0
      0015E0 00 00 00 00           8195 	.dw	0,0
      0015E4 00 00r00r00           8196 	.dw	0,(Sstm8s_tim2$TIM2_DeInit$1)
      0015E8 00 00r00r59           8197 	.dw	0,(Sstm8s_tim2$TIM2_DeInit$26)
      0015EC 00 02                 8198 	.dw	2
      0015EE 78                    8199 	.db	120
      0015EF 01                    8200 	.sleb128	1
      0015F0 00 00 00 00           8201 	.dw	0,0
      0015F4 00 00 00 00           8202 	.dw	0,0
                                   8203 
                                   8204 	.area .debug_abbrev (NOLOAD)
      000000                       8205 Ldebug_abbrev:
      000000 01                    8206 	.uleb128	1
      000001 11                    8207 	.uleb128	17
      000002 01                    8208 	.db	1
      000003 03                    8209 	.uleb128	3
      000004 08                    8210 	.uleb128	8
      000005 10                    8211 	.uleb128	16
      000006 06                    8212 	.uleb128	6
      000007 13                    8213 	.uleb128	19
      000008 0B                    8214 	.uleb128	11
      000009 25                    8215 	.uleb128	37
      00000A 08                    8216 	.uleb128	8
      00000B 00                    8217 	.uleb128	0
      00000C 00                    8218 	.uleb128	0
      00000D 02                    8219 	.uleb128	2
      00000E 2E                    8220 	.uleb128	46
      00000F 00                    8221 	.db	0
      000010 03                    8222 	.uleb128	3
      000011 08                    8223 	.uleb128	8
      000012 11                    8224 	.uleb128	17
      000013 01                    8225 	.uleb128	1
      000014 12                    8226 	.uleb128	18
      000015 01                    8227 	.uleb128	1
      000016 3F                    8228 	.uleb128	63
      000017 0C                    8229 	.uleb128	12
      000018 40                    8230 	.uleb128	64
      000019 06                    8231 	.uleb128	6
      00001A 00                    8232 	.uleb128	0
      00001B 00                    8233 	.uleb128	0
      00001C 03                    8234 	.uleb128	3
      00001D 2E                    8235 	.uleb128	46
      00001E 01                    8236 	.db	1
      00001F 01                    8237 	.uleb128	1
      000020 13                    8238 	.uleb128	19
      000021 03                    8239 	.uleb128	3
      000022 08                    8240 	.uleb128	8
      000023 11                    8241 	.uleb128	17
      000024 01                    8242 	.uleb128	1
      000025 12                    8243 	.uleb128	18
      000026 01                    8244 	.uleb128	1
      000027 3F                    8245 	.uleb128	63
      000028 0C                    8246 	.uleb128	12
      000029 40                    8247 	.uleb128	64
      00002A 06                    8248 	.uleb128	6
      00002B 00                    8249 	.uleb128	0
      00002C 00                    8250 	.uleb128	0
      00002D 04                    8251 	.uleb128	4
      00002E 05                    8252 	.uleb128	5
      00002F 00                    8253 	.db	0
      000030 02                    8254 	.uleb128	2
      000031 0A                    8255 	.uleb128	10
      000032 03                    8256 	.uleb128	3
      000033 08                    8257 	.uleb128	8
      000034 49                    8258 	.uleb128	73
      000035 13                    8259 	.uleb128	19
      000036 00                    8260 	.uleb128	0
      000037 00                    8261 	.uleb128	0
      000038 05                    8262 	.uleb128	5
      000039 24                    8263 	.uleb128	36
      00003A 00                    8264 	.db	0
      00003B 03                    8265 	.uleb128	3
      00003C 08                    8266 	.uleb128	8
      00003D 0B                    8267 	.uleb128	11
      00003E 0B                    8268 	.uleb128	11
      00003F 3E                    8269 	.uleb128	62
      000040 0B                    8270 	.uleb128	11
      000041 00                    8271 	.uleb128	0
      000042 00                    8272 	.uleb128	0
      000043 06                    8273 	.uleb128	6
      000044 2E                    8274 	.uleb128	46
      000045 01                    8275 	.db	1
      000046 01                    8276 	.uleb128	1
      000047 13                    8277 	.uleb128	19
      000048 03                    8278 	.uleb128	3
      000049 08                    8279 	.uleb128	8
      00004A 11                    8280 	.uleb128	17
      00004B 01                    8281 	.uleb128	1
      00004C 3F                    8282 	.uleb128	63
      00004D 0C                    8283 	.uleb128	12
      00004E 00                    8284 	.uleb128	0
      00004F 00                    8285 	.uleb128	0
      000050 07                    8286 	.uleb128	7
      000051 0B                    8287 	.uleb128	11
      000052 00                    8288 	.db	0
      000053 11                    8289 	.uleb128	17
      000054 01                    8290 	.uleb128	1
      000055 12                    8291 	.uleb128	18
      000056 01                    8292 	.uleb128	1
      000057 00                    8293 	.uleb128	0
      000058 00                    8294 	.uleb128	0
      000059 08                    8295 	.uleb128	8
      00005A 34                    8296 	.uleb128	52
      00005B 00                    8297 	.db	0
      00005C 02                    8298 	.uleb128	2
      00005D 0A                    8299 	.uleb128	10
      00005E 03                    8300 	.uleb128	3
      00005F 08                    8301 	.uleb128	8
      000060 49                    8302 	.uleb128	73
      000061 13                    8303 	.uleb128	19
      000062 00                    8304 	.uleb128	0
      000063 00                    8305 	.uleb128	0
      000064 09                    8306 	.uleb128	9
      000065 0B                    8307 	.uleb128	11
      000066 01                    8308 	.db	1
      000067 01                    8309 	.uleb128	1
      000068 13                    8310 	.uleb128	19
      000069 11                    8311 	.uleb128	17
      00006A 01                    8312 	.uleb128	1
      00006B 00                    8313 	.uleb128	0
      00006C 00                    8314 	.uleb128	0
      00006D 0A                    8315 	.uleb128	10
      00006E 0B                    8316 	.uleb128	11
      00006F 01                    8317 	.db	1
      000070 11                    8318 	.uleb128	17
      000071 01                    8319 	.uleb128	1
      000072 00                    8320 	.uleb128	0
      000073 00                    8321 	.uleb128	0
      000074 0B                    8322 	.uleb128	11
      000075 2E                    8323 	.uleb128	46
      000076 01                    8324 	.db	1
      000077 01                    8325 	.uleb128	1
      000078 13                    8326 	.uleb128	19
      000079 03                    8327 	.uleb128	3
      00007A 08                    8328 	.uleb128	8
      00007B 11                    8329 	.uleb128	17
      00007C 01                    8330 	.uleb128	1
      00007D 12                    8331 	.uleb128	18
      00007E 01                    8332 	.uleb128	1
      00007F 3F                    8333 	.uleb128	63
      000080 0C                    8334 	.uleb128	12
      000081 40                    8335 	.uleb128	64
      000082 06                    8336 	.uleb128	6
      000083 49                    8337 	.uleb128	73
      000084 13                    8338 	.uleb128	19
      000085 00                    8339 	.uleb128	0
      000086 00                    8340 	.uleb128	0
      000087 0C                    8341 	.uleb128	12
      000088 2E                    8342 	.uleb128	46
      000089 00                    8343 	.db	0
      00008A 03                    8344 	.uleb128	3
      00008B 08                    8345 	.uleb128	8
      00008C 11                    8346 	.uleb128	17
      00008D 01                    8347 	.uleb128	1
      00008E 12                    8348 	.uleb128	18
      00008F 01                    8349 	.uleb128	1
      000090 3F                    8350 	.uleb128	63
      000091 0C                    8351 	.uleb128	12
      000092 40                    8352 	.uleb128	64
      000093 06                    8353 	.uleb128	6
      000094 49                    8354 	.uleb128	73
      000095 13                    8355 	.uleb128	19
      000096 00                    8356 	.uleb128	0
      000097 00                    8357 	.uleb128	0
      000098 0D                    8358 	.uleb128	13
      000099 26                    8359 	.uleb128	38
      00009A 00                    8360 	.db	0
      00009B 49                    8361 	.uleb128	73
      00009C 13                    8362 	.uleb128	19
      00009D 00                    8363 	.uleb128	0
      00009E 00                    8364 	.uleb128	0
      00009F 0E                    8365 	.uleb128	14
      0000A0 01                    8366 	.uleb128	1
      0000A1 01                    8367 	.db	1
      0000A2 01                    8368 	.uleb128	1
      0000A3 13                    8369 	.uleb128	19
      0000A4 0B                    8370 	.uleb128	11
      0000A5 0B                    8371 	.uleb128	11
      0000A6 49                    8372 	.uleb128	73
      0000A7 13                    8373 	.uleb128	19
      0000A8 00                    8374 	.uleb128	0
      0000A9 00                    8375 	.uleb128	0
      0000AA 0F                    8376 	.uleb128	15
      0000AB 21                    8377 	.uleb128	33
      0000AC 00                    8378 	.db	0
      0000AD 2F                    8379 	.uleb128	47
      0000AE 0B                    8380 	.uleb128	11
      0000AF 00                    8381 	.uleb128	0
      0000B0 00                    8382 	.uleb128	0
      0000B1 00                    8383 	.uleb128	0
                                   8384 
                                   8385 	.area .debug_info (NOLOAD)
      000000 00 00 10 28           8386 	.dw	0,Ldebug_info_end-Ldebug_info_start
      000004                       8387 Ldebug_info_start:
      000004 00 02                 8388 	.dw	2
      000006 00 00r00r00           8389 	.dw	0,(Ldebug_abbrev)
      00000A 04                    8390 	.db	4
      00000B 01                    8391 	.uleb128	1
      00000C 2E 2F 53 54 4D 38 53  8392 	.ascii "./STM8S_StdPeriph_Lib/Libraries/STM8S_StdPeriph_Driver/src/stm8s_tim2.c"
             5F 53 74 64 50 65 72
             69 70 68 5F 4C 69 62
             2F 4C 69 62 72 61 72
             69 65 73 2F 53 54 4D
             38 53 5F 53 74 64 50
             65 72 69 70 68 5F 44
             72 69 76 65 72 2F 73
             72 63 2F 73 74 6D 38
             73 5F 74 69 6D 32 2E
             63
      000053 00                    8393 	.db	0
      000054 00 00r00r00           8394 	.dw	0,(Ldebug_line_start+-4)
      000058 01                    8395 	.db	1
      000059 53 44 43 43 20 76 65  8396 	.ascii "SDCC version 4.3.0 #14184"
             72 73 69 6F 6E 20 34
             2E 33 2E 30 20 23 31
             34 31 38 34
      000072 00                    8397 	.db	0
      000073 02                    8398 	.uleb128	2
      000074 54 49 4D 32 5F 44 65  8399 	.ascii "TIM2_DeInit"
             49 6E 69 74
      00007F 00                    8400 	.db	0
      000080 00 00r00r00           8401 	.dw	0,(_TIM2_DeInit)
      000084 00 00r00r59           8402 	.dw	0,(XG$TIM2_DeInit$0$0+1)
      000088 01                    8403 	.db	1
      000089 00 00r15rE4           8404 	.dw	0,(Ldebug_loc_start+5604)
      00008D 03                    8405 	.uleb128	3
      00008E 00 00 00 E0           8406 	.dw	0,224
      000092 54 49 4D 32 5F 54 69  8407 	.ascii "TIM2_TimeBaseInit"
             6D 65 42 61 73 65 49
             6E 69 74
      0000A3 00                    8408 	.db	0
      0000A4 00 00r00r59           8409 	.dw	0,(_TIM2_TimeBaseInit)
      0000A8 00 00r00r65           8410 	.dw	0,(XG$TIM2_TimeBaseInit$0$0+1)
      0000AC 01                    8411 	.db	1
      0000AD 00 00r15rD0           8412 	.dw	0,(Ldebug_loc_start+5584)
      0000B1 04                    8413 	.uleb128	4
      0000B2 01                    8414 	.db	1
      0000B3 50                    8415 	.db	80
      0000B4 54 49 4D 32 5F 50 72  8416 	.ascii "TIM2_Prescaler"
             65 73 63 61 6C 65 72
      0000C2 00                    8417 	.db	0
      0000C3 00 00 00 E0           8418 	.dw	0,224
      0000C7 04                    8419 	.uleb128	4
      0000C8 06                    8420 	.db	6
      0000C9 52                    8421 	.db	82
      0000CA 93                    8422 	.db	147
      0000CB 01                    8423 	.uleb128	1
      0000CC 51                    8424 	.db	81
      0000CD 93                    8425 	.db	147
      0000CE 01                    8426 	.uleb128	1
      0000CF 54 49 4D 32 5F 50 65  8427 	.ascii "TIM2_Period"
             72 69 6F 64
      0000DA 00                    8428 	.db	0
      0000DB 00 00 00 F1           8429 	.dw	0,241
      0000DF 00                    8430 	.uleb128	0
      0000E0 05                    8431 	.uleb128	5
      0000E1 75 6E 73 69 67 6E 65  8432 	.ascii "unsigned char"
             64 20 63 68 61 72
      0000EE 00                    8433 	.db	0
      0000EF 01                    8434 	.db	1
      0000F0 08                    8435 	.db	8
      0000F1 05                    8436 	.uleb128	5
      0000F2 75 6E 73 69 67 6E 65  8437 	.ascii "unsigned int"
             64 20 69 6E 74
      0000FE 00                    8438 	.db	0
      0000FF 02                    8439 	.db	2
      000100 07                    8440 	.db	7
      000101 06                    8441 	.uleb128	6
      000102 00 00 01 71           8442 	.dw	0,369
      000106 54 49 4D 32 5F 4F 43  8443 	.ascii "TIM2_OC1Init"
             31 49 6E 69 74
      000112 00                    8444 	.db	0
      000113 00 00r00r65           8445 	.dw	0,(_TIM2_OC1Init)
      000117 01                    8446 	.db	1
      000118 04                    8447 	.uleb128	4
      000119 02                    8448 	.db	2
      00011A 91                    8449 	.db	145
      00011B 7F                    8450 	.sleb128	-1
      00011C 54 49 4D 32 5F 4F 43  8451 	.ascii "TIM2_OCMode"
             4D 6F 64 65
      000127 00                    8452 	.db	0
      000128 00 00 00 E0           8453 	.dw	0,224
      00012C 04                    8454 	.uleb128	4
      00012D 02                    8455 	.db	2
      00012E 91                    8456 	.db	145
      00012F 02                    8457 	.sleb128	2
      000130 54 49 4D 32 5F 4F 75  8458 	.ascii "TIM2_OutputState"
             74 70 75 74 53 74 61
             74 65
      000140 00                    8459 	.db	0
      000141 00 00 00 E0           8460 	.dw	0,224
      000145 04                    8461 	.uleb128	4
      000146 02                    8462 	.db	2
      000147 91                    8463 	.db	145
      000148 03                    8464 	.sleb128	3
      000149 54 49 4D 32 5F 50 75  8465 	.ascii "TIM2_Pulse"
             6C 73 65
      000153 00                    8466 	.db	0
      000154 00 00 00 F1           8467 	.dw	0,241
      000158 04                    8468 	.uleb128	4
      000159 02                    8469 	.db	2
      00015A 91                    8470 	.db	145
      00015B 05                    8471 	.sleb128	5
      00015C 54 49 4D 32 5F 4F 43  8472 	.ascii "TIM2_OCPolarity"
             50 6F 6C 61 72 69 74
             79
      00016B 00                    8473 	.db	0
      00016C 00 00 00 E0           8474 	.dw	0,224
      000170 00                    8475 	.uleb128	0
      000171 06                    8476 	.uleb128	6
      000172 00 00 01 E1           8477 	.dw	0,481
      000176 54 49 4D 32 5F 4F 43  8478 	.ascii "TIM2_OC2Init"
             32 49 6E 69 74
      000182 00                    8479 	.db	0
      000183 00 00r00rF8           8480 	.dw	0,(_TIM2_OC2Init)
      000187 01                    8481 	.db	1
      000188 04                    8482 	.uleb128	4
      000189 02                    8483 	.db	2
      00018A 91                    8484 	.db	145
      00018B 7F                    8485 	.sleb128	-1
      00018C 54 49 4D 32 5F 4F 43  8486 	.ascii "TIM2_OCMode"
             4D 6F 64 65
      000197 00                    8487 	.db	0
      000198 00 00 00 E0           8488 	.dw	0,224
      00019C 04                    8489 	.uleb128	4
      00019D 02                    8490 	.db	2
      00019E 91                    8491 	.db	145
      00019F 02                    8492 	.sleb128	2
      0001A0 54 49 4D 32 5F 4F 75  8493 	.ascii "TIM2_OutputState"
             74 70 75 74 53 74 61
             74 65
      0001B0 00                    8494 	.db	0
      0001B1 00 00 00 E0           8495 	.dw	0,224
      0001B5 04                    8496 	.uleb128	4
      0001B6 02                    8497 	.db	2
      0001B7 91                    8498 	.db	145
      0001B8 03                    8499 	.sleb128	3
      0001B9 54 49 4D 32 5F 50 75  8500 	.ascii "TIM2_Pulse"
             6C 73 65
      0001C3 00                    8501 	.db	0
      0001C4 00 00 00 F1           8502 	.dw	0,241
      0001C8 04                    8503 	.uleb128	4
      0001C9 02                    8504 	.db	2
      0001CA 91                    8505 	.db	145
      0001CB 05                    8506 	.sleb128	5
      0001CC 54 49 4D 32 5F 4F 43  8507 	.ascii "TIM2_OCPolarity"
             50 6F 6C 61 72 69 74
             79
      0001DB 00                    8508 	.db	0
      0001DC 00 00 00 E0           8509 	.dw	0,224
      0001E0 00                    8510 	.uleb128	0
      0001E1 06                    8511 	.uleb128	6
      0001E2 00 00 02 51           8512 	.dw	0,593
      0001E6 54 49 4D 32 5F 4F 43  8513 	.ascii "TIM2_OC3Init"
             33 49 6E 69 74
      0001F2 00                    8514 	.db	0
      0001F3 00 00r01r8B           8515 	.dw	0,(_TIM2_OC3Init)
      0001F7 01                    8516 	.db	1
      0001F8 04                    8517 	.uleb128	4
      0001F9 02                    8518 	.db	2
      0001FA 91                    8519 	.db	145
      0001FB 7F                    8520 	.sleb128	-1
      0001FC 54 49 4D 32 5F 4F 43  8521 	.ascii "TIM2_OCMode"
             4D 6F 64 65
      000207 00                    8522 	.db	0
      000208 00 00 00 E0           8523 	.dw	0,224
      00020C 04                    8524 	.uleb128	4
      00020D 02                    8525 	.db	2
      00020E 91                    8526 	.db	145
      00020F 02                    8527 	.sleb128	2
      000210 54 49 4D 32 5F 4F 75  8528 	.ascii "TIM2_OutputState"
             74 70 75 74 53 74 61
             74 65
      000220 00                    8529 	.db	0
      000221 00 00 00 E0           8530 	.dw	0,224
      000225 04                    8531 	.uleb128	4
      000226 02                    8532 	.db	2
      000227 91                    8533 	.db	145
      000228 03                    8534 	.sleb128	3
      000229 54 49 4D 32 5F 50 75  8535 	.ascii "TIM2_Pulse"
             6C 73 65
      000233 00                    8536 	.db	0
      000234 00 00 00 F1           8537 	.dw	0,241
      000238 04                    8538 	.uleb128	4
      000239 02                    8539 	.db	2
      00023A 91                    8540 	.db	145
      00023B 05                    8541 	.sleb128	5
      00023C 54 49 4D 32 5F 4F 43  8542 	.ascii "TIM2_OCPolarity"
             50 6F 6C 61 72 69 74
             79
      00024B 00                    8543 	.db	0
      00024C 00 00 00 E0           8544 	.dw	0,224
      000250 00                    8545 	.uleb128	0
      000251 06                    8546 	.uleb128	6
      000252 00 00 02 F8           8547 	.dw	0,760
      000256 54 49 4D 32 5F 49 43  8548 	.ascii "TIM2_ICInit"
             49 6E 69 74
      000261 00                    8549 	.db	0
      000262 00 00r02r1E           8550 	.dw	0,(_TIM2_ICInit)
      000266 01                    8551 	.db	1
      000267 04                    8552 	.uleb128	4
      000268 02                    8553 	.db	2
      000269 91                    8554 	.db	145
      00026A 7F                    8555 	.sleb128	-1
      00026B 54 49 4D 32 5F 43 68  8556 	.ascii "TIM2_Channel"
             61 6E 6E 65 6C
      000277 00                    8557 	.db	0
      000278 00 00 00 E0           8558 	.dw	0,224
      00027C 04                    8559 	.uleb128	4
      00027D 02                    8560 	.db	2
      00027E 91                    8561 	.db	145
      00027F 02                    8562 	.sleb128	2
      000280 54 49 4D 32 5F 49 43  8563 	.ascii "TIM2_ICPolarity"
             50 6F 6C 61 72 69 74
             79
      00028F 00                    8564 	.db	0
      000290 00 00 00 E0           8565 	.dw	0,224
      000294 04                    8566 	.uleb128	4
      000295 02                    8567 	.db	2
      000296 91                    8568 	.db	145
      000297 03                    8569 	.sleb128	3
      000298 54 49 4D 32 5F 49 43  8570 	.ascii "TIM2_ICSelection"
             53 65 6C 65 63 74 69
             6F 6E
      0002A8 00                    8571 	.db	0
      0002A9 00 00 00 E0           8572 	.dw	0,224
      0002AD 04                    8573 	.uleb128	4
      0002AE 02                    8574 	.db	2
      0002AF 91                    8575 	.db	145
      0002B0 04                    8576 	.sleb128	4
      0002B1 54 49 4D 32 5F 49 43  8577 	.ascii "TIM2_ICPrescaler"
             50 72 65 73 63 61 6C
             65 72
      0002C1 00                    8578 	.db	0
      0002C2 00 00 00 E0           8579 	.dw	0,224
      0002C6 04                    8580 	.uleb128	4
      0002C7 02                    8581 	.db	2
      0002C8 91                    8582 	.db	145
      0002C9 05                    8583 	.sleb128	5
      0002CA 54 49 4D 32 5F 49 43  8584 	.ascii "TIM2_ICFilter"
             46 69 6C 74 65 72
      0002D7 00                    8585 	.db	0
      0002D8 00 00 00 E0           8586 	.dw	0,224
      0002DC 07                    8587 	.uleb128	7
      0002DD 00 00r02rB0           8588 	.dw	0,(Sstm8s_tim2$TIM2_ICInit$178)
      0002E1 00 00r02rC0           8589 	.dw	0,(Sstm8s_tim2$TIM2_ICInit$184)
      0002E5 07                    8590 	.uleb128	7
      0002E6 00 00r02rC6           8591 	.dw	0,(Sstm8s_tim2$TIM2_ICInit$186)
      0002EA 00 00r02rD6           8592 	.dw	0,(Sstm8s_tim2$TIM2_ICInit$192)
      0002EE 07                    8593 	.uleb128	7
      0002EF 00 00r02rD8           8594 	.dw	0,(Sstm8s_tim2$TIM2_ICInit$193)
      0002F3 00 00r02rE8           8595 	.dw	0,(Sstm8s_tim2$TIM2_ICInit$199)
      0002F7 00                    8596 	.uleb128	0
      0002F8 06                    8597 	.uleb128	6
      0002F9 00 00 03 E5           8598 	.dw	0,997
      0002FD 54 49 4D 32 5F 50 57  8599 	.ascii "TIM2_PWMIConfig"
             4D 49 43 6F 6E 66 69
             67
      00030C 00                    8600 	.db	0
      00030D 00 00r02rED           8601 	.dw	0,(_TIM2_PWMIConfig)
      000311 01                    8602 	.db	1
      000312 04                    8603 	.uleb128	4
      000313 02                    8604 	.db	2
      000314 91                    8605 	.db	145
      000315 7F                    8606 	.sleb128	-1
      000316 54 49 4D 32 5F 43 68  8607 	.ascii "TIM2_Channel"
             61 6E 6E 65 6C
      000322 00                    8608 	.db	0
      000323 00 00 00 E0           8609 	.dw	0,224
      000327 04                    8610 	.uleb128	4
      000328 02                    8611 	.db	2
      000329 91                    8612 	.db	145
      00032A 02                    8613 	.sleb128	2
      00032B 54 49 4D 32 5F 49 43  8614 	.ascii "TIM2_ICPolarity"
             50 6F 6C 61 72 69 74
             79
      00033A 00                    8615 	.db	0
      00033B 00 00 00 E0           8616 	.dw	0,224
      00033F 04                    8617 	.uleb128	4
      000340 02                    8618 	.db	2
      000341 91                    8619 	.db	145
      000342 03                    8620 	.sleb128	3
      000343 54 49 4D 32 5F 49 43  8621 	.ascii "TIM2_ICSelection"
             53 65 6C 65 63 74 69
             6F 6E
      000353 00                    8622 	.db	0
      000354 00 00 00 E0           8623 	.dw	0,224
      000358 04                    8624 	.uleb128	4
      000359 02                    8625 	.db	2
      00035A 91                    8626 	.db	145
      00035B 04                    8627 	.sleb128	4
      00035C 54 49 4D 32 5F 49 43  8628 	.ascii "TIM2_ICPrescaler"
             50 72 65 73 63 61 6C
             65 72
      00036C 00                    8629 	.db	0
      00036D 00 00 00 E0           8630 	.dw	0,224
      000371 04                    8631 	.uleb128	4
      000372 02                    8632 	.db	2
      000373 91                    8633 	.db	145
      000374 05                    8634 	.sleb128	5
      000375 54 49 4D 32 5F 49 43  8635 	.ascii "TIM2_ICFilter"
             46 69 6C 74 65 72
      000382 00                    8636 	.db	0
      000383 00 00 00 E0           8637 	.dw	0,224
      000387 07                    8638 	.uleb128	7
      000388 00 00r03r72           8639 	.dw	0,(Sstm8s_tim2$TIM2_PWMIConfig$235)
      00038C 00 00r03r76           8640 	.dw	0,(Sstm8s_tim2$TIM2_PWMIConfig$237)
      000390 07                    8641 	.uleb128	7
      000391 00 00r03r76           8642 	.dw	0,(Sstm8s_tim2$TIM2_PWMIConfig$238)
      000395 00 00r03r76           8643 	.dw	0,(Sstm8s_tim2$TIM2_PWMIConfig$240)
      000399 07                    8644 	.uleb128	7
      00039A 00 00r03r7D           8645 	.dw	0,(Sstm8s_tim2$TIM2_PWMIConfig$242)
      00039E 00 00r03r81           8646 	.dw	0,(Sstm8s_tim2$TIM2_PWMIConfig$244)
      0003A2 07                    8647 	.uleb128	7
      0003A3 00 00r03r83           8648 	.dw	0,(Sstm8s_tim2$TIM2_PWMIConfig$245)
      0003A7 00 00r03r87           8649 	.dw	0,(Sstm8s_tim2$TIM2_PWMIConfig$247)
      0003AB 07                    8650 	.uleb128	7
      0003AC 00 00r03r8B           8651 	.dw	0,(Sstm8s_tim2$TIM2_PWMIConfig$249)
      0003B0 00 00r03rAB           8652 	.dw	0,(Sstm8s_tim2$TIM2_PWMIConfig$260)
      0003B4 07                    8653 	.uleb128	7
      0003B5 00 00r03rAD           8654 	.dw	0,(Sstm8s_tim2$TIM2_PWMIConfig$261)
      0003B9 00 00r03rCD           8655 	.dw	0,(Sstm8s_tim2$TIM2_PWMIConfig$272)
      0003BD 08                    8656 	.uleb128	8
      0003BE 02                    8657 	.db	2
      0003BF 91                    8658 	.db	145
      0003C0 7D                    8659 	.sleb128	-3
      0003C1 69 63 70 6F 6C 61 72  8660 	.ascii "icpolarity"
             69 74 79
      0003CB 00                    8661 	.db	0
      0003CC 00 00 00 E0           8662 	.dw	0,224
      0003D0 08                    8663 	.uleb128	8
      0003D1 02                    8664 	.db	2
      0003D2 91                    8665 	.db	145
      0003D3 7E                    8666 	.sleb128	-2
      0003D4 69 63 73 65 6C 65 63  8667 	.ascii "icselection"
             74 69 6F 6E
      0003DF 00                    8668 	.db	0
      0003E0 00 00 00 E0           8669 	.dw	0,224
      0003E4 00                    8670 	.uleb128	0
      0003E5 03                    8671 	.uleb128	3
      0003E6 00 00 04 24           8672 	.dw	0,1060
      0003EA 54 49 4D 32 5F 43 6D  8673 	.ascii "TIM2_Cmd"
             64
      0003F2 00                    8674 	.db	0
      0003F3 00 00r03rD2           8675 	.dw	0,(_TIM2_Cmd)
      0003F7 00 00r03rFC           8676 	.dw	0,(XG$TIM2_Cmd$0$0+1)
      0003FB 01                    8677 	.db	1
      0003FC 00 00r0Er9C           8678 	.dw	0,(Ldebug_loc_start+3740)
      000400 04                    8679 	.uleb128	4
      000401 02                    8680 	.db	2
      000402 91                    8681 	.db	145
      000403 7F                    8682 	.sleb128	-1
      000404 4E 65 77 53 74 61 74  8683 	.ascii "NewState"
             65
      00040C 00                    8684 	.db	0
      00040D 00 00 04 24           8685 	.dw	0,1060
      000411 07                    8686 	.uleb128	7
      000412 00 00r03rEE           8687 	.dw	0,(Sstm8s_tim2$TIM2_Cmd$286)
      000416 00 00r03rF3           8688 	.dw	0,(Sstm8s_tim2$TIM2_Cmd$288)
      00041A 07                    8689 	.uleb128	7
      00041B 00 00r03rF5           8690 	.dw	0,(Sstm8s_tim2$TIM2_Cmd$289)
      00041F 00 00r03rFA           8691 	.dw	0,(Sstm8s_tim2$TIM2_Cmd$291)
      000423 00                    8692 	.uleb128	0
      000424 05                    8693 	.uleb128	5
      000425 5F 42 6F 6F 6C        8694 	.ascii "_Bool"
      00042A 00                    8695 	.db	0
      00042B 01                    8696 	.db	1
      00042C 02                    8697 	.db	2
      00042D 06                    8698 	.uleb128	6
      00042E 00 00 04 78           8699 	.dw	0,1144
      000432 54 49 4D 32 5F 49 54  8700 	.ascii "TIM2_ITConfig"
             43 6F 6E 66 69 67
      00043F 00                    8701 	.db	0
      000440 00 00r03rFC           8702 	.dw	0,(_TIM2_ITConfig)
      000444 01                    8703 	.db	1
      000445 04                    8704 	.uleb128	4
      000446 01                    8705 	.db	1
      000447 50                    8706 	.db	80
      000448 54 49 4D 32 5F 49 54  8707 	.ascii "TIM2_IT"
      00044F 00                    8708 	.db	0
      000450 00 00 00 E0           8709 	.dw	0,224
      000454 04                    8710 	.uleb128	4
      000455 02                    8711 	.db	2
      000456 91                    8712 	.db	145
      000457 02                    8713 	.sleb128	2
      000458 4E 65 77 53 74 61 74  8714 	.ascii "NewState"
             65
      000460 00                    8715 	.db	0
      000461 00 00 04 24           8716 	.dw	0,1060
      000465 07                    8717 	.uleb128	7
      000466 00 00r04r34           8718 	.dw	0,(Sstm8s_tim2$TIM2_ITConfig$317)
      00046A 00 00r04r39           8719 	.dw	0,(Sstm8s_tim2$TIM2_ITConfig$319)
      00046E 07                    8720 	.uleb128	7
      00046F 00 00r04r3B           8721 	.dw	0,(Sstm8s_tim2$TIM2_ITConfig$320)
      000473 00 00r04r41           8722 	.dw	0,(Sstm8s_tim2$TIM2_ITConfig$322)
      000477 00                    8723 	.uleb128	0
      000478 03                    8724 	.uleb128	3
      000479 00 00 04 C7           8725 	.dw	0,1223
      00047D 54 49 4D 32 5F 55 70  8726 	.ascii "TIM2_UpdateDisableConfig"
             64 61 74 65 44 69 73
             61 62 6C 65 43 6F 6E
             66 69 67
      000495 00                    8727 	.db	0
      000496 00 00r04r45           8728 	.dw	0,(_TIM2_UpdateDisableConfig)
      00049A 00 00r04r6F           8729 	.dw	0,(XG$TIM2_UpdateDisableConfig$0$0+1)
      00049E 01                    8730 	.db	1
      00049F 00 00r0Dr5C           8731 	.dw	0,(Ldebug_loc_start+3420)
      0004A3 04                    8732 	.uleb128	4
      0004A4 02                    8733 	.db	2
      0004A5 91                    8734 	.db	145
      0004A6 7F                    8735 	.sleb128	-1
      0004A7 4E 65 77 53 74 61 74  8736 	.ascii "NewState"
             65
      0004AF 00                    8737 	.db	0
      0004B0 00 00 04 24           8738 	.dw	0,1060
      0004B4 07                    8739 	.uleb128	7
      0004B5 00 00r04r61           8740 	.dw	0,(Sstm8s_tim2$TIM2_UpdateDisableConfig$338)
      0004B9 00 00r04r66           8741 	.dw	0,(Sstm8s_tim2$TIM2_UpdateDisableConfig$340)
      0004BD 07                    8742 	.uleb128	7
      0004BE 00 00r04r68           8743 	.dw	0,(Sstm8s_tim2$TIM2_UpdateDisableConfig$341)
      0004C2 00 00r04r6D           8744 	.dw	0,(Sstm8s_tim2$TIM2_UpdateDisableConfig$343)
      0004C6 00                    8745 	.uleb128	0
      0004C7 03                    8746 	.uleb128	3
      0004C8 00 00 05 1F           8747 	.dw	0,1311
      0004CC 54 49 4D 32 5F 55 70  8748 	.ascii "TIM2_UpdateRequestConfig"
             64 61 74 65 52 65 71
             75 65 73 74 43 6F 6E
             66 69 67
      0004E4 00                    8749 	.db	0
      0004E5 00 00r04r6F           8750 	.dw	0,(_TIM2_UpdateRequestConfig)
      0004E9 00 00r04r99           8751 	.dw	0,(XG$TIM2_UpdateRequestConfig$0$0+1)
      0004ED 01                    8752 	.db	1
      0004EE 00 00r0Dr00           8753 	.dw	0,(Ldebug_loc_start+3328)
      0004F2 04                    8754 	.uleb128	4
      0004F3 02                    8755 	.db	2
      0004F4 91                    8756 	.db	145
      0004F5 7F                    8757 	.sleb128	-1
      0004F6 54 49 4D 32 5F 55 70  8758 	.ascii "TIM2_UpdateSource"
             64 61 74 65 53 6F 75
             72 63 65
      000507 00                    8759 	.db	0
      000508 00 00 04 24           8760 	.dw	0,1060
      00050C 07                    8761 	.uleb128	7
      00050D 00 00r04r8B           8762 	.dw	0,(Sstm8s_tim2$TIM2_UpdateRequestConfig$358)
      000511 00 00r04r90           8763 	.dw	0,(Sstm8s_tim2$TIM2_UpdateRequestConfig$360)
      000515 07                    8764 	.uleb128	7
      000516 00 00r04r92           8765 	.dw	0,(Sstm8s_tim2$TIM2_UpdateRequestConfig$361)
      00051A 00 00r04r97           8766 	.dw	0,(Sstm8s_tim2$TIM2_UpdateRequestConfig$363)
      00051E 00                    8767 	.uleb128	0
      00051F 03                    8768 	.uleb128	3
      000520 00 00 05 70           8769 	.dw	0,1392
      000524 54 49 4D 32 5F 53 65  8770 	.ascii "TIM2_SelectOnePulseMode"
             6C 65 63 74 4F 6E 65
             50 75 6C 73 65 4D 6F
             64 65
      00053B 00                    8771 	.db	0
      00053C 00 00r04r99           8772 	.dw	0,(_TIM2_SelectOnePulseMode)
      000540 00 00r04rC3           8773 	.dw	0,(XG$TIM2_SelectOnePulseMode$0$0+1)
      000544 01                    8774 	.db	1
      000545 00 00r0CrA4           8775 	.dw	0,(Ldebug_loc_start+3236)
      000549 04                    8776 	.uleb128	4
      00054A 02                    8777 	.db	2
      00054B 91                    8778 	.db	145
      00054C 7F                    8779 	.sleb128	-1
      00054D 54 49 4D 32 5F 4F 50  8780 	.ascii "TIM2_OPMode"
             4D 6F 64 65
      000558 00                    8781 	.db	0
      000559 00 00 04 24           8782 	.dw	0,1060
      00055D 07                    8783 	.uleb128	7
      00055E 00 00r04rB5           8784 	.dw	0,(Sstm8s_tim2$TIM2_SelectOnePulseMode$378)
      000562 00 00r04rBA           8785 	.dw	0,(Sstm8s_tim2$TIM2_SelectOnePulseMode$380)
      000566 07                    8786 	.uleb128	7
      000567 00 00r04rBC           8787 	.dw	0,(Sstm8s_tim2$TIM2_SelectOnePulseMode$381)
      00056B 00 00r04rC1           8788 	.dw	0,(Sstm8s_tim2$TIM2_SelectOnePulseMode$383)
      00056F 00                    8789 	.uleb128	0
      000570 06                    8790 	.uleb128	6
      000571 00 00 05 BC           8791 	.dw	0,1468
      000575 54 49 4D 32 5F 50 72  8792 	.ascii "TIM2_PrescalerConfig"
             65 73 63 61 6C 65 72
             43 6F 6E 66 69 67
      000589 00                    8793 	.db	0
      00058A 00 00r04rC3           8794 	.dw	0,(_TIM2_PrescalerConfig)
      00058E 01                    8795 	.db	1
      00058F 04                    8796 	.uleb128	4
      000590 01                    8797 	.db	1
      000591 50                    8798 	.db	80
      000592 50 72 65 73 63 61 6C  8799 	.ascii "Prescaler"
             65 72
      00059B 00                    8800 	.db	0
      00059C 00 00 00 E0           8801 	.dw	0,224
      0005A0 04                    8802 	.uleb128	4
      0005A1 02                    8803 	.db	2
      0005A2 91                    8804 	.db	145
      0005A3 02                    8805 	.sleb128	2
      0005A4 54 49 4D 32 5F 50 53  8806 	.ascii "TIM2_PSCReloadMode"
             43 52 65 6C 6F 61 64
             4D 6F 64 65
      0005B6 00                    8807 	.db	0
      0005B7 00 00 04 24           8808 	.dw	0,1060
      0005BB 00                    8809 	.uleb128	0
      0005BC 03                    8810 	.uleb128	3
      0005BD 00 00 05 FE           8811 	.dw	0,1534
      0005C1 54 49 4D 32 5F 46 6F  8812 	.ascii "TIM2_ForcedOC1Config"
             72 63 65 64 4F 43 31
             43 6F 6E 66 69 67
      0005D5 00                    8813 	.db	0
      0005D6 00 00r05r31           8814 	.dw	0,(_TIM2_ForcedOC1Config)
      0005DA 00 00r05r56           8815 	.dw	0,(XG$TIM2_ForcedOC1Config$0$0+1)
      0005DE 01                    8816 	.db	1
      0005DF 00 00r0ArC8           8817 	.dw	0,(Ldebug_loc_start+2760)
      0005E3 04                    8818 	.uleb128	4
      0005E4 02                    8819 	.db	2
      0005E5 91                    8820 	.db	145
      0005E6 7F                    8821 	.sleb128	-1
      0005E7 54 49 4D 32 5F 46 6F  8822 	.ascii "TIM2_ForcedAction"
             72 63 65 64 41 63 74
             69 6F 6E
      0005F8 00                    8823 	.db	0
      0005F9 00 00 00 E0           8824 	.dw	0,224
      0005FD 00                    8825 	.uleb128	0
      0005FE 03                    8826 	.uleb128	3
      0005FF 00 00 06 40           8827 	.dw	0,1600
      000603 54 49 4D 32 5F 46 6F  8828 	.ascii "TIM2_ForcedOC2Config"
             72 63 65 64 4F 43 32
             43 6F 6E 66 69 67
      000617 00                    8829 	.db	0
      000618 00 00r05r56           8830 	.dw	0,(_TIM2_ForcedOC2Config)
      00061C 00 00r05r7B           8831 	.dw	0,(XG$TIM2_ForcedOC2Config$0$0+1)
      000620 01                    8832 	.db	1
      000621 00 00r0Ar54           8833 	.dw	0,(Ldebug_loc_start+2644)
      000625 04                    8834 	.uleb128	4
      000626 02                    8835 	.db	2
      000627 91                    8836 	.db	145
      000628 7F                    8837 	.sleb128	-1
      000629 54 49 4D 32 5F 46 6F  8838 	.ascii "TIM2_ForcedAction"
             72 63 65 64 41 63 74
             69 6F 6E
      00063A 00                    8839 	.db	0
      00063B 00 00 00 E0           8840 	.dw	0,224
      00063F 00                    8841 	.uleb128	0
      000640 03                    8842 	.uleb128	3
      000641 00 00 06 82           8843 	.dw	0,1666
      000645 54 49 4D 32 5F 46 6F  8844 	.ascii "TIM2_ForcedOC3Config"
             72 63 65 64 4F 43 33
             43 6F 6E 66 69 67
      000659 00                    8845 	.db	0
      00065A 00 00r05r7B           8846 	.dw	0,(_TIM2_ForcedOC3Config)
      00065E 00 00r05rA0           8847 	.dw	0,(XG$TIM2_ForcedOC3Config$0$0+1)
      000662 01                    8848 	.db	1
      000663 00 00r09rE0           8849 	.dw	0,(Ldebug_loc_start+2528)
      000667 04                    8850 	.uleb128	4
      000668 02                    8851 	.db	2
      000669 91                    8852 	.db	145
      00066A 7F                    8853 	.sleb128	-1
      00066B 54 49 4D 32 5F 46 6F  8854 	.ascii "TIM2_ForcedAction"
             72 63 65 64 41 63 74
             69 6F 6E
      00067C 00                    8855 	.db	0
      00067D 00 00 00 E0           8856 	.dw	0,224
      000681 00                    8857 	.uleb128	0
      000682 03                    8858 	.uleb128	3
      000683 00 00 06 CE           8859 	.dw	0,1742
      000687 54 49 4D 32 5F 41 52  8860 	.ascii "TIM2_ARRPreloadConfig"
             52 50 72 65 6C 6F 61
             64 43 6F 6E 66 69 67
      00069C 00                    8861 	.db	0
      00069D 00 00r05rA0           8862 	.dw	0,(_TIM2_ARRPreloadConfig)
      0006A1 00 00r05rCA           8863 	.dw	0,(XG$TIM2_ARRPreloadConfig$0$0+1)
      0006A5 01                    8864 	.db	1
      0006A6 00 00r09r84           8865 	.dw	0,(Ldebug_loc_start+2436)
      0006AA 04                    8866 	.uleb128	4
      0006AB 02                    8867 	.db	2
      0006AC 91                    8868 	.db	145
      0006AD 7F                    8869 	.sleb128	-1
      0006AE 4E 65 77 53 74 61 74  8870 	.ascii "NewState"
             65
      0006B6 00                    8871 	.db	0
      0006B7 00 00 04 24           8872 	.dw	0,1060
      0006BB 07                    8873 	.uleb128	7
      0006BC 00 00r05rBC           8874 	.dw	0,(Sstm8s_tim2$TIM2_ARRPreloadConfig$483)
      0006C0 00 00r05rC1           8875 	.dw	0,(Sstm8s_tim2$TIM2_ARRPreloadConfig$485)
      0006C4 07                    8876 	.uleb128	7
      0006C5 00 00r05rC3           8877 	.dw	0,(Sstm8s_tim2$TIM2_ARRPreloadConfig$486)
      0006C9 00 00r05rC8           8878 	.dw	0,(Sstm8s_tim2$TIM2_ARRPreloadConfig$488)
      0006CD 00                    8879 	.uleb128	0
      0006CE 03                    8880 	.uleb128	3
      0006CF 00 00 07 1A           8881 	.dw	0,1818
      0006D3 54 49 4D 32 5F 4F 43  8882 	.ascii "TIM2_OC1PreloadConfig"
             31 50 72 65 6C 6F 61
             64 43 6F 6E 66 69 67
      0006E8 00                    8883 	.db	0
      0006E9 00 00r05rCA           8884 	.dw	0,(_TIM2_OC1PreloadConfig)
      0006ED 00 00r05rF4           8885 	.dw	0,(XG$TIM2_OC1PreloadConfig$0$0+1)
      0006F1 01                    8886 	.db	1
      0006F2 00 00r09r28           8887 	.dw	0,(Ldebug_loc_start+2344)
      0006F6 04                    8888 	.uleb128	4
      0006F7 02                    8889 	.db	2
      0006F8 91                    8890 	.db	145
      0006F9 7F                    8891 	.sleb128	-1
      0006FA 4E 65 77 53 74 61 74  8892 	.ascii "NewState"
             65
      000702 00                    8893 	.db	0
      000703 00 00 04 24           8894 	.dw	0,1060
      000707 07                    8895 	.uleb128	7
      000708 00 00r05rE6           8896 	.dw	0,(Sstm8s_tim2$TIM2_OC1PreloadConfig$503)
      00070C 00 00r05rEB           8897 	.dw	0,(Sstm8s_tim2$TIM2_OC1PreloadConfig$505)
      000710 07                    8898 	.uleb128	7
      000711 00 00r05rED           8899 	.dw	0,(Sstm8s_tim2$TIM2_OC1PreloadConfig$506)
      000715 00 00r05rF2           8900 	.dw	0,(Sstm8s_tim2$TIM2_OC1PreloadConfig$508)
      000719 00                    8901 	.uleb128	0
      00071A 03                    8902 	.uleb128	3
      00071B 00 00 07 66           8903 	.dw	0,1894
      00071F 54 49 4D 32 5F 4F 43  8904 	.ascii "TIM2_OC2PreloadConfig"
             32 50 72 65 6C 6F 61
             64 43 6F 6E 66 69 67
      000734 00                    8905 	.db	0
      000735 00 00r05rF4           8906 	.dw	0,(_TIM2_OC2PreloadConfig)
      000739 00 00r06r1E           8907 	.dw	0,(XG$TIM2_OC2PreloadConfig$0$0+1)
      00073D 01                    8908 	.db	1
      00073E 00 00r08rCC           8909 	.dw	0,(Ldebug_loc_start+2252)
      000742 04                    8910 	.uleb128	4
      000743 02                    8911 	.db	2
      000744 91                    8912 	.db	145
      000745 7F                    8913 	.sleb128	-1
      000746 4E 65 77 53 74 61 74  8914 	.ascii "NewState"
             65
      00074E 00                    8915 	.db	0
      00074F 00 00 04 24           8916 	.dw	0,1060
      000753 07                    8917 	.uleb128	7
      000754 00 00r06r10           8918 	.dw	0,(Sstm8s_tim2$TIM2_OC2PreloadConfig$523)
      000758 00 00r06r15           8919 	.dw	0,(Sstm8s_tim2$TIM2_OC2PreloadConfig$525)
      00075C 07                    8920 	.uleb128	7
      00075D 00 00r06r17           8921 	.dw	0,(Sstm8s_tim2$TIM2_OC2PreloadConfig$526)
      000761 00 00r06r1C           8922 	.dw	0,(Sstm8s_tim2$TIM2_OC2PreloadConfig$528)
      000765 00                    8923 	.uleb128	0
      000766 03                    8924 	.uleb128	3
      000767 00 00 07 B2           8925 	.dw	0,1970
      00076B 54 49 4D 32 5F 4F 43  8926 	.ascii "TIM2_OC3PreloadConfig"
             33 50 72 65 6C 6F 61
             64 43 6F 6E 66 69 67
      000780 00                    8927 	.db	0
      000781 00 00r06r1E           8928 	.dw	0,(_TIM2_OC3PreloadConfig)
      000785 00 00r06r48           8929 	.dw	0,(XG$TIM2_OC3PreloadConfig$0$0+1)
      000789 01                    8930 	.db	1
      00078A 00 00r08r70           8931 	.dw	0,(Ldebug_loc_start+2160)
      00078E 04                    8932 	.uleb128	4
      00078F 02                    8933 	.db	2
      000790 91                    8934 	.db	145
      000791 7F                    8935 	.sleb128	-1
      000792 4E 65 77 53 74 61 74  8936 	.ascii "NewState"
             65
      00079A 00                    8937 	.db	0
      00079B 00 00 04 24           8938 	.dw	0,1060
      00079F 07                    8939 	.uleb128	7
      0007A0 00 00r06r3A           8940 	.dw	0,(Sstm8s_tim2$TIM2_OC3PreloadConfig$543)
      0007A4 00 00r06r3F           8941 	.dw	0,(Sstm8s_tim2$TIM2_OC3PreloadConfig$545)
      0007A8 07                    8942 	.uleb128	7
      0007A9 00 00r06r41           8943 	.dw	0,(Sstm8s_tim2$TIM2_OC3PreloadConfig$546)
      0007AD 00 00r06r46           8944 	.dw	0,(Sstm8s_tim2$TIM2_OC3PreloadConfig$548)
      0007B1 00                    8945 	.uleb128	0
      0007B2 03                    8946 	.uleb128	3
      0007B3 00 00 07 F0           8947 	.dw	0,2032
      0007B7 54 49 4D 32 5F 47 65  8948 	.ascii "TIM2_GenerateEvent"
             6E 65 72 61 74 65 45
             76 65 6E 74
      0007C9 00                    8949 	.db	0
      0007CA 00 00r06r48           8950 	.dw	0,(_TIM2_GenerateEvent)
      0007CE 00 00r06r5D           8951 	.dw	0,(XG$TIM2_GenerateEvent$0$0+1)
      0007D2 01                    8952 	.db	1
      0007D3 00 00r08r14           8953 	.dw	0,(Ldebug_loc_start+2068)
      0007D7 04                    8954 	.uleb128	4
      0007D8 01                    8955 	.db	1
      0007D9 50                    8956 	.db	80
      0007DA 54 49 4D 32 5F 45 76  8957 	.ascii "TIM2_EventSource"
             65 6E 74 53 6F 75 72
             63 65
      0007EA 00                    8958 	.db	0
      0007EB 00 00 00 E0           8959 	.dw	0,224
      0007EF 00                    8960 	.uleb128	0
      0007F0 03                    8961 	.uleb128	3
      0007F1 00 00 08 44           8962 	.dw	0,2116
      0007F5 54 49 4D 32 5F 4F 43  8963 	.ascii "TIM2_OC1PolarityConfig"
             31 50 6F 6C 61 72 69
             74 79 43 6F 6E 66 69
             67
      00080B 00                    8964 	.db	0
      00080C 00 00r06r5D           8965 	.dw	0,(_TIM2_OC1PolarityConfig)
      000810 00 00r06r89           8966 	.dw	0,(XG$TIM2_OC1PolarityConfig$0$0+1)
      000814 01                    8967 	.db	1
      000815 00 00r07rAC           8968 	.dw	0,(Ldebug_loc_start+1964)
      000819 04                    8969 	.uleb128	4
      00081A 02                    8970 	.db	2
      00081B 91                    8971 	.db	145
      00081C 7F                    8972 	.sleb128	-1
      00081D 54 49 4D 32 5F 4F 43  8973 	.ascii "TIM2_OCPolarity"
             50 6F 6C 61 72 69 74
             79
      00082C 00                    8974 	.db	0
      00082D 00 00 00 E0           8975 	.dw	0,224
      000831 07                    8976 	.uleb128	7
      000832 00 00r06r7B           8977 	.dw	0,(Sstm8s_tim2$TIM2_OC1PolarityConfig$577)
      000836 00 00r06r80           8978 	.dw	0,(Sstm8s_tim2$TIM2_OC1PolarityConfig$579)
      00083A 07                    8979 	.uleb128	7
      00083B 00 00r06r82           8980 	.dw	0,(Sstm8s_tim2$TIM2_OC1PolarityConfig$580)
      00083F 00 00r06r87           8981 	.dw	0,(Sstm8s_tim2$TIM2_OC1PolarityConfig$582)
      000843 00                    8982 	.uleb128	0
      000844 03                    8983 	.uleb128	3
      000845 00 00 08 98           8984 	.dw	0,2200
      000849 54 49 4D 32 5F 4F 43  8985 	.ascii "TIM2_OC2PolarityConfig"
             32 50 6F 6C 61 72 69
             74 79 43 6F 6E 66 69
             67
      00085F 00                    8986 	.db	0
      000860 00 00r06r89           8987 	.dw	0,(_TIM2_OC2PolarityConfig)
      000864 00 00r06rB5           8988 	.dw	0,(XG$TIM2_OC2PolarityConfig$0$0+1)
      000868 01                    8989 	.db	1
      000869 00 00r07r44           8990 	.dw	0,(Ldebug_loc_start+1860)
      00086D 04                    8991 	.uleb128	4
      00086E 02                    8992 	.db	2
      00086F 91                    8993 	.db	145
      000870 7F                    8994 	.sleb128	-1
      000871 54 49 4D 32 5F 4F 43  8995 	.ascii "TIM2_OCPolarity"
             50 6F 6C 61 72 69 74
             79
      000880 00                    8996 	.db	0
      000881 00 00 00 E0           8997 	.dw	0,224
      000885 07                    8998 	.uleb128	7
      000886 00 00r06rA7           8999 	.dw	0,(Sstm8s_tim2$TIM2_OC2PolarityConfig$598)
      00088A 00 00r06rAC           9000 	.dw	0,(Sstm8s_tim2$TIM2_OC2PolarityConfig$600)
      00088E 07                    9001 	.uleb128	7
      00088F 00 00r06rAE           9002 	.dw	0,(Sstm8s_tim2$TIM2_OC2PolarityConfig$601)
      000893 00 00r06rB3           9003 	.dw	0,(Sstm8s_tim2$TIM2_OC2PolarityConfig$603)
      000897 00                    9004 	.uleb128	0
      000898 03                    9005 	.uleb128	3
      000899 00 00 08 EC           9006 	.dw	0,2284
      00089D 54 49 4D 32 5F 4F 43  9007 	.ascii "TIM2_OC3PolarityConfig"
             33 50 6F 6C 61 72 69
             74 79 43 6F 6E 66 69
             67
      0008B3 00                    9008 	.db	0
      0008B4 00 00r06rB5           9009 	.dw	0,(_TIM2_OC3PolarityConfig)
      0008B8 00 00r06rE1           9010 	.dw	0,(XG$TIM2_OC3PolarityConfig$0$0+1)
      0008BC 01                    9011 	.db	1
      0008BD 00 00r06rDC           9012 	.dw	0,(Ldebug_loc_start+1756)
      0008C1 04                    9013 	.uleb128	4
      0008C2 02                    9014 	.db	2
      0008C3 91                    9015 	.db	145
      0008C4 7F                    9016 	.sleb128	-1
      0008C5 54 49 4D 32 5F 4F 43  9017 	.ascii "TIM2_OCPolarity"
             50 6F 6C 61 72 69 74
             79
      0008D4 00                    9018 	.db	0
      0008D5 00 00 00 E0           9019 	.dw	0,224
      0008D9 07                    9020 	.uleb128	7
      0008DA 00 00r06rD3           9021 	.dw	0,(Sstm8s_tim2$TIM2_OC3PolarityConfig$619)
      0008DE 00 00r06rD8           9022 	.dw	0,(Sstm8s_tim2$TIM2_OC3PolarityConfig$621)
      0008E2 07                    9023 	.uleb128	7
      0008E3 00 00r06rDA           9024 	.dw	0,(Sstm8s_tim2$TIM2_OC3PolarityConfig$622)
      0008E7 00 00r06rDF           9025 	.dw	0,(Sstm8s_tim2$TIM2_OC3PolarityConfig$624)
      0008EB 00                    9026 	.uleb128	0
      0008EC 06                    9027 	.uleb128	6
      0008ED 00 00 09 78           9028 	.dw	0,2424
      0008F1 54 49 4D 32 5F 43 43  9029 	.ascii "TIM2_CCxCmd"
             78 43 6D 64
      0008FC 00                    9030 	.db	0
      0008FD 00 00r06rE1           9031 	.dw	0,(_TIM2_CCxCmd)
      000901 01                    9032 	.db	1
      000902 04                    9033 	.uleb128	4
      000903 01                    9034 	.db	1
      000904 50                    9035 	.db	80
      000905 54 49 4D 32 5F 43 68  9036 	.ascii "TIM2_Channel"
             61 6E 6E 65 6C
      000911 00                    9037 	.db	0
      000912 00 00 00 E0           9038 	.dw	0,224
      000916 04                    9039 	.uleb128	4
      000917 02                    9040 	.db	2
      000918 91                    9041 	.db	145
      000919 02                    9042 	.sleb128	2
      00091A 4E 65 77 53 74 61 74  9043 	.ascii "NewState"
             65
      000922 00                    9044 	.db	0
      000923 00 00 04 24           9045 	.dw	0,1060
      000927 09                    9046 	.uleb128	9
      000928 00 00 09 43           9047 	.dw	0,2371
      00092C 00 00r07r24           9048 	.dw	0,(Sstm8s_tim2$TIM2_CCxCmd$652)
      000930 07                    9049 	.uleb128	7
      000931 00 00r07r28           9050 	.dw	0,(Sstm8s_tim2$TIM2_CCxCmd$654)
      000935 00 00r07r2D           9051 	.dw	0,(Sstm8s_tim2$TIM2_CCxCmd$656)
      000939 07                    9052 	.uleb128	7
      00093A 00 00r07r2F           9053 	.dw	0,(Sstm8s_tim2$TIM2_CCxCmd$657)
      00093E 00 00r07r34           9054 	.dw	0,(Sstm8s_tim2$TIM2_CCxCmd$659)
      000942 00                    9055 	.uleb128	0
      000943 09                    9056 	.uleb128	9
      000944 00 00 09 5F           9057 	.dw	0,2399
      000948 00 00r07r3D           9058 	.dw	0,(Sstm8s_tim2$TIM2_CCxCmd$662)
      00094C 07                    9059 	.uleb128	7
      00094D 00 00r07r41           9060 	.dw	0,(Sstm8s_tim2$TIM2_CCxCmd$664)
      000951 00 00r07r46           9061 	.dw	0,(Sstm8s_tim2$TIM2_CCxCmd$666)
      000955 07                    9062 	.uleb128	7
      000956 00 00r07r48           9063 	.dw	0,(Sstm8s_tim2$TIM2_CCxCmd$667)
      00095A 00 00r07r4D           9064 	.dw	0,(Sstm8s_tim2$TIM2_CCxCmd$669)
      00095E 00                    9065 	.uleb128	0
      00095F 0A                    9066 	.uleb128	10
      000960 00 00r07r52           9067 	.dw	0,(Sstm8s_tim2$TIM2_CCxCmd$671)
      000964 07                    9068 	.uleb128	7
      000965 00 00r07r56           9069 	.dw	0,(Sstm8s_tim2$TIM2_CCxCmd$673)
      000969 00 00r07r5B           9070 	.dw	0,(Sstm8s_tim2$TIM2_CCxCmd$675)
      00096D 07                    9071 	.uleb128	7
      00096E 00 00r07r5D           9072 	.dw	0,(Sstm8s_tim2$TIM2_CCxCmd$676)
      000972 00 00r07r62           9073 	.dw	0,(Sstm8s_tim2$TIM2_CCxCmd$678)
      000976 00                    9074 	.uleb128	0
      000977 00                    9075 	.uleb128	0
      000978 06                    9076 	.uleb128	6
      000979 00 00 09 D7           9077 	.dw	0,2519
      00097D 54 49 4D 32 5F 53 65  9078 	.ascii "TIM2_SelectOCxM"
             6C 65 63 74 4F 43 78
             4D
      00098C 00                    9079 	.db	0
      00098D 00 00r07r66           9080 	.dw	0,(_TIM2_SelectOCxM)
      000991 01                    9081 	.db	1
      000992 04                    9082 	.uleb128	4
      000993 02                    9083 	.db	2
      000994 91                    9084 	.db	145
      000995 7F                    9085 	.sleb128	-1
      000996 54 49 4D 32 5F 43 68  9086 	.ascii "TIM2_Channel"
             61 6E 6E 65 6C
      0009A2 00                    9087 	.db	0
      0009A3 00 00 00 E0           9088 	.dw	0,224
      0009A7 04                    9089 	.uleb128	4
      0009A8 02                    9090 	.db	2
      0009A9 91                    9091 	.db	145
      0009AA 02                    9092 	.sleb128	2
      0009AB 54 49 4D 32 5F 4F 43  9093 	.ascii "TIM2_OCMode"
             4D 6F 64 65
      0009B6 00                    9094 	.db	0
      0009B7 00 00 00 E0           9095 	.dw	0,224
      0009BB 07                    9096 	.uleb128	7
      0009BC 00 00r07rCB           9097 	.dw	0,(Sstm8s_tim2$TIM2_SelectOCxM$707)
      0009C0 00 00r07rD9           9098 	.dw	0,(Sstm8s_tim2$TIM2_SelectOCxM$711)
      0009C4 07                    9099 	.uleb128	7
      0009C5 00 00r07rDF           9100 	.dw	0,(Sstm8s_tim2$TIM2_SelectOCxM$713)
      0009C9 00 00r07rED           9101 	.dw	0,(Sstm8s_tim2$TIM2_SelectOCxM$717)
      0009CD 07                    9102 	.uleb128	7
      0009CE 00 00r07rEF           9103 	.dw	0,(Sstm8s_tim2$TIM2_SelectOCxM$718)
      0009D2 00 00r07rFD           9104 	.dw	0,(Sstm8s_tim2$TIM2_SelectOCxM$722)
      0009D6 00                    9105 	.uleb128	0
      0009D7 03                    9106 	.uleb128	3
      0009D8 00 00 0A 0E           9107 	.dw	0,2574
      0009DC 54 49 4D 32 5F 53 65  9108 	.ascii "TIM2_SetCounter"
             74 43 6F 75 6E 74 65
             72
      0009EB 00                    9109 	.db	0
      0009EC 00 00r08r01           9110 	.dw	0,(_TIM2_SetCounter)
      0009F0 00 00r08r0A           9111 	.dw	0,(XG$TIM2_SetCounter$0$0+1)
      0009F4 01                    9112 	.db	1
      0009F5 00 00r04rC4           9113 	.dw	0,(Ldebug_loc_start+1220)
      0009F9 04                    9114 	.uleb128	4
      0009FA 06                    9115 	.db	6
      0009FB 52                    9116 	.db	82
      0009FC 93                    9117 	.db	147
      0009FD 01                    9118 	.uleb128	1
      0009FE 51                    9119 	.db	81
      0009FF 93                    9120 	.db	147
      000A00 01                    9121 	.uleb128	1
      000A01 43 6F 75 6E 74 65 72  9122 	.ascii "Counter"
      000A08 00                    9123 	.db	0
      000A09 00 00 00 F1           9124 	.dw	0,241
      000A0D 00                    9125 	.uleb128	0
      000A0E 03                    9126 	.uleb128	3
      000A0F 00 00 0A 4B           9127 	.dw	0,2635
      000A13 54 49 4D 32 5F 53 65  9128 	.ascii "TIM2_SetAutoreload"
             74 41 75 74 6F 72 65
             6C 6F 61 64
      000A25 00                    9129 	.db	0
      000A26 00 00r08r0A           9130 	.dw	0,(_TIM2_SetAutoreload)
      000A2A 00 00r08r13           9131 	.dw	0,(XG$TIM2_SetAutoreload$0$0+1)
      000A2E 01                    9132 	.db	1
      000A2F 00 00r04rB0           9133 	.dw	0,(Ldebug_loc_start+1200)
      000A33 04                    9134 	.uleb128	4
      000A34 06                    9135 	.db	6
      000A35 52                    9136 	.db	82
      000A36 93                    9137 	.db	147
      000A37 01                    9138 	.uleb128	1
      000A38 51                    9139 	.db	81
      000A39 93                    9140 	.db	147
      000A3A 01                    9141 	.uleb128	1
      000A3B 41 75 74 6F 72 65 6C  9142 	.ascii "Autoreload"
             6F 61 64
      000A45 00                    9143 	.db	0
      000A46 00 00 00 F1           9144 	.dw	0,241
      000A4A 00                    9145 	.uleb128	0
      000A4B 03                    9146 	.uleb128	3
      000A4C 00 00 0A 84           9147 	.dw	0,2692
      000A50 54 49 4D 32 5F 53 65  9148 	.ascii "TIM2_SetCompare1"
             74 43 6F 6D 70 61 72
             65 31
      000A60 00                    9149 	.db	0
      000A61 00 00r08r13           9150 	.dw	0,(_TIM2_SetCompare1)
      000A65 00 00r08r1C           9151 	.dw	0,(XG$TIM2_SetCompare1$0$0+1)
      000A69 01                    9152 	.db	1
      000A6A 00 00r04r9C           9153 	.dw	0,(Ldebug_loc_start+1180)
      000A6E 04                    9154 	.uleb128	4
      000A6F 06                    9155 	.db	6
      000A70 52                    9156 	.db	82
      000A71 93                    9157 	.db	147
      000A72 01                    9158 	.uleb128	1
      000A73 51                    9159 	.db	81
      000A74 93                    9160 	.db	147
      000A75 01                    9161 	.uleb128	1
      000A76 43 6F 6D 70 61 72 65  9162 	.ascii "Compare1"
             31
      000A7E 00                    9163 	.db	0
      000A7F 00 00 00 F1           9164 	.dw	0,241
      000A83 00                    9165 	.uleb128	0
      000A84 03                    9166 	.uleb128	3
      000A85 00 00 0A BD           9167 	.dw	0,2749
      000A89 54 49 4D 32 5F 53 65  9168 	.ascii "TIM2_SetCompare2"
             74 43 6F 6D 70 61 72
             65 32
      000A99 00                    9169 	.db	0
      000A9A 00 00r08r1C           9170 	.dw	0,(_TIM2_SetCompare2)
      000A9E 00 00r08r25           9171 	.dw	0,(XG$TIM2_SetCompare2$0$0+1)
      000AA2 01                    9172 	.db	1
      000AA3 00 00r04r88           9173 	.dw	0,(Ldebug_loc_start+1160)
      000AA7 04                    9174 	.uleb128	4
      000AA8 06                    9175 	.db	6
      000AA9 52                    9176 	.db	82
      000AAA 93                    9177 	.db	147
      000AAB 01                    9178 	.uleb128	1
      000AAC 51                    9179 	.db	81
      000AAD 93                    9180 	.db	147
      000AAE 01                    9181 	.uleb128	1
      000AAF 43 6F 6D 70 61 72 65  9182 	.ascii "Compare2"
             32
      000AB7 00                    9183 	.db	0
      000AB8 00 00 00 F1           9184 	.dw	0,241
      000ABC 00                    9185 	.uleb128	0
      000ABD 03                    9186 	.uleb128	3
      000ABE 00 00 0A F6           9187 	.dw	0,2806
      000AC2 54 49 4D 32 5F 53 65  9188 	.ascii "TIM2_SetCompare3"
             74 43 6F 6D 70 61 72
             65 33
      000AD2 00                    9189 	.db	0
      000AD3 00 00r08r25           9190 	.dw	0,(_TIM2_SetCompare3)
      000AD7 00 00r08r2E           9191 	.dw	0,(XG$TIM2_SetCompare3$0$0+1)
      000ADB 01                    9192 	.db	1
      000ADC 00 00r04r74           9193 	.dw	0,(Ldebug_loc_start+1140)
      000AE0 04                    9194 	.uleb128	4
      000AE1 06                    9195 	.db	6
      000AE2 52                    9196 	.db	82
      000AE3 93                    9197 	.db	147
      000AE4 01                    9198 	.uleb128	1
      000AE5 51                    9199 	.db	81
      000AE6 93                    9200 	.db	147
      000AE7 01                    9201 	.uleb128	1
      000AE8 43 6F 6D 70 61 72 65  9202 	.ascii "Compare3"
             33
      000AF0 00                    9203 	.db	0
      000AF1 00 00 00 F1           9204 	.dw	0,241
      000AF5 00                    9205 	.uleb128	0
      000AF6 03                    9206 	.uleb128	3
      000AF7 00 00 0B 38           9207 	.dw	0,2872
      000AFB 54 49 4D 32 5F 53 65  9208 	.ascii "TIM2_SetIC1Prescaler"
             74 49 43 31 50 72 65
             73 63 61 6C 65 72
      000B0F 00                    9209 	.db	0
      000B10 00 00r08r2E           9210 	.dw	0,(_TIM2_SetIC1Prescaler)
      000B14 00 00r08r5D           9211 	.dw	0,(XG$TIM2_SetIC1Prescaler$0$0+1)
      000B18 01                    9212 	.db	1
      000B19 00 00r03rF4           9213 	.dw	0,(Ldebug_loc_start+1012)
      000B1D 04                    9214 	.uleb128	4
      000B1E 02                    9215 	.db	2
      000B1F 91                    9216 	.db	145
      000B20 7F                    9217 	.sleb128	-1
      000B21 54 49 4D 32 5F 49 43  9218 	.ascii "TIM2_IC1Prescaler"
             31 50 72 65 73 63 61
             6C 65 72
      000B32 00                    9219 	.db	0
      000B33 00 00 00 E0           9220 	.dw	0,224
      000B37 00                    9221 	.uleb128	0
      000B38 03                    9222 	.uleb128	3
      000B39 00 00 0B 7A           9223 	.dw	0,2938
      000B3D 54 49 4D 32 5F 53 65  9224 	.ascii "TIM2_SetIC2Prescaler"
             74 49 43 32 50 72 65
             73 63 61 6C 65 72
      000B51 00                    9225 	.db	0
      000B52 00 00r08r5D           9226 	.dw	0,(_TIM2_SetIC2Prescaler)
      000B56 00 00r08r8C           9227 	.dw	0,(XG$TIM2_SetIC2Prescaler$0$0+1)
      000B5A 01                    9228 	.db	1
      000B5B 00 00r03r74           9229 	.dw	0,(Ldebug_loc_start+884)
      000B5F 04                    9230 	.uleb128	4
      000B60 02                    9231 	.db	2
      000B61 91                    9232 	.db	145
      000B62 7F                    9233 	.sleb128	-1
      000B63 54 49 4D 32 5F 49 43  9234 	.ascii "TIM2_IC2Prescaler"
             32 50 72 65 73 63 61
             6C 65 72
      000B74 00                    9235 	.db	0
      000B75 00 00 00 E0           9236 	.dw	0,224
      000B79 00                    9237 	.uleb128	0
      000B7A 03                    9238 	.uleb128	3
      000B7B 00 00 0B BC           9239 	.dw	0,3004
      000B7F 54 49 4D 32 5F 53 65  9240 	.ascii "TIM2_SetIC3Prescaler"
             74 49 43 33 50 72 65
             73 63 61 6C 65 72
      000B93 00                    9241 	.db	0
      000B94 00 00r08r8C           9242 	.dw	0,(_TIM2_SetIC3Prescaler)
      000B98 00 00r08rBB           9243 	.dw	0,(XG$TIM2_SetIC3Prescaler$0$0+1)
      000B9C 01                    9244 	.db	1
      000B9D 00 00r02rF4           9245 	.dw	0,(Ldebug_loc_start+756)
      000BA1 04                    9246 	.uleb128	4
      000BA2 02                    9247 	.db	2
      000BA3 91                    9248 	.db	145
      000BA4 7F                    9249 	.sleb128	-1
      000BA5 54 49 4D 32 5F 49 43  9250 	.ascii "TIM2_IC3Prescaler"
             33 50 72 65 73 63 61
             6C 65 72
      000BB6 00                    9251 	.db	0
      000BB7 00 00 00 E0           9252 	.dw	0,224
      000BBB 00                    9253 	.uleb128	0
      000BBC 0B                    9254 	.uleb128	11
      000BBD 00 00 0C 18           9255 	.dw	0,3096
      000BC1 54 49 4D 32 5F 47 65  9256 	.ascii "TIM2_GetCapture1"
             74 43 61 70 74 75 72
             65 31
      000BD1 00                    9257 	.db	0
      000BD2 00 00r08rBB           9258 	.dw	0,(_TIM2_GetCapture1)
      000BD6 00 00r08rD0           9259 	.dw	0,(XG$TIM2_GetCapture1$0$0+1)
      000BDA 01                    9260 	.db	1
      000BDB 00 00r02rC8           9261 	.dw	0,(Ldebug_loc_start+712)
      000BDF 00 00 00 F1           9262 	.dw	0,241
      000BE3 08                    9263 	.uleb128	8
      000BE4 06                    9264 	.db	6
      000BE5 50                    9265 	.db	80
      000BE6 93                    9266 	.db	147
      000BE7 01                    9267 	.uleb128	1
      000BE8 51                    9268 	.db	81
      000BE9 93                    9269 	.db	147
      000BEA 01                    9270 	.uleb128	1
      000BEB 74 6D 70 63 63 72 31  9271 	.ascii "tmpccr1"
      000BF2 00                    9272 	.db	0
      000BF3 00 00 00 F1           9273 	.dw	0,241
      000BF7 08                    9274 	.uleb128	8
      000BF8 01                    9275 	.db	1
      000BF9 50                    9276 	.db	80
      000BFA 74 6D 70 63 63 72 31  9277 	.ascii "tmpccr1l"
             6C
      000C02 00                    9278 	.db	0
      000C03 00 00 00 E0           9279 	.dw	0,224
      000C07 08                    9280 	.uleb128	8
      000C08 01                    9281 	.db	1
      000C09 52                    9282 	.db	82
      000C0A 74 6D 70 63 63 72 31  9283 	.ascii "tmpccr1h"
             68
      000C12 00                    9284 	.db	0
      000C13 00 00 00 E0           9285 	.dw	0,224
      000C17 00                    9286 	.uleb128	0
      000C18 0B                    9287 	.uleb128	11
      000C19 00 00 0C 74           9288 	.dw	0,3188
      000C1D 54 49 4D 32 5F 47 65  9289 	.ascii "TIM2_GetCapture2"
             74 43 61 70 74 75 72
             65 32
      000C2D 00                    9290 	.db	0
      000C2E 00 00r08rD0           9291 	.dw	0,(_TIM2_GetCapture2)
      000C32 00 00r08rE5           9292 	.dw	0,(XG$TIM2_GetCapture2$0$0+1)
      000C36 01                    9293 	.db	1
      000C37 00 00r02r9C           9294 	.dw	0,(Ldebug_loc_start+668)
      000C3B 00 00 00 F1           9295 	.dw	0,241
      000C3F 08                    9296 	.uleb128	8
      000C40 06                    9297 	.db	6
      000C41 50                    9298 	.db	80
      000C42 93                    9299 	.db	147
      000C43 01                    9300 	.uleb128	1
      000C44 51                    9301 	.db	81
      000C45 93                    9302 	.db	147
      000C46 01                    9303 	.uleb128	1
      000C47 74 6D 70 63 63 72 32  9304 	.ascii "tmpccr2"
      000C4E 00                    9305 	.db	0
      000C4F 00 00 00 F1           9306 	.dw	0,241
      000C53 08                    9307 	.uleb128	8
      000C54 01                    9308 	.db	1
      000C55 50                    9309 	.db	80
      000C56 74 6D 70 63 63 72 32  9310 	.ascii "tmpccr2l"
             6C
      000C5E 00                    9311 	.db	0
      000C5F 00 00 00 E0           9312 	.dw	0,224
      000C63 08                    9313 	.uleb128	8
      000C64 01                    9314 	.db	1
      000C65 52                    9315 	.db	82
      000C66 74 6D 70 63 63 72 32  9316 	.ascii "tmpccr2h"
             68
      000C6E 00                    9317 	.db	0
      000C6F 00 00 00 E0           9318 	.dw	0,224
      000C73 00                    9319 	.uleb128	0
      000C74 0B                    9320 	.uleb128	11
      000C75 00 00 0C D0           9321 	.dw	0,3280
      000C79 54 49 4D 32 5F 47 65  9322 	.ascii "TIM2_GetCapture3"
             74 43 61 70 74 75 72
             65 33
      000C89 00                    9323 	.db	0
      000C8A 00 00r08rE5           9324 	.dw	0,(_TIM2_GetCapture3)
      000C8E 00 00r08rFA           9325 	.dw	0,(XG$TIM2_GetCapture3$0$0+1)
      000C92 01                    9326 	.db	1
      000C93 00 00r02r70           9327 	.dw	0,(Ldebug_loc_start+624)
      000C97 00 00 00 F1           9328 	.dw	0,241
      000C9B 08                    9329 	.uleb128	8
      000C9C 06                    9330 	.db	6
      000C9D 50                    9331 	.db	80
      000C9E 93                    9332 	.db	147
      000C9F 01                    9333 	.uleb128	1
      000CA0 51                    9334 	.db	81
      000CA1 93                    9335 	.db	147
      000CA2 01                    9336 	.uleb128	1
      000CA3 74 6D 70 63 63 72 33  9337 	.ascii "tmpccr3"
      000CAA 00                    9338 	.db	0
      000CAB 00 00 00 F1           9339 	.dw	0,241
      000CAF 08                    9340 	.uleb128	8
      000CB0 01                    9341 	.db	1
      000CB1 50                    9342 	.db	80
      000CB2 74 6D 70 63 63 72 33  9343 	.ascii "tmpccr3l"
             6C
      000CBA 00                    9344 	.db	0
      000CBB 00 00 00 E0           9345 	.dw	0,224
      000CBF 08                    9346 	.uleb128	8
      000CC0 01                    9347 	.db	1
      000CC1 52                    9348 	.db	82
      000CC2 74 6D 70 63 63 72 33  9349 	.ascii "tmpccr3h"
             68
      000CCA 00                    9350 	.db	0
      000CCB 00 00 00 E0           9351 	.dw	0,224
      000CCF 00                    9352 	.uleb128	0
      000CD0 0B                    9353 	.uleb128	11
      000CD1 00 00 0D 0C           9354 	.dw	0,3340
      000CD5 54 49 4D 32 5F 47 65  9355 	.ascii "TIM2_GetCounter"
             74 43 6F 75 6E 74 65
             72
      000CE4 00                    9356 	.db	0
      000CE5 00 00r08rFA           9357 	.dw	0,(_TIM2_GetCounter)
      000CE9 00 00r09r10           9358 	.dw	0,(XG$TIM2_GetCounter$0$0+1)
      000CED 01                    9359 	.db	1
      000CEE 00 00r02r44           9360 	.dw	0,(Ldebug_loc_start+580)
      000CF2 00 00 00 F1           9361 	.dw	0,241
      000CF6 08                    9362 	.uleb128	8
      000CF7 07                    9363 	.db	7
      000CF8 52                    9364 	.db	82
      000CF9 93                    9365 	.db	147
      000CFA 01                    9366 	.uleb128	1
      000CFB 91                    9367 	.db	145
      000CFC 7D                    9368 	.sleb128	-3
      000CFD 93                    9369 	.db	147
      000CFE 01                    9370 	.uleb128	1
      000CFF 74 6D 70 63 6E 74 72  9371 	.ascii "tmpcntr"
      000D06 00                    9372 	.db	0
      000D07 00 00 00 F1           9373 	.dw	0,241
      000D0B 00                    9374 	.uleb128	0
      000D0C 0C                    9375 	.uleb128	12
      000D0D 54 49 4D 32 5F 47 65  9376 	.ascii "TIM2_GetPrescaler"
             74 50 72 65 73 63 61
             6C 65 72
      000D1E 00                    9377 	.db	0
      000D1F 00 00r09r10           9378 	.dw	0,(_TIM2_GetPrescaler)
      000D23 00 00r09r14           9379 	.dw	0,(XG$TIM2_GetPrescaler$0$0+1)
      000D27 01                    9380 	.db	1
      000D28 00 00r02r30           9381 	.dw	0,(Ldebug_loc_start+560)
      000D2C 00 00 00 E0           9382 	.dw	0,224
      000D30 0B                    9383 	.uleb128	11
      000D31 00 00 0D B6           9384 	.dw	0,3510
      000D35 54 49 4D 32 5F 47 65  9385 	.ascii "TIM2_GetFlagStatus"
             74 46 6C 61 67 53 74
             61 74 75 73
      000D47 00                    9386 	.db	0
      000D48 00 00r09r14           9387 	.dw	0,(_TIM2_GetFlagStatus)
      000D4C 00 00r09r68           9388 	.dw	0,(XG$TIM2_GetFlagStatus$0$0+1)
      000D50 01                    9389 	.db	1
      000D51 00 00r01r44           9390 	.dw	0,(Ldebug_loc_start+324)
      000D55 00 00 04 24           9391 	.dw	0,1060
      000D59 04                    9392 	.uleb128	4
      000D5A 02                    9393 	.db	2
      000D5B 91                    9394 	.db	145
      000D5C 7E                    9395 	.sleb128	-2
      000D5D 54 49 4D 32 5F 46 4C  9396 	.ascii "TIM2_FLAG"
             41 47
      000D66 00                    9397 	.db	0
      000D67 00 00 0D B6           9398 	.dw	0,3510
      000D6B 07                    9399 	.uleb128	7
      000D6C 00 00r09r61           9400 	.dw	0,(Sstm8s_tim2$TIM2_GetFlagStatus$888)
      000D70 00 00r09r63           9401 	.dw	0,(Sstm8s_tim2$TIM2_GetFlagStatus$890)
      000D74 07                    9402 	.uleb128	7
      000D75 00 00r09r63           9403 	.dw	0,(Sstm8s_tim2$TIM2_GetFlagStatus$891)
      000D79 00 00r09r63           9404 	.dw	0,(Sstm8s_tim2$TIM2_GetFlagStatus$893)
      000D7D 08                    9405 	.uleb128	8
      000D7E 01                    9406 	.db	1
      000D7F 50                    9407 	.db	80
      000D80 62 69 74 73 74 61 74  9408 	.ascii "bitstatus"
             75 73
      000D89 00                    9409 	.db	0
      000D8A 00 00 04 24           9410 	.dw	0,1060
      000D8E 08                    9411 	.uleb128	8
      000D8F 02                    9412 	.db	2
      000D90 91                    9413 	.db	145
      000D91 7D                    9414 	.sleb128	-3
      000D92 74 69 6D 32 5F 66 6C  9415 	.ascii "tim2_flag_l"
             61 67 5F 6C
      000D9D 00                    9416 	.db	0
      000D9E 00 00 00 E0           9417 	.dw	0,224
      000DA2 08                    9418 	.uleb128	8
      000DA3 01                    9419 	.db	1
      000DA4 52                    9420 	.db	82
      000DA5 74 69 6D 32 5F 66 6C  9421 	.ascii "tim2_flag_h"
             61 67 5F 68
      000DB0 00                    9422 	.db	0
      000DB1 00 00 00 E0           9423 	.dw	0,224
      000DB5 00                    9424 	.uleb128	0
      000DB6 05                    9425 	.uleb128	5
      000DB7 75 6E 73 69 67 6E 65  9426 	.ascii "unsigned int"
             64 20 69 6E 74
      000DC3 00                    9427 	.db	0
      000DC4 02                    9428 	.db	2
      000DC5 07                    9429 	.db	7
      000DC6 03                    9430 	.uleb128	3
      000DC7 00 00 0D FA           9431 	.dw	0,3578
      000DCB 54 49 4D 32 5F 43 6C  9432 	.ascii "TIM2_ClearFlag"
             65 61 72 46 6C 61 67
      000DD9 00                    9433 	.db	0
      000DDA 00 00r09r68           9434 	.dw	0,(_TIM2_ClearFlag)
      000DDE 00 00r09r94           9435 	.dw	0,(XG$TIM2_ClearFlag$0$0+1)
      000DE2 01                    9436 	.db	1
      000DE3 00 00r00rE8           9437 	.dw	0,(Ldebug_loc_start+232)
      000DE7 04                    9438 	.uleb128	4
      000DE8 02                    9439 	.db	2
      000DE9 91                    9440 	.db	145
      000DEA 7E                    9441 	.sleb128	-2
      000DEB 54 49 4D 32 5F 46 4C  9442 	.ascii "TIM2_FLAG"
             41 47
      000DF4 00                    9443 	.db	0
      000DF5 00 00 0D B6           9444 	.dw	0,3510
      000DF9 00                    9445 	.uleb128	0
      000DFA 0B                    9446 	.uleb128	11
      000DFB 00 00 0E 80           9447 	.dw	0,3712
      000DFF 54 49 4D 32 5F 47 65  9448 	.ascii "TIM2_GetITStatus"
             74 49 54 53 74 61 74
             75 73
      000E0F 00                    9449 	.db	0
      000E10 00 00r09r94           9450 	.dw	0,(_TIM2_GetITStatus)
      000E14 00 00r09rD1           9451 	.dw	0,(XG$TIM2_GetITStatus$0$0+1)
      000E18 01                    9452 	.db	1
      000E19 00 00r00r5C           9453 	.dw	0,(Ldebug_loc_start+92)
      000E1D 00 00 04 24           9454 	.dw	0,1060
      000E21 04                    9455 	.uleb128	4
      000E22 02                    9456 	.db	2
      000E23 91                    9457 	.db	145
      000E24 7F                    9458 	.sleb128	-1
      000E25 54 49 4D 32 5F 49 54  9459 	.ascii "TIM2_IT"
      000E2C 00                    9460 	.db	0
      000E2D 00 00 00 E0           9461 	.dw	0,224
      000E31 07                    9462 	.uleb128	7
      000E32 00 00r09rCB           9463 	.dw	0,(Sstm8s_tim2$TIM2_GetITStatus$928)
      000E36 00 00r09rCD           9464 	.dw	0,(Sstm8s_tim2$TIM2_GetITStatus$930)
      000E3A 07                    9465 	.uleb128	7
      000E3B 00 00r09rCD           9466 	.dw	0,(Sstm8s_tim2$TIM2_GetITStatus$931)
      000E3F 00 00r09rCD           9467 	.dw	0,(Sstm8s_tim2$TIM2_GetITStatus$933)
      000E43 08                    9468 	.uleb128	8
      000E44 01                    9469 	.db	1
      000E45 50                    9470 	.db	80
      000E46 62 69 74 73 74 61 74  9471 	.ascii "bitstatus"
             75 73
      000E4F 00                    9472 	.db	0
      000E50 00 00 04 24           9473 	.dw	0,1060
      000E54 08                    9474 	.uleb128	8
      000E55 02                    9475 	.db	2
      000E56 91                    9476 	.db	145
      000E57 7E                    9477 	.sleb128	-2
      000E58 54 49 4D 32 5F 69 74  9478 	.ascii "TIM2_itStatus"
             53 74 61 74 75 73
      000E65 00                    9479 	.db	0
      000E66 00 00 00 E0           9480 	.dw	0,224
      000E6A 08                    9481 	.uleb128	8
      000E6B 01                    9482 	.db	1
      000E6C 50                    9483 	.db	80
      000E6D 54 49 4D 32 5F 69 74  9484 	.ascii "TIM2_itEnable"
             45 6E 61 62 6C 65
      000E7A 00                    9485 	.db	0
      000E7B 00 00 00 E0           9486 	.dw	0,224
      000E7F 00                    9487 	.uleb128	0
      000E80 03                    9488 	.uleb128	3
      000E81 00 00 0E B9           9489 	.dw	0,3769
      000E85 54 49 4D 32 5F 43 6C  9490 	.ascii "TIM2_ClearITPendingBit"
             65 61 72 49 54 50 65
             6E 64 69 6E 67 42 69
             74
      000E9B 00                    9491 	.db	0
      000E9C 00 00r09rD1           9492 	.dw	0,(_TIM2_ClearITPendingBit)
      000EA0 00 00r09rEB           9493 	.dw	0,(XG$TIM2_ClearITPendingBit$0$0+1)
      000EA4 01                    9494 	.db	1
      000EA5 00 00r00r00           9495 	.dw	0,(Ldebug_loc_start)
      000EA9 04                    9496 	.uleb128	4
      000EAA 01                    9497 	.db	1
      000EAB 50                    9498 	.db	80
      000EAC 54 49 4D 32 5F 49 54  9499 	.ascii "TIM2_IT"
      000EB3 00                    9500 	.db	0
      000EB4 00 00 00 E0           9501 	.dw	0,224
      000EB8 00                    9502 	.uleb128	0
      000EB9 06                    9503 	.uleb128	6
      000EBA 00 00 0F 28           9504 	.dw	0,3880
      000EBE 54 49 31 5F 43 6F 6E  9505 	.ascii "TI1_Config"
             66 69 67
      000EC8 00                    9506 	.db	0
      000EC9 00 00r09rEB           9507 	.dw	0,(_TI1_Config)
      000ECD 00                    9508 	.db	0
      000ECE 04                    9509 	.uleb128	4
      000ECF 02                    9510 	.db	2
      000ED0 91                    9511 	.db	145
      000ED1 7F                    9512 	.sleb128	-1
      000ED2 54 49 4D 32 5F 49 43  9513 	.ascii "TIM2_ICPolarity"
             50 6F 6C 61 72 69 74
             79
      000EE1 00                    9514 	.db	0
      000EE2 00 00 00 E0           9515 	.dw	0,224
      000EE6 04                    9516 	.uleb128	4
      000EE7 02                    9517 	.db	2
      000EE8 91                    9518 	.db	145
      000EE9 02                    9519 	.sleb128	2
      000EEA 54 49 4D 32 5F 49 43  9520 	.ascii "TIM2_ICSelection"
             53 65 6C 65 63 74 69
             6F 6E
      000EFA 00                    9521 	.db	0
      000EFB 00 00 00 E0           9522 	.dw	0,224
      000EFF 04                    9523 	.uleb128	4
      000F00 02                    9524 	.db	2
      000F01 91                    9525 	.db	145
      000F02 03                    9526 	.sleb128	3
      000F03 54 49 4D 32 5F 49 43  9527 	.ascii "TIM2_ICFilter"
             46 69 6C 74 65 72
      000F10 00                    9528 	.db	0
      000F11 00 00 00 E0           9529 	.dw	0,224
      000F15 07                    9530 	.uleb128	7
      000F16 00 00r0Ar0C           9531 	.dw	0,(Sstm8s_tim2$TI1_Config$960)
      000F1A 00 00r0Ar11           9532 	.dw	0,(Sstm8s_tim2$TI1_Config$962)
      000F1E 07                    9533 	.uleb128	7
      000F1F 00 00r0Ar13           9534 	.dw	0,(Sstm8s_tim2$TI1_Config$963)
      000F23 00 00r0Ar18           9535 	.dw	0,(Sstm8s_tim2$TI1_Config$965)
      000F27 00                    9536 	.uleb128	0
      000F28 06                    9537 	.uleb128	6
      000F29 00 00 0F 97           9538 	.dw	0,3991
      000F2D 54 49 32 5F 43 6F 6E  9539 	.ascii "TI2_Config"
             66 69 67
      000F37 00                    9540 	.db	0
      000F38 00 00r0Ar25           9541 	.dw	0,(_TI2_Config)
      000F3C 00                    9542 	.db	0
      000F3D 04                    9543 	.uleb128	4
      000F3E 02                    9544 	.db	2
      000F3F 91                    9545 	.db	145
      000F40 7F                    9546 	.sleb128	-1
      000F41 54 49 4D 32 5F 49 43  9547 	.ascii "TIM2_ICPolarity"
             50 6F 6C 61 72 69 74
             79
      000F50 00                    9548 	.db	0
      000F51 00 00 00 E0           9549 	.dw	0,224
      000F55 04                    9550 	.uleb128	4
      000F56 02                    9551 	.db	2
      000F57 91                    9552 	.db	145
      000F58 02                    9553 	.sleb128	2
      000F59 54 49 4D 32 5F 49 43  9554 	.ascii "TIM2_ICSelection"
             53 65 6C 65 63 74 69
             6F 6E
      000F69 00                    9555 	.db	0
      000F6A 00 00 00 E0           9556 	.dw	0,224
      000F6E 04                    9557 	.uleb128	4
      000F6F 02                    9558 	.db	2
      000F70 91                    9559 	.db	145
      000F71 03                    9560 	.sleb128	3
      000F72 54 49 4D 32 5F 49 43  9561 	.ascii "TIM2_ICFilter"
             46 69 6C 74 65 72
      000F7F 00                    9562 	.db	0
      000F80 00 00 00 E0           9563 	.dw	0,224
      000F84 07                    9564 	.uleb128	7
      000F85 00 00r0Ar46           9565 	.dw	0,(Sstm8s_tim2$TI2_Config$978)
      000F89 00 00r0Ar4B           9566 	.dw	0,(Sstm8s_tim2$TI2_Config$980)
      000F8D 07                    9567 	.uleb128	7
      000F8E 00 00r0Ar4D           9568 	.dw	0,(Sstm8s_tim2$TI2_Config$981)
      000F92 00 00r0Ar52           9569 	.dw	0,(Sstm8s_tim2$TI2_Config$983)
      000F96 00                    9570 	.uleb128	0
      000F97 06                    9571 	.uleb128	6
      000F98 00 00 10 06           9572 	.dw	0,4102
      000F9C 54 49 33 5F 43 6F 6E  9573 	.ascii "TI3_Config"
             66 69 67
      000FA6 00                    9574 	.db	0
      000FA7 00 00r0Ar5F           9575 	.dw	0,(_TI3_Config)
      000FAB 00                    9576 	.db	0
      000FAC 04                    9577 	.uleb128	4
      000FAD 02                    9578 	.db	2
      000FAE 91                    9579 	.db	145
      000FAF 7F                    9580 	.sleb128	-1
      000FB0 54 49 4D 32 5F 49 43  9581 	.ascii "TIM2_ICPolarity"
             50 6F 6C 61 72 69 74
             79
      000FBF 00                    9582 	.db	0
      000FC0 00 00 00 E0           9583 	.dw	0,224
      000FC4 04                    9584 	.uleb128	4
      000FC5 02                    9585 	.db	2
      000FC6 91                    9586 	.db	145
      000FC7 02                    9587 	.sleb128	2
      000FC8 54 49 4D 32 5F 49 43  9588 	.ascii "TIM2_ICSelection"
             53 65 6C 65 63 74 69
             6F 6E
      000FD8 00                    9589 	.db	0
      000FD9 00 00 00 E0           9590 	.dw	0,224
      000FDD 04                    9591 	.uleb128	4
      000FDE 02                    9592 	.db	2
      000FDF 91                    9593 	.db	145
      000FE0 03                    9594 	.sleb128	3
      000FE1 54 49 4D 32 5F 49 43  9595 	.ascii "TIM2_ICFilter"
             46 69 6C 74 65 72
      000FEE 00                    9596 	.db	0
      000FEF 00 00 00 E0           9597 	.dw	0,224
      000FF3 07                    9598 	.uleb128	7
      000FF4 00 00r0Ar80           9599 	.dw	0,(Sstm8s_tim2$TI3_Config$996)
      000FF8 00 00r0Ar85           9600 	.dw	0,(Sstm8s_tim2$TI3_Config$998)
      000FFC 07                    9601 	.uleb128	7
      000FFD 00 00r0Ar87           9602 	.dw	0,(Sstm8s_tim2$TI3_Config$999)
      001001 00 00r0Ar8C           9603 	.dw	0,(Sstm8s_tim2$TI3_Config$1001)
      001005 00                    9604 	.uleb128	0
      001006 0D                    9605 	.uleb128	13
      001007 00 00 00 E0           9606 	.dw	0,224
      00100B 0E                    9607 	.uleb128	14
      00100C 00 00 10 18           9608 	.dw	0,4120
      001010 48                    9609 	.db	72
      001011 00 00 10 06           9610 	.dw	0,4102
      001015 0F                    9611 	.uleb128	15
      001016 47                    9612 	.db	71
      001017 00                    9613 	.uleb128	0
      001018 08                    9614 	.uleb128	8
      001019 05                    9615 	.db	5
      00101A 03                    9616 	.db	3
      00101B 00 00r00r00           9617 	.dw	0,(___str_0)
      00101F 5F 5F 73 74 72 5F 30  9618 	.ascii "__str_0"
      001026 00                    9619 	.db	0
      001027 00 00 10 0B           9620 	.dw	0,4107
      00102B 00                    9621 	.uleb128	0
      00102C                       9622 Ldebug_info_end:
                                   9623 
                                   9624 	.area .debug_pubnames (NOLOAD)
      000000 00 00 03 D0           9625 	.dw	0,Ldebug_pubnames_end-Ldebug_pubnames_start
      000004                       9626 Ldebug_pubnames_start:
      000004 00 02                 9627 	.dw	2
      000006 00 00r00r00           9628 	.dw	0,(Ldebug_info_start-4)
      00000A 00 00 10 2C           9629 	.dw	0,4+Ldebug_info_end-Ldebug_info_start
      00000E 00 00 00 73           9630 	.dw	0,115
      000012 54 49 4D 32 5F 44 65  9631 	.ascii "TIM2_DeInit"
             49 6E 69 74
      00001D 00                    9632 	.db	0
      00001E 00 00 00 8D           9633 	.dw	0,141
      000022 54 49 4D 32 5F 54 69  9634 	.ascii "TIM2_TimeBaseInit"
             6D 65 42 61 73 65 49
             6E 69 74
      000033 00                    9635 	.db	0
      000034 00 00 01 01           9636 	.dw	0,257
      000038 54 49 4D 32 5F 4F 43  9637 	.ascii "TIM2_OC1Init"
             31 49 6E 69 74
      000044 00                    9638 	.db	0
      000045 00 00 01 71           9639 	.dw	0,369
      000049 54 49 4D 32 5F 4F 43  9640 	.ascii "TIM2_OC2Init"
             32 49 6E 69 74
      000055 00                    9641 	.db	0
      000056 00 00 01 E1           9642 	.dw	0,481
      00005A 54 49 4D 32 5F 4F 43  9643 	.ascii "TIM2_OC3Init"
             33 49 6E 69 74
      000066 00                    9644 	.db	0
      000067 00 00 02 51           9645 	.dw	0,593
      00006B 54 49 4D 32 5F 49 43  9646 	.ascii "TIM2_ICInit"
             49 6E 69 74
      000076 00                    9647 	.db	0
      000077 00 00 02 F8           9648 	.dw	0,760
      00007B 54 49 4D 32 5F 50 57  9649 	.ascii "TIM2_PWMIConfig"
             4D 49 43 6F 6E 66 69
             67
      00008A 00                    9650 	.db	0
      00008B 00 00 03 E5           9651 	.dw	0,997
      00008F 54 49 4D 32 5F 43 6D  9652 	.ascii "TIM2_Cmd"
             64
      000097 00                    9653 	.db	0
      000098 00 00 04 2D           9654 	.dw	0,1069
      00009C 54 49 4D 32 5F 49 54  9655 	.ascii "TIM2_ITConfig"
             43 6F 6E 66 69 67
      0000A9 00                    9656 	.db	0
      0000AA 00 00 04 78           9657 	.dw	0,1144
      0000AE 54 49 4D 32 5F 55 70  9658 	.ascii "TIM2_UpdateDisableConfig"
             64 61 74 65 44 69 73
             61 62 6C 65 43 6F 6E
             66 69 67
      0000C6 00                    9659 	.db	0
      0000C7 00 00 04 C7           9660 	.dw	0,1223
      0000CB 54 49 4D 32 5F 55 70  9661 	.ascii "TIM2_UpdateRequestConfig"
             64 61 74 65 52 65 71
             75 65 73 74 43 6F 6E
             66 69 67
      0000E3 00                    9662 	.db	0
      0000E4 00 00 05 1F           9663 	.dw	0,1311
      0000E8 54 49 4D 32 5F 53 65  9664 	.ascii "TIM2_SelectOnePulseMode"
             6C 65 63 74 4F 6E 65
             50 75 6C 73 65 4D 6F
             64 65
      0000FF 00                    9665 	.db	0
      000100 00 00 05 70           9666 	.dw	0,1392
      000104 54 49 4D 32 5F 50 72  9667 	.ascii "TIM2_PrescalerConfig"
             65 73 63 61 6C 65 72
             43 6F 6E 66 69 67
      000118 00                    9668 	.db	0
      000119 00 00 05 BC           9669 	.dw	0,1468
      00011D 54 49 4D 32 5F 46 6F  9670 	.ascii "TIM2_ForcedOC1Config"
             72 63 65 64 4F 43 31
             43 6F 6E 66 69 67
      000131 00                    9671 	.db	0
      000132 00 00 05 FE           9672 	.dw	0,1534
      000136 54 49 4D 32 5F 46 6F  9673 	.ascii "TIM2_ForcedOC2Config"
             72 63 65 64 4F 43 32
             43 6F 6E 66 69 67
      00014A 00                    9674 	.db	0
      00014B 00 00 06 40           9675 	.dw	0,1600
      00014F 54 49 4D 32 5F 46 6F  9676 	.ascii "TIM2_ForcedOC3Config"
             72 63 65 64 4F 43 33
             43 6F 6E 66 69 67
      000163 00                    9677 	.db	0
      000164 00 00 06 82           9678 	.dw	0,1666
      000168 54 49 4D 32 5F 41 52  9679 	.ascii "TIM2_ARRPreloadConfig"
             52 50 72 65 6C 6F 61
             64 43 6F 6E 66 69 67
      00017D 00                    9680 	.db	0
      00017E 00 00 06 CE           9681 	.dw	0,1742
      000182 54 49 4D 32 5F 4F 43  9682 	.ascii "TIM2_OC1PreloadConfig"
             31 50 72 65 6C 6F 61
             64 43 6F 6E 66 69 67
      000197 00                    9683 	.db	0
      000198 00 00 07 1A           9684 	.dw	0,1818
      00019C 54 49 4D 32 5F 4F 43  9685 	.ascii "TIM2_OC2PreloadConfig"
             32 50 72 65 6C 6F 61
             64 43 6F 6E 66 69 67
      0001B1 00                    9686 	.db	0
      0001B2 00 00 07 66           9687 	.dw	0,1894
      0001B6 54 49 4D 32 5F 4F 43  9688 	.ascii "TIM2_OC3PreloadConfig"
             33 50 72 65 6C 6F 61
             64 43 6F 6E 66 69 67
      0001CB 00                    9689 	.db	0
      0001CC 00 00 07 B2           9690 	.dw	0,1970
      0001D0 54 49 4D 32 5F 47 65  9691 	.ascii "TIM2_GenerateEvent"
             6E 65 72 61 74 65 45
             76 65 6E 74
      0001E2 00                    9692 	.db	0
      0001E3 00 00 07 F0           9693 	.dw	0,2032
      0001E7 54 49 4D 32 5F 4F 43  9694 	.ascii "TIM2_OC1PolarityConfig"
             31 50 6F 6C 61 72 69
             74 79 43 6F 6E 66 69
             67
      0001FD 00                    9695 	.db	0
      0001FE 00 00 08 44           9696 	.dw	0,2116
      000202 54 49 4D 32 5F 4F 43  9697 	.ascii "TIM2_OC2PolarityConfig"
             32 50 6F 6C 61 72 69
             74 79 43 6F 6E 66 69
             67
      000218 00                    9698 	.db	0
      000219 00 00 08 98           9699 	.dw	0,2200
      00021D 54 49 4D 32 5F 4F 43  9700 	.ascii "TIM2_OC3PolarityConfig"
             33 50 6F 6C 61 72 69
             74 79 43 6F 6E 66 69
             67
      000233 00                    9701 	.db	0
      000234 00 00 08 EC           9702 	.dw	0,2284
      000238 54 49 4D 32 5F 43 43  9703 	.ascii "TIM2_CCxCmd"
             78 43 6D 64
      000243 00                    9704 	.db	0
      000244 00 00 09 78           9705 	.dw	0,2424
      000248 54 49 4D 32 5F 53 65  9706 	.ascii "TIM2_SelectOCxM"
             6C 65 63 74 4F 43 78
             4D
      000257 00                    9707 	.db	0
      000258 00 00 09 D7           9708 	.dw	0,2519
      00025C 54 49 4D 32 5F 53 65  9709 	.ascii "TIM2_SetCounter"
             74 43 6F 75 6E 74 65
             72
      00026B 00                    9710 	.db	0
      00026C 00 00 0A 0E           9711 	.dw	0,2574
      000270 54 49 4D 32 5F 53 65  9712 	.ascii "TIM2_SetAutoreload"
             74 41 75 74 6F 72 65
             6C 6F 61 64
      000282 00                    9713 	.db	0
      000283 00 00 0A 4B           9714 	.dw	0,2635
      000287 54 49 4D 32 5F 53 65  9715 	.ascii "TIM2_SetCompare1"
             74 43 6F 6D 70 61 72
             65 31
      000297 00                    9716 	.db	0
      000298 00 00 0A 84           9717 	.dw	0,2692
      00029C 54 49 4D 32 5F 53 65  9718 	.ascii "TIM2_SetCompare2"
             74 43 6F 6D 70 61 72
             65 32
      0002AC 00                    9719 	.db	0
      0002AD 00 00 0A BD           9720 	.dw	0,2749
      0002B1 54 49 4D 32 5F 53 65  9721 	.ascii "TIM2_SetCompare3"
             74 43 6F 6D 70 61 72
             65 33
      0002C1 00                    9722 	.db	0
      0002C2 00 00 0A F6           9723 	.dw	0,2806
      0002C6 54 49 4D 32 5F 53 65  9724 	.ascii "TIM2_SetIC1Prescaler"
             74 49 43 31 50 72 65
             73 63 61 6C 65 72
      0002DA 00                    9725 	.db	0
      0002DB 00 00 0B 38           9726 	.dw	0,2872
      0002DF 54 49 4D 32 5F 53 65  9727 	.ascii "TIM2_SetIC2Prescaler"
             74 49 43 32 50 72 65
             73 63 61 6C 65 72
      0002F3 00                    9728 	.db	0
      0002F4 00 00 0B 7A           9729 	.dw	0,2938
      0002F8 54 49 4D 32 5F 53 65  9730 	.ascii "TIM2_SetIC3Prescaler"
             74 49 43 33 50 72 65
             73 63 61 6C 65 72
      00030C 00                    9731 	.db	0
      00030D 00 00 0B BC           9732 	.dw	0,3004
      000311 54 49 4D 32 5F 47 65  9733 	.ascii "TIM2_GetCapture1"
             74 43 61 70 74 75 72
             65 31
      000321 00                    9734 	.db	0
      000322 00 00 0C 18           9735 	.dw	0,3096
      000326 54 49 4D 32 5F 47 65  9736 	.ascii "TIM2_GetCapture2"
             74 43 61 70 74 75 72
             65 32
      000336 00                    9737 	.db	0
      000337 00 00 0C 74           9738 	.dw	0,3188
      00033B 54 49 4D 32 5F 47 65  9739 	.ascii "TIM2_GetCapture3"
             74 43 61 70 74 75 72
             65 33
      00034B 00                    9740 	.db	0
      00034C 00 00 0C D0           9741 	.dw	0,3280
      000350 54 49 4D 32 5F 47 65  9742 	.ascii "TIM2_GetCounter"
             74 43 6F 75 6E 74 65
             72
      00035F 00                    9743 	.db	0
      000360 00 00 0D 0C           9744 	.dw	0,3340
      000364 54 49 4D 32 5F 47 65  9745 	.ascii "TIM2_GetPrescaler"
             74 50 72 65 73 63 61
             6C 65 72
      000375 00                    9746 	.db	0
      000376 00 00 0D 30           9747 	.dw	0,3376
      00037A 54 49 4D 32 5F 47 65  9748 	.ascii "TIM2_GetFlagStatus"
             74 46 6C 61 67 53 74
             61 74 75 73
      00038C 00                    9749 	.db	0
      00038D 00 00 0D C6           9750 	.dw	0,3526
      000391 54 49 4D 32 5F 43 6C  9751 	.ascii "TIM2_ClearFlag"
             65 61 72 46 6C 61 67
      00039F 00                    9752 	.db	0
      0003A0 00 00 0D FA           9753 	.dw	0,3578
      0003A4 54 49 4D 32 5F 47 65  9754 	.ascii "TIM2_GetITStatus"
             74 49 54 53 74 61 74
             75 73
      0003B4 00                    9755 	.db	0
      0003B5 00 00 0E 80           9756 	.dw	0,3712
      0003B9 54 49 4D 32 5F 43 6C  9757 	.ascii "TIM2_ClearITPendingBit"
             65 61 72 49 54 50 65
             6E 64 69 6E 67 42 69
             74
      0003CF 00                    9758 	.db	0
      0003D0 00 00 00 00           9759 	.dw	0,0
      0003D4                       9760 Ldebug_pubnames_end:
                                   9761 
                                   9762 	.area .debug_frame (NOLOAD)
      000000 00 00                 9763 	.dw	0
      000002 00 10                 9764 	.dw	Ldebug_CIE0_end-Ldebug_CIE0_start
      000004                       9765 Ldebug_CIE0_start:
      000004 FF FF                 9766 	.dw	0xffff
      000006 FF FF                 9767 	.dw	0xffff
      000008 01                    9768 	.db	1
      000009 00                    9769 	.db	0
      00000A 01                    9770 	.uleb128	1
      00000B 7F                    9771 	.sleb128	-1
      00000C 09                    9772 	.db	9
      00000D 0C                    9773 	.db	12
      00000E 08                    9774 	.uleb128	8
      00000F 02                    9775 	.uleb128	2
      000010 89                    9776 	.db	137
      000011 01                    9777 	.uleb128	1
      000012 00                    9778 	.db	0
      000013 00                    9779 	.db	0
      000014                       9780 Ldebug_CIE0_end:
      000014 00 00 00 28           9781 	.dw	0,40
      000018 00 00r00r00           9782 	.dw	0,(Ldebug_CIE0_start-4)
      00001C 00 00r0Ar5F           9783 	.dw	0,(Sstm8s_tim2$TI3_Config$989)	;initial loc
      000020 00 00 00 3A           9784 	.dw	0,Sstm8s_tim2$TI3_Config$1005-Sstm8s_tim2$TI3_Config$989
      000024 01                    9785 	.db	1
      000025 00 00r0Ar5F           9786 	.dw	0,(Sstm8s_tim2$TI3_Config$989)
      000029 0E                    9787 	.db	14
      00002A 02                    9788 	.uleb128	2
      00002B 01                    9789 	.db	1
      00002C 00 00r0Ar60           9790 	.dw	0,(Sstm8s_tim2$TI3_Config$990)
      000030 0E                    9791 	.db	14
      000031 04                    9792 	.uleb128	4
      000032 01                    9793 	.db	1
      000033 00 00r0Ar98           9794 	.dw	0,(Sstm8s_tim2$TI3_Config$1004)
      000037 0E                    9795 	.db	14
      000038 FE FF FF FF 0F        9796 	.uleb128	-2
      00003D 00                    9797 	.db	0
      00003E 00                    9798 	.db	0
      00003F 00                    9799 	.db	0
                                   9800 
                                   9801 	.area .debug_frame (NOLOAD)
      000040 00 00                 9802 	.dw	0
      000042 00 10                 9803 	.dw	Ldebug_CIE1_end-Ldebug_CIE1_start
      000044                       9804 Ldebug_CIE1_start:
      000044 FF FF                 9805 	.dw	0xffff
      000046 FF FF                 9806 	.dw	0xffff
      000048 01                    9807 	.db	1
      000049 00                    9808 	.db	0
      00004A 01                    9809 	.uleb128	1
      00004B 7F                    9810 	.sleb128	-1
      00004C 09                    9811 	.db	9
      00004D 0C                    9812 	.db	12
      00004E 08                    9813 	.uleb128	8
      00004F 02                    9814 	.uleb128	2
      000050 89                    9815 	.db	137
      000051 01                    9816 	.uleb128	1
      000052 00                    9817 	.db	0
      000053 00                    9818 	.db	0
      000054                       9819 Ldebug_CIE1_end:
      000054 00 00 00 28           9820 	.dw	0,40
      000058 00 00r00r40           9821 	.dw	0,(Ldebug_CIE1_start-4)
      00005C 00 00r0Ar25           9822 	.dw	0,(Sstm8s_tim2$TI2_Config$971)	;initial loc
      000060 00 00 00 3A           9823 	.dw	0,Sstm8s_tim2$TI2_Config$987-Sstm8s_tim2$TI2_Config$971
      000064 01                    9824 	.db	1
      000065 00 00r0Ar25           9825 	.dw	0,(Sstm8s_tim2$TI2_Config$971)
      000069 0E                    9826 	.db	14
      00006A 02                    9827 	.uleb128	2
      00006B 01                    9828 	.db	1
      00006C 00 00r0Ar26           9829 	.dw	0,(Sstm8s_tim2$TI2_Config$972)
      000070 0E                    9830 	.db	14
      000071 04                    9831 	.uleb128	4
      000072 01                    9832 	.db	1
      000073 00 00r0Ar5E           9833 	.dw	0,(Sstm8s_tim2$TI2_Config$986)
      000077 0E                    9834 	.db	14
      000078 FE FF FF FF 0F        9835 	.uleb128	-2
      00007D 00                    9836 	.db	0
      00007E 00                    9837 	.db	0
      00007F 00                    9838 	.db	0
                                   9839 
                                   9840 	.area .debug_frame (NOLOAD)
      000080 00 00                 9841 	.dw	0
      000082 00 10                 9842 	.dw	Ldebug_CIE2_end-Ldebug_CIE2_start
      000084                       9843 Ldebug_CIE2_start:
      000084 FF FF                 9844 	.dw	0xffff
      000086 FF FF                 9845 	.dw	0xffff
      000088 01                    9846 	.db	1
      000089 00                    9847 	.db	0
      00008A 01                    9848 	.uleb128	1
      00008B 7F                    9849 	.sleb128	-1
      00008C 09                    9850 	.db	9
      00008D 0C                    9851 	.db	12
      00008E 08                    9852 	.uleb128	8
      00008F 02                    9853 	.uleb128	2
      000090 89                    9854 	.db	137
      000091 01                    9855 	.uleb128	1
      000092 00                    9856 	.db	0
      000093 00                    9857 	.db	0
      000094                       9858 Ldebug_CIE2_end:
      000094 00 00 00 28           9859 	.dw	0,40
      000098 00 00r00r80           9860 	.dw	0,(Ldebug_CIE2_start-4)
      00009C 00 00r09rEB           9861 	.dw	0,(Sstm8s_tim2$TI1_Config$953)	;initial loc
      0000A0 00 00 00 3A           9862 	.dw	0,Sstm8s_tim2$TI1_Config$969-Sstm8s_tim2$TI1_Config$953
      0000A4 01                    9863 	.db	1
      0000A5 00 00r09rEB           9864 	.dw	0,(Sstm8s_tim2$TI1_Config$953)
      0000A9 0E                    9865 	.db	14
      0000AA 02                    9866 	.uleb128	2
      0000AB 01                    9867 	.db	1
      0000AC 00 00r09rEC           9868 	.dw	0,(Sstm8s_tim2$TI1_Config$954)
      0000B0 0E                    9869 	.db	14
      0000B1 04                    9870 	.uleb128	4
      0000B2 01                    9871 	.db	1
      0000B3 00 00r0Ar24           9872 	.dw	0,(Sstm8s_tim2$TI1_Config$968)
      0000B7 0E                    9873 	.db	14
      0000B8 FE FF FF FF 0F        9874 	.uleb128	-2
      0000BD 00                    9875 	.db	0
      0000BE 00                    9876 	.db	0
      0000BF 00                    9877 	.db	0
                                   9878 
                                   9879 	.area .debug_frame (NOLOAD)
      0000C0 00 00                 9880 	.dw	0
      0000C2 00 10                 9881 	.dw	Ldebug_CIE3_end-Ldebug_CIE3_start
      0000C4                       9882 Ldebug_CIE3_start:
      0000C4 FF FF                 9883 	.dw	0xffff
      0000C6 FF FF                 9884 	.dw	0xffff
      0000C8 01                    9885 	.db	1
      0000C9 00                    9886 	.db	0
      0000CA 01                    9887 	.uleb128	1
      0000CB 7F                    9888 	.sleb128	-1
      0000CC 09                    9889 	.db	9
      0000CD 0C                    9890 	.db	12
      0000CE 08                    9891 	.uleb128	8
      0000CF 02                    9892 	.uleb128	2
      0000D0 89                    9893 	.db	137
      0000D1 01                    9894 	.uleb128	1
      0000D2 00                    9895 	.db	0
      0000D3 00                    9896 	.db	0
      0000D4                       9897 Ldebug_CIE3_end:
      0000D4 00 00 00 40           9898 	.dw	0,64
      0000D8 00 00r00rC0           9899 	.dw	0,(Ldebug_CIE3_start-4)
      0000DC 00 00r09rD1           9900 	.dw	0,(Sstm8s_tim2$TIM2_ClearITPendingBit$940)	;initial loc
      0000E0 00 00 00 1A           9901 	.dw	0,Sstm8s_tim2$TIM2_ClearITPendingBit$951-Sstm8s_tim2$TIM2_ClearITPendingBit$940
      0000E4 01                    9902 	.db	1
      0000E5 00 00r09rD1           9903 	.dw	0,(Sstm8s_tim2$TIM2_ClearITPendingBit$940)
      0000E9 0E                    9904 	.db	14
      0000EA 02                    9905 	.uleb128	2
      0000EB 01                    9906 	.db	1
      0000EC 00 00r09rD9           9907 	.dw	0,(Sstm8s_tim2$TIM2_ClearITPendingBit$942)
      0000F0 0E                    9908 	.db	14
      0000F1 03                    9909 	.uleb128	3
      0000F2 01                    9910 	.db	1
      0000F3 00 00r09rDB           9911 	.dw	0,(Sstm8s_tim2$TIM2_ClearITPendingBit$943)
      0000F7 0E                    9912 	.db	14
      0000F8 04                    9913 	.uleb128	4
      0000F9 01                    9914 	.db	1
      0000FA 00 00r09rDD           9915 	.dw	0,(Sstm8s_tim2$TIM2_ClearITPendingBit$944)
      0000FE 0E                    9916 	.db	14
      0000FF 05                    9917 	.uleb128	5
      000100 01                    9918 	.db	1
      000101 00 00r09rDF           9919 	.dw	0,(Sstm8s_tim2$TIM2_ClearITPendingBit$945)
      000105 0E                    9920 	.db	14
      000106 07                    9921 	.uleb128	7
      000107 01                    9922 	.db	1
      000108 00 00r09rE5           9923 	.dw	0,(Sstm8s_tim2$TIM2_ClearITPendingBit$946)
      00010C 0E                    9924 	.db	14
      00010D 03                    9925 	.uleb128	3
      00010E 01                    9926 	.db	1
      00010F 00 00r09rE6           9927 	.dw	0,(Sstm8s_tim2$TIM2_ClearITPendingBit$947)
      000113 0E                    9928 	.db	14
      000114 02                    9929 	.uleb128	2
      000115 00                    9930 	.db	0
      000116 00                    9931 	.db	0
      000117 00                    9932 	.db	0
                                   9933 
                                   9934 	.area .debug_frame (NOLOAD)
      000118 00 00                 9935 	.dw	0
      00011A 00 10                 9936 	.dw	Ldebug_CIE4_end-Ldebug_CIE4_start
      00011C                       9937 Ldebug_CIE4_start:
      00011C FF FF                 9938 	.dw	0xffff
      00011E FF FF                 9939 	.dw	0xffff
      000120 01                    9940 	.db	1
      000121 00                    9941 	.db	0
      000122 01                    9942 	.uleb128	1
      000123 7F                    9943 	.sleb128	-1
      000124 09                    9944 	.db	9
      000125 0C                    9945 	.db	12
      000126 08                    9946 	.uleb128	8
      000127 02                    9947 	.uleb128	2
      000128 89                    9948 	.db	137
      000129 01                    9949 	.uleb128	1
      00012A 00                    9950 	.db	0
      00012B 00                    9951 	.db	0
      00012C                       9952 Ldebug_CIE4_end:
      00012C 00 00 00 5C           9953 	.dw	0,92
      000130 00 00r01r18           9954 	.dw	0,(Ldebug_CIE4_start-4)
      000134 00 00r09r94           9955 	.dw	0,(Sstm8s_tim2$TIM2_GetITStatus$914)	;initial loc
      000138 00 00 00 3D           9956 	.dw	0,Sstm8s_tim2$TIM2_GetITStatus$938-Sstm8s_tim2$TIM2_GetITStatus$914
      00013C 01                    9957 	.db	1
      00013D 00 00r09r94           9958 	.dw	0,(Sstm8s_tim2$TIM2_GetITStatus$914)
      000141 0E                    9959 	.db	14
      000142 02                    9960 	.uleb128	2
      000143 01                    9961 	.db	1
      000144 00 00r09r95           9962 	.dw	0,(Sstm8s_tim2$TIM2_GetITStatus$915)
      000148 0E                    9963 	.db	14
      000149 04                    9964 	.uleb128	4
      00014A 01                    9965 	.db	1
      00014B 00 00r09r9A           9966 	.dw	0,(Sstm8s_tim2$TIM2_GetITStatus$917)
      00014F 0E                    9967 	.db	14
      000150 04                    9968 	.uleb128	4
      000151 01                    9969 	.db	1
      000152 00 00r09rA0           9970 	.dw	0,(Sstm8s_tim2$TIM2_GetITStatus$918)
      000156 0E                    9971 	.db	14
      000157 04                    9972 	.uleb128	4
      000158 01                    9973 	.db	1
      000159 00 00r09rA6           9974 	.dw	0,(Sstm8s_tim2$TIM2_GetITStatus$919)
      00015D 0E                    9975 	.db	14
      00015E 04                    9976 	.uleb128	4
      00015F 01                    9977 	.db	1
      000160 00 00r09rAC           9978 	.dw	0,(Sstm8s_tim2$TIM2_GetITStatus$920)
      000164 0E                    9979 	.db	14
      000165 04                    9980 	.uleb128	4
      000166 01                    9981 	.db	1
      000167 00 00r09rAE           9982 	.dw	0,(Sstm8s_tim2$TIM2_GetITStatus$921)
      00016B 0E                    9983 	.db	14
      00016C 05                    9984 	.uleb128	5
      00016D 01                    9985 	.db	1
      00016E 00 00r09rB0           9986 	.dw	0,(Sstm8s_tim2$TIM2_GetITStatus$922)
      000172 0E                    9987 	.db	14
      000173 06                    9988 	.uleb128	6
      000174 01                    9989 	.db	1
      000175 00 00r09rB2           9990 	.dw	0,(Sstm8s_tim2$TIM2_GetITStatus$923)
      000179 0E                    9991 	.db	14
      00017A 08                    9992 	.uleb128	8
      00017B 01                    9993 	.db	1
      00017C 00 00r09rB8           9994 	.dw	0,(Sstm8s_tim2$TIM2_GetITStatus$924)
      000180 0E                    9995 	.db	14
      000181 04                    9996 	.uleb128	4
      000182 01                    9997 	.db	1
      000183 00 00r09rD0           9998 	.dw	0,(Sstm8s_tim2$TIM2_GetITStatus$936)
      000187 0E                    9999 	.db	14
      000188 02                   10000 	.uleb128	2
      000189 00                   10001 	.db	0
      00018A 00                   10002 	.db	0
      00018B 00                   10003 	.db	0
                                  10004 
                                  10005 	.area .debug_frame (NOLOAD)
      00018C 00 00                10006 	.dw	0
      00018E 00 10                10007 	.dw	Ldebug_CIE5_end-Ldebug_CIE5_start
      000190                      10008 Ldebug_CIE5_start:
      000190 FF FF                10009 	.dw	0xffff
      000192 FF FF                10010 	.dw	0xffff
      000194 01                   10011 	.db	1
      000195 00                   10012 	.db	0
      000196 01                   10013 	.uleb128	1
      000197 7F                   10014 	.sleb128	-1
      000198 09                   10015 	.db	9
      000199 0C                   10016 	.db	12
      00019A 08                   10017 	.uleb128	8
      00019B 02                   10018 	.uleb128	2
      00019C 89                   10019 	.db	137
      00019D 01                   10020 	.uleb128	1
      00019E 00                   10021 	.db	0
      00019F 00                   10022 	.db	0
      0001A0                      10023 Ldebug_CIE5_end:
      0001A0 00 00 00 40          10024 	.dw	0,64
      0001A4 00 00r01r8C          10025 	.dw	0,(Ldebug_CIE5_start-4)
      0001A8 00 00r09r68          10026 	.dw	0,(Sstm8s_tim2$TIM2_ClearFlag$900)	;initial loc
      0001AC 00 00 00 2C          10027 	.dw	0,Sstm8s_tim2$TIM2_ClearFlag$912-Sstm8s_tim2$TIM2_ClearFlag$900
      0001B0 01                   10028 	.db	1
      0001B1 00 00r09r68          10029 	.dw	0,(Sstm8s_tim2$TIM2_ClearFlag$900)
      0001B5 0E                   10030 	.db	14
      0001B6 02                   10031 	.uleb128	2
      0001B7 01                   10032 	.db	1
      0001B8 00 00r09r69          10033 	.dw	0,(Sstm8s_tim2$TIM2_ClearFlag$901)
      0001BC 0E                   10034 	.db	14
      0001BD 04                   10035 	.uleb128	4
      0001BE 01                   10036 	.db	1
      0001BF 00 00r09r7E          10037 	.dw	0,(Sstm8s_tim2$TIM2_ClearFlag$903)
      0001C3 0E                   10038 	.db	14
      0001C4 05                   10039 	.uleb128	5
      0001C5 01                   10040 	.db	1
      0001C6 00 00r09r80          10041 	.dw	0,(Sstm8s_tim2$TIM2_ClearFlag$904)
      0001CA 0E                   10042 	.db	14
      0001CB 06                   10043 	.uleb128	6
      0001CC 01                   10044 	.db	1
      0001CD 00 00r09r82          10045 	.dw	0,(Sstm8s_tim2$TIM2_ClearFlag$905)
      0001D1 0E                   10046 	.db	14
      0001D2 08                   10047 	.uleb128	8
      0001D3 01                   10048 	.db	1
      0001D4 00 00r09r88          10049 	.dw	0,(Sstm8s_tim2$TIM2_ClearFlag$906)
      0001D8 0E                   10050 	.db	14
      0001D9 04                   10051 	.uleb128	4
      0001DA 01                   10052 	.db	1
      0001DB 00 00r09r93          10053 	.dw	0,(Sstm8s_tim2$TIM2_ClearFlag$910)
      0001DF 0E                   10054 	.db	14
      0001E0 02                   10055 	.uleb128	2
      0001E1 00                   10056 	.db	0
      0001E2 00                   10057 	.db	0
      0001E3 00                   10058 	.db	0
                                  10059 
                                  10060 	.area .debug_frame (NOLOAD)
      0001E4 00 00                10061 	.dw	0
      0001E6 00 10                10062 	.dw	Ldebug_CIE6_end-Ldebug_CIE6_start
      0001E8                      10063 Ldebug_CIE6_start:
      0001E8 FF FF                10064 	.dw	0xffff
      0001EA FF FF                10065 	.dw	0xffff
      0001EC 01                   10066 	.db	1
      0001ED 00                   10067 	.db	0
      0001EE 01                   10068 	.uleb128	1
      0001EF 7F                   10069 	.sleb128	-1
      0001F0 09                   10070 	.db	9
      0001F1 0C                   10071 	.db	12
      0001F2 08                   10072 	.uleb128	8
      0001F3 02                   10073 	.uleb128	2
      0001F4 89                   10074 	.db	137
      0001F5 01                   10075 	.uleb128	1
      0001F6 00                   10076 	.db	0
      0001F7 00                   10077 	.db	0
      0001F8                      10078 Ldebug_CIE6_end:
      0001F8 00 00 00 94          10079 	.dw	0,148
      0001FC 00 00r01rE4          10080 	.dw	0,(Ldebug_CIE6_start-4)
      000200 00 00r09r14          10081 	.dw	0,(Sstm8s_tim2$TIM2_GetFlagStatus$866)	;initial loc
      000204 00 00 00 54          10082 	.dw	0,Sstm8s_tim2$TIM2_GetFlagStatus$898-Sstm8s_tim2$TIM2_GetFlagStatus$866
      000208 01                   10083 	.db	1
      000209 00 00r09r14          10084 	.dw	0,(Sstm8s_tim2$TIM2_GetFlagStatus$866)
      00020D 0E                   10085 	.db	14
      00020E 02                   10086 	.uleb128	2
      00020F 01                   10087 	.db	1
      000210 00 00r09r16          10088 	.dw	0,(Sstm8s_tim2$TIM2_GetFlagStatus$867)
      000214 0E                   10089 	.db	14
      000215 05                   10090 	.uleb128	5
      000216 01                   10091 	.db	1
      000217 00 00r09r1D          10092 	.dw	0,(Sstm8s_tim2$TIM2_GetFlagStatus$869)
      00021B 0E                   10093 	.db	14
      00021C 05                   10094 	.uleb128	5
      00021D 01                   10095 	.db	1
      00021E 00 00r09r22          10096 	.dw	0,(Sstm8s_tim2$TIM2_GetFlagStatus$870)
      000222 0E                   10097 	.db	14
      000223 05                   10098 	.uleb128	5
      000224 01                   10099 	.db	1
      000225 00 00r09r27          10100 	.dw	0,(Sstm8s_tim2$TIM2_GetFlagStatus$871)
      000229 0E                   10101 	.db	14
      00022A 05                   10102 	.uleb128	5
      00022B 01                   10103 	.db	1
      00022C 00 00r09r2C          10104 	.dw	0,(Sstm8s_tim2$TIM2_GetFlagStatus$872)
      000230 0E                   10105 	.db	14
      000231 05                   10106 	.uleb128	5
      000232 01                   10107 	.db	1
      000233 00 00r09r31          10108 	.dw	0,(Sstm8s_tim2$TIM2_GetFlagStatus$873)
      000237 0E                   10109 	.db	14
      000238 05                   10110 	.uleb128	5
      000239 01                   10111 	.db	1
      00023A 00 00r09r36          10112 	.dw	0,(Sstm8s_tim2$TIM2_GetFlagStatus$874)
      00023E 0E                   10113 	.db	14
      00023F 05                   10114 	.uleb128	5
      000240 01                   10115 	.db	1
      000241 00 00r09r3B          10116 	.dw	0,(Sstm8s_tim2$TIM2_GetFlagStatus$875)
      000245 0E                   10117 	.db	14
      000246 05                   10118 	.uleb128	5
      000247 01                   10119 	.db	1
      000248 00 00r09r3C          10120 	.dw	0,(Sstm8s_tim2$TIM2_GetFlagStatus$876)
      00024C 0E                   10121 	.db	14
      00024D 07                   10122 	.uleb128	7
      00024E 01                   10123 	.db	1
      00024F 00 00r09r3E          10124 	.dw	0,(Sstm8s_tim2$TIM2_GetFlagStatus$877)
      000253 0E                   10125 	.db	14
      000254 08                   10126 	.uleb128	8
      000255 01                   10127 	.db	1
      000256 00 00r09r40          10128 	.dw	0,(Sstm8s_tim2$TIM2_GetFlagStatus$878)
      00025A 0E                   10129 	.db	14
      00025B 09                   10130 	.uleb128	9
      00025C 01                   10131 	.db	1
      00025D 00 00r09r42          10132 	.dw	0,(Sstm8s_tim2$TIM2_GetFlagStatus$879)
      000261 0E                   10133 	.db	14
      000262 0A                   10134 	.uleb128	10
      000263 01                   10135 	.db	1
      000264 00 00r09r44          10136 	.dw	0,(Sstm8s_tim2$TIM2_GetFlagStatus$880)
      000268 0E                   10137 	.db	14
      000269 0B                   10138 	.uleb128	11
      00026A 01                   10139 	.db	1
      00026B 00 00r09r4A          10140 	.dw	0,(Sstm8s_tim2$TIM2_GetFlagStatus$881)
      00026F 0E                   10141 	.db	14
      000270 07                   10142 	.uleb128	7
      000271 01                   10143 	.db	1
      000272 00 00r09r4B          10144 	.dw	0,(Sstm8s_tim2$TIM2_GetFlagStatus$882)
      000276 0E                   10145 	.db	14
      000277 05                   10146 	.uleb128	5
      000278 01                   10147 	.db	1
      000279 00 00r09r5A          10148 	.dw	0,(Sstm8s_tim2$TIM2_GetFlagStatus$886)
      00027D 0E                   10149 	.db	14
      00027E 07                   10150 	.uleb128	7
      00027F 01                   10151 	.db	1
      000280 00 00r09r5D          10152 	.dw	0,(Sstm8s_tim2$TIM2_GetFlagStatus$887)
      000284 0E                   10153 	.db	14
      000285 05                   10154 	.uleb128	5
      000286 01                   10155 	.db	1
      000287 00 00r09r67          10156 	.dw	0,(Sstm8s_tim2$TIM2_GetFlagStatus$896)
      00028B 0E                   10157 	.db	14
      00028C 02                   10158 	.uleb128	2
      00028D 00                   10159 	.db	0
      00028E 00                   10160 	.db	0
      00028F 00                   10161 	.db	0
                                  10162 
                                  10163 	.area .debug_frame (NOLOAD)
      000290 00 00                10164 	.dw	0
      000292 00 10                10165 	.dw	Ldebug_CIE7_end-Ldebug_CIE7_start
      000294                      10166 Ldebug_CIE7_start:
      000294 FF FF                10167 	.dw	0xffff
      000296 FF FF                10168 	.dw	0xffff
      000298 01                   10169 	.db	1
      000299 00                   10170 	.db	0
      00029A 01                   10171 	.uleb128	1
      00029B 7F                   10172 	.sleb128	-1
      00029C 09                   10173 	.db	9
      00029D 0C                   10174 	.db	12
      00029E 08                   10175 	.uleb128	8
      00029F 02                   10176 	.uleb128	2
      0002A0 89                   10177 	.db	137
      0002A1 01                   10178 	.uleb128	1
      0002A2 00                   10179 	.db	0
      0002A3 00                   10180 	.db	0
      0002A4                      10181 Ldebug_CIE7_end:
      0002A4 00 00 00 14          10182 	.dw	0,20
      0002A8 00 00r02r90          10183 	.dw	0,(Ldebug_CIE7_start-4)
      0002AC 00 00r09r10          10184 	.dw	0,(Sstm8s_tim2$TIM2_GetPrescaler$860)	;initial loc
      0002B0 00 00 00 04          10185 	.dw	0,Sstm8s_tim2$TIM2_GetPrescaler$864-Sstm8s_tim2$TIM2_GetPrescaler$860
      0002B4 01                   10186 	.db	1
      0002B5 00 00r09r10          10187 	.dw	0,(Sstm8s_tim2$TIM2_GetPrescaler$860)
      0002B9 0E                   10188 	.db	14
      0002BA 02                   10189 	.uleb128	2
      0002BB 00                   10190 	.db	0
                                  10191 
                                  10192 	.area .debug_frame (NOLOAD)
      0002BC 00 00                10193 	.dw	0
      0002BE 00 10                10194 	.dw	Ldebug_CIE8_end-Ldebug_CIE8_start
      0002C0                      10195 Ldebug_CIE8_start:
      0002C0 FF FF                10196 	.dw	0xffff
      0002C2 FF FF                10197 	.dw	0xffff
      0002C4 01                   10198 	.db	1
      0002C5 00                   10199 	.db	0
      0002C6 01                   10200 	.uleb128	1
      0002C7 7F                   10201 	.sleb128	-1
      0002C8 09                   10202 	.db	9
      0002C9 0C                   10203 	.db	12
      0002CA 08                   10204 	.uleb128	8
      0002CB 02                   10205 	.uleb128	2
      0002CC 89                   10206 	.db	137
      0002CD 01                   10207 	.uleb128	1
      0002CE 00                   10208 	.db	0
      0002CF 00                   10209 	.db	0
      0002D0                      10210 Ldebug_CIE8_end:
      0002D0 00 00 00 24          10211 	.dw	0,36
      0002D4 00 00r02rBC          10212 	.dw	0,(Ldebug_CIE8_start-4)
      0002D8 00 00r08rFA          10213 	.dw	0,(Sstm8s_tim2$TIM2_GetCounter$851)	;initial loc
      0002DC 00 00 00 16          10214 	.dw	0,Sstm8s_tim2$TIM2_GetCounter$858-Sstm8s_tim2$TIM2_GetCounter$851
      0002E0 01                   10215 	.db	1
      0002E1 00 00r08rFA          10216 	.dw	0,(Sstm8s_tim2$TIM2_GetCounter$851)
      0002E5 0E                   10217 	.db	14
      0002E6 02                   10218 	.uleb128	2
      0002E7 01                   10219 	.db	1
      0002E8 00 00r08rFC          10220 	.dw	0,(Sstm8s_tim2$TIM2_GetCounter$852)
      0002EC 0E                   10221 	.db	14
      0002ED 06                   10222 	.uleb128	6
      0002EE 01                   10223 	.db	1
      0002EF 00 00r09r0F          10224 	.dw	0,(Sstm8s_tim2$TIM2_GetCounter$856)
      0002F3 0E                   10225 	.db	14
      0002F4 02                   10226 	.uleb128	2
      0002F5 00                   10227 	.db	0
      0002F6 00                   10228 	.db	0
      0002F7 00                   10229 	.db	0
                                  10230 
                                  10231 	.area .debug_frame (NOLOAD)
      0002F8 00 00                10232 	.dw	0
      0002FA 00 10                10233 	.dw	Ldebug_CIE9_end-Ldebug_CIE9_start
      0002FC                      10234 Ldebug_CIE9_start:
      0002FC FF FF                10235 	.dw	0xffff
      0002FE FF FF                10236 	.dw	0xffff
      000300 01                   10237 	.db	1
      000301 00                   10238 	.db	0
      000302 01                   10239 	.uleb128	1
      000303 7F                   10240 	.sleb128	-1
      000304 09                   10241 	.db	9
      000305 0C                   10242 	.db	12
      000306 08                   10243 	.uleb128	8
      000307 02                   10244 	.uleb128	2
      000308 89                   10245 	.db	137
      000309 01                   10246 	.uleb128	1
      00030A 00                   10247 	.db	0
      00030B 00                   10248 	.db	0
      00030C                      10249 Ldebug_CIE9_end:
      00030C 00 00 00 24          10250 	.dw	0,36
      000310 00 00r02rF8          10251 	.dw	0,(Ldebug_CIE9_start-4)
      000314 00 00r08rE5          10252 	.dw	0,(Sstm8s_tim2$TIM2_GetCapture3$839)	;initial loc
      000318 00 00 00 15          10253 	.dw	0,Sstm8s_tim2$TIM2_GetCapture3$849-Sstm8s_tim2$TIM2_GetCapture3$839
      00031C 01                   10254 	.db	1
      00031D 00 00r08rE5          10255 	.dw	0,(Sstm8s_tim2$TIM2_GetCapture3$839)
      000321 0E                   10256 	.db	14
      000322 02                   10257 	.uleb128	2
      000323 01                   10258 	.db	1
      000324 00 00r08rE6          10259 	.dw	0,(Sstm8s_tim2$TIM2_GetCapture3$840)
      000328 0E                   10260 	.db	14
      000329 04                   10261 	.uleb128	4
      00032A 01                   10262 	.db	1
      00032B 00 00r08rF9          10263 	.dw	0,(Sstm8s_tim2$TIM2_GetCapture3$847)
      00032F 0E                   10264 	.db	14
      000330 02                   10265 	.uleb128	2
      000331 00                   10266 	.db	0
      000332 00                   10267 	.db	0
      000333 00                   10268 	.db	0
                                  10269 
                                  10270 	.area .debug_frame (NOLOAD)
      000334 00 00                10271 	.dw	0
      000336 00 10                10272 	.dw	Ldebug_CIE10_end-Ldebug_CIE10_start
      000338                      10273 Ldebug_CIE10_start:
      000338 FF FF                10274 	.dw	0xffff
      00033A FF FF                10275 	.dw	0xffff
      00033C 01                   10276 	.db	1
      00033D 00                   10277 	.db	0
      00033E 01                   10278 	.uleb128	1
      00033F 7F                   10279 	.sleb128	-1
      000340 09                   10280 	.db	9
      000341 0C                   10281 	.db	12
      000342 08                   10282 	.uleb128	8
      000343 02                   10283 	.uleb128	2
      000344 89                   10284 	.db	137
      000345 01                   10285 	.uleb128	1
      000346 00                   10286 	.db	0
      000347 00                   10287 	.db	0
      000348                      10288 Ldebug_CIE10_end:
      000348 00 00 00 24          10289 	.dw	0,36
      00034C 00 00r03r34          10290 	.dw	0,(Ldebug_CIE10_start-4)
      000350 00 00r08rD0          10291 	.dw	0,(Sstm8s_tim2$TIM2_GetCapture2$827)	;initial loc
      000354 00 00 00 15          10292 	.dw	0,Sstm8s_tim2$TIM2_GetCapture2$837-Sstm8s_tim2$TIM2_GetCapture2$827
      000358 01                   10293 	.db	1
      000359 00 00r08rD0          10294 	.dw	0,(Sstm8s_tim2$TIM2_GetCapture2$827)
      00035D 0E                   10295 	.db	14
      00035E 02                   10296 	.uleb128	2
      00035F 01                   10297 	.db	1
      000360 00 00r08rD1          10298 	.dw	0,(Sstm8s_tim2$TIM2_GetCapture2$828)
      000364 0E                   10299 	.db	14
      000365 04                   10300 	.uleb128	4
      000366 01                   10301 	.db	1
      000367 00 00r08rE4          10302 	.dw	0,(Sstm8s_tim2$TIM2_GetCapture2$835)
      00036B 0E                   10303 	.db	14
      00036C 02                   10304 	.uleb128	2
      00036D 00                   10305 	.db	0
      00036E 00                   10306 	.db	0
      00036F 00                   10307 	.db	0
                                  10308 
                                  10309 	.area .debug_frame (NOLOAD)
      000370 00 00                10310 	.dw	0
      000372 00 10                10311 	.dw	Ldebug_CIE11_end-Ldebug_CIE11_start
      000374                      10312 Ldebug_CIE11_start:
      000374 FF FF                10313 	.dw	0xffff
      000376 FF FF                10314 	.dw	0xffff
      000378 01                   10315 	.db	1
      000379 00                   10316 	.db	0
      00037A 01                   10317 	.uleb128	1
      00037B 7F                   10318 	.sleb128	-1
      00037C 09                   10319 	.db	9
      00037D 0C                   10320 	.db	12
      00037E 08                   10321 	.uleb128	8
      00037F 02                   10322 	.uleb128	2
      000380 89                   10323 	.db	137
      000381 01                   10324 	.uleb128	1
      000382 00                   10325 	.db	0
      000383 00                   10326 	.db	0
      000384                      10327 Ldebug_CIE11_end:
      000384 00 00 00 24          10328 	.dw	0,36
      000388 00 00r03r70          10329 	.dw	0,(Ldebug_CIE11_start-4)
      00038C 00 00r08rBB          10330 	.dw	0,(Sstm8s_tim2$TIM2_GetCapture1$815)	;initial loc
      000390 00 00 00 15          10331 	.dw	0,Sstm8s_tim2$TIM2_GetCapture1$825-Sstm8s_tim2$TIM2_GetCapture1$815
      000394 01                   10332 	.db	1
      000395 00 00r08rBB          10333 	.dw	0,(Sstm8s_tim2$TIM2_GetCapture1$815)
      000399 0E                   10334 	.db	14
      00039A 02                   10335 	.uleb128	2
      00039B 01                   10336 	.db	1
      00039C 00 00r08rBC          10337 	.dw	0,(Sstm8s_tim2$TIM2_GetCapture1$816)
      0003A0 0E                   10338 	.db	14
      0003A1 04                   10339 	.uleb128	4
      0003A2 01                   10340 	.db	1
      0003A3 00 00r08rCF          10341 	.dw	0,(Sstm8s_tim2$TIM2_GetCapture1$823)
      0003A7 0E                   10342 	.db	14
      0003A8 02                   10343 	.uleb128	2
      0003A9 00                   10344 	.db	0
      0003AA 00                   10345 	.db	0
      0003AB 00                   10346 	.db	0
                                  10347 
                                  10348 	.area .debug_frame (NOLOAD)
      0003AC 00 00                10349 	.dw	0
      0003AE 00 10                10350 	.dw	Ldebug_CIE12_end-Ldebug_CIE12_start
      0003B0                      10351 Ldebug_CIE12_start:
      0003B0 FF FF                10352 	.dw	0xffff
      0003B2 FF FF                10353 	.dw	0xffff
      0003B4 01                   10354 	.db	1
      0003B5 00                   10355 	.db	0
      0003B6 01                   10356 	.uleb128	1
      0003B7 7F                   10357 	.sleb128	-1
      0003B8 09                   10358 	.db	9
      0003B9 0C                   10359 	.db	12
      0003BA 08                   10360 	.uleb128	8
      0003BB 02                   10361 	.uleb128	2
      0003BC 89                   10362 	.db	137
      0003BD 01                   10363 	.uleb128	1
      0003BE 00                   10364 	.db	0
      0003BF 00                   10365 	.db	0
      0003C0                      10366 Ldebug_CIE12_end:
      0003C0 00 00 00 54          10367 	.dw	0,84
      0003C4 00 00r03rAC          10368 	.dw	0,(Ldebug_CIE12_start-4)
      0003C8 00 00r08r8C          10369 	.dw	0,(Sstm8s_tim2$TIM2_SetIC3Prescaler$798)	;initial loc
      0003CC 00 00 00 2F          10370 	.dw	0,Sstm8s_tim2$TIM2_SetIC3Prescaler$813-Sstm8s_tim2$TIM2_SetIC3Prescaler$798
      0003D0 01                   10371 	.db	1
      0003D1 00 00r08r8C          10372 	.dw	0,(Sstm8s_tim2$TIM2_SetIC3Prescaler$798)
      0003D5 0E                   10373 	.db	14
      0003D6 02                   10374 	.uleb128	2
      0003D7 01                   10375 	.db	1
      0003D8 00 00r08r8D          10376 	.dw	0,(Sstm8s_tim2$TIM2_SetIC3Prescaler$799)
      0003DC 0E                   10377 	.db	14
      0003DD 03                   10378 	.uleb128	3
      0003DE 01                   10379 	.db	1
      0003DF 00 00r08r97          10380 	.dw	0,(Sstm8s_tim2$TIM2_SetIC3Prescaler$801)
      0003E3 0E                   10381 	.db	14
      0003E4 03                   10382 	.uleb128	3
      0003E5 01                   10383 	.db	1
      0003E6 00 00r08r9D          10384 	.dw	0,(Sstm8s_tim2$TIM2_SetIC3Prescaler$802)
      0003EA 0E                   10385 	.db	14
      0003EB 03                   10386 	.uleb128	3
      0003EC 01                   10387 	.db	1
      0003ED 00 00r08rA3          10388 	.dw	0,(Sstm8s_tim2$TIM2_SetIC3Prescaler$803)
      0003F1 0E                   10389 	.db	14
      0003F2 03                   10390 	.uleb128	3
      0003F3 01                   10391 	.db	1
      0003F4 00 00r08rA5          10392 	.dw	0,(Sstm8s_tim2$TIM2_SetIC3Prescaler$804)
      0003F8 0E                   10393 	.db	14
      0003F9 04                   10394 	.uleb128	4
      0003FA 01                   10395 	.db	1
      0003FB 00 00r08rA7          10396 	.dw	0,(Sstm8s_tim2$TIM2_SetIC3Prescaler$805)
      0003FF 0E                   10397 	.db	14
      000400 05                   10398 	.uleb128	5
      000401 01                   10399 	.db	1
      000402 00 00r08rA9          10400 	.dw	0,(Sstm8s_tim2$TIM2_SetIC3Prescaler$806)
      000406 0E                   10401 	.db	14
      000407 07                   10402 	.uleb128	7
      000408 01                   10403 	.db	1
      000409 00 00r08rAF          10404 	.dw	0,(Sstm8s_tim2$TIM2_SetIC3Prescaler$807)
      00040D 0E                   10405 	.db	14
      00040E 03                   10406 	.uleb128	3
      00040F 01                   10407 	.db	1
      000410 00 00r08rBA          10408 	.dw	0,(Sstm8s_tim2$TIM2_SetIC3Prescaler$811)
      000414 0E                   10409 	.db	14
      000415 02                   10410 	.uleb128	2
      000416 00                   10411 	.db	0
      000417 00                   10412 	.db	0
                                  10413 
                                  10414 	.area .debug_frame (NOLOAD)
      000418 00 00                10415 	.dw	0
      00041A 00 10                10416 	.dw	Ldebug_CIE13_end-Ldebug_CIE13_start
      00041C                      10417 Ldebug_CIE13_start:
      00041C FF FF                10418 	.dw	0xffff
      00041E FF FF                10419 	.dw	0xffff
      000420 01                   10420 	.db	1
      000421 00                   10421 	.db	0
      000422 01                   10422 	.uleb128	1
      000423 7F                   10423 	.sleb128	-1
      000424 09                   10424 	.db	9
      000425 0C                   10425 	.db	12
      000426 08                   10426 	.uleb128	8
      000427 02                   10427 	.uleb128	2
      000428 89                   10428 	.db	137
      000429 01                   10429 	.uleb128	1
      00042A 00                   10430 	.db	0
      00042B 00                   10431 	.db	0
      00042C                      10432 Ldebug_CIE13_end:
      00042C 00 00 00 54          10433 	.dw	0,84
      000430 00 00r04r18          10434 	.dw	0,(Ldebug_CIE13_start-4)
      000434 00 00r08r5D          10435 	.dw	0,(Sstm8s_tim2$TIM2_SetIC2Prescaler$781)	;initial loc
      000438 00 00 00 2F          10436 	.dw	0,Sstm8s_tim2$TIM2_SetIC2Prescaler$796-Sstm8s_tim2$TIM2_SetIC2Prescaler$781
      00043C 01                   10437 	.db	1
      00043D 00 00r08r5D          10438 	.dw	0,(Sstm8s_tim2$TIM2_SetIC2Prescaler$781)
      000441 0E                   10439 	.db	14
      000442 02                   10440 	.uleb128	2
      000443 01                   10441 	.db	1
      000444 00 00r08r5E          10442 	.dw	0,(Sstm8s_tim2$TIM2_SetIC2Prescaler$782)
      000448 0E                   10443 	.db	14
      000449 03                   10444 	.uleb128	3
      00044A 01                   10445 	.db	1
      00044B 00 00r08r68          10446 	.dw	0,(Sstm8s_tim2$TIM2_SetIC2Prescaler$784)
      00044F 0E                   10447 	.db	14
      000450 03                   10448 	.uleb128	3
      000451 01                   10449 	.db	1
      000452 00 00r08r6E          10450 	.dw	0,(Sstm8s_tim2$TIM2_SetIC2Prescaler$785)
      000456 0E                   10451 	.db	14
      000457 03                   10452 	.uleb128	3
      000458 01                   10453 	.db	1
      000459 00 00r08r74          10454 	.dw	0,(Sstm8s_tim2$TIM2_SetIC2Prescaler$786)
      00045D 0E                   10455 	.db	14
      00045E 03                   10456 	.uleb128	3
      00045F 01                   10457 	.db	1
      000460 00 00r08r76          10458 	.dw	0,(Sstm8s_tim2$TIM2_SetIC2Prescaler$787)
      000464 0E                   10459 	.db	14
      000465 04                   10460 	.uleb128	4
      000466 01                   10461 	.db	1
      000467 00 00r08r78          10462 	.dw	0,(Sstm8s_tim2$TIM2_SetIC2Prescaler$788)
      00046B 0E                   10463 	.db	14
      00046C 05                   10464 	.uleb128	5
      00046D 01                   10465 	.db	1
      00046E 00 00r08r7A          10466 	.dw	0,(Sstm8s_tim2$TIM2_SetIC2Prescaler$789)
      000472 0E                   10467 	.db	14
      000473 07                   10468 	.uleb128	7
      000474 01                   10469 	.db	1
      000475 00 00r08r80          10470 	.dw	0,(Sstm8s_tim2$TIM2_SetIC2Prescaler$790)
      000479 0E                   10471 	.db	14
      00047A 03                   10472 	.uleb128	3
      00047B 01                   10473 	.db	1
      00047C 00 00r08r8B          10474 	.dw	0,(Sstm8s_tim2$TIM2_SetIC2Prescaler$794)
      000480 0E                   10475 	.db	14
      000481 02                   10476 	.uleb128	2
      000482 00                   10477 	.db	0
      000483 00                   10478 	.db	0
                                  10479 
                                  10480 	.area .debug_frame (NOLOAD)
      000484 00 00                10481 	.dw	0
      000486 00 10                10482 	.dw	Ldebug_CIE14_end-Ldebug_CIE14_start
      000488                      10483 Ldebug_CIE14_start:
      000488 FF FF                10484 	.dw	0xffff
      00048A FF FF                10485 	.dw	0xffff
      00048C 01                   10486 	.db	1
      00048D 00                   10487 	.db	0
      00048E 01                   10488 	.uleb128	1
      00048F 7F                   10489 	.sleb128	-1
      000490 09                   10490 	.db	9
      000491 0C                   10491 	.db	12
      000492 08                   10492 	.uleb128	8
      000493 02                   10493 	.uleb128	2
      000494 89                   10494 	.db	137
      000495 01                   10495 	.uleb128	1
      000496 00                   10496 	.db	0
      000497 00                   10497 	.db	0
      000498                      10498 Ldebug_CIE14_end:
      000498 00 00 00 54          10499 	.dw	0,84
      00049C 00 00r04r84          10500 	.dw	0,(Ldebug_CIE14_start-4)
      0004A0 00 00r08r2E          10501 	.dw	0,(Sstm8s_tim2$TIM2_SetIC1Prescaler$764)	;initial loc
      0004A4 00 00 00 2F          10502 	.dw	0,Sstm8s_tim2$TIM2_SetIC1Prescaler$779-Sstm8s_tim2$TIM2_SetIC1Prescaler$764
      0004A8 01                   10503 	.db	1
      0004A9 00 00r08r2E          10504 	.dw	0,(Sstm8s_tim2$TIM2_SetIC1Prescaler$764)
      0004AD 0E                   10505 	.db	14
      0004AE 02                   10506 	.uleb128	2
      0004AF 01                   10507 	.db	1
      0004B0 00 00r08r2F          10508 	.dw	0,(Sstm8s_tim2$TIM2_SetIC1Prescaler$765)
      0004B4 0E                   10509 	.db	14
      0004B5 03                   10510 	.uleb128	3
      0004B6 01                   10511 	.db	1
      0004B7 00 00r08r39          10512 	.dw	0,(Sstm8s_tim2$TIM2_SetIC1Prescaler$767)
      0004BB 0E                   10513 	.db	14
      0004BC 03                   10514 	.uleb128	3
      0004BD 01                   10515 	.db	1
      0004BE 00 00r08r3F          10516 	.dw	0,(Sstm8s_tim2$TIM2_SetIC1Prescaler$768)
      0004C2 0E                   10517 	.db	14
      0004C3 03                   10518 	.uleb128	3
      0004C4 01                   10519 	.db	1
      0004C5 00 00r08r45          10520 	.dw	0,(Sstm8s_tim2$TIM2_SetIC1Prescaler$769)
      0004C9 0E                   10521 	.db	14
      0004CA 03                   10522 	.uleb128	3
      0004CB 01                   10523 	.db	1
      0004CC 00 00r08r47          10524 	.dw	0,(Sstm8s_tim2$TIM2_SetIC1Prescaler$770)
      0004D0 0E                   10525 	.db	14
      0004D1 04                   10526 	.uleb128	4
      0004D2 01                   10527 	.db	1
      0004D3 00 00r08r49          10528 	.dw	0,(Sstm8s_tim2$TIM2_SetIC1Prescaler$771)
      0004D7 0E                   10529 	.db	14
      0004D8 05                   10530 	.uleb128	5
      0004D9 01                   10531 	.db	1
      0004DA 00 00r08r4B          10532 	.dw	0,(Sstm8s_tim2$TIM2_SetIC1Prescaler$772)
      0004DE 0E                   10533 	.db	14
      0004DF 07                   10534 	.uleb128	7
      0004E0 01                   10535 	.db	1
      0004E1 00 00r08r51          10536 	.dw	0,(Sstm8s_tim2$TIM2_SetIC1Prescaler$773)
      0004E5 0E                   10537 	.db	14
      0004E6 03                   10538 	.uleb128	3
      0004E7 01                   10539 	.db	1
      0004E8 00 00r08r5C          10540 	.dw	0,(Sstm8s_tim2$TIM2_SetIC1Prescaler$777)
      0004EC 0E                   10541 	.db	14
      0004ED 02                   10542 	.uleb128	2
      0004EE 00                   10543 	.db	0
      0004EF 00                   10544 	.db	0
                                  10545 
                                  10546 	.area .debug_frame (NOLOAD)
      0004F0 00 00                10547 	.dw	0
      0004F2 00 10                10548 	.dw	Ldebug_CIE15_end-Ldebug_CIE15_start
      0004F4                      10549 Ldebug_CIE15_start:
      0004F4 FF FF                10550 	.dw	0xffff
      0004F6 FF FF                10551 	.dw	0xffff
      0004F8 01                   10552 	.db	1
      0004F9 00                   10553 	.db	0
      0004FA 01                   10554 	.uleb128	1
      0004FB 7F                   10555 	.sleb128	-1
      0004FC 09                   10556 	.db	9
      0004FD 0C                   10557 	.db	12
      0004FE 08                   10558 	.uleb128	8
      0004FF 02                   10559 	.uleb128	2
      000500 89                   10560 	.db	137
      000501 01                   10561 	.uleb128	1
      000502 00                   10562 	.db	0
      000503 00                   10563 	.db	0
      000504                      10564 Ldebug_CIE15_end:
      000504 00 00 00 14          10565 	.dw	0,20
      000508 00 00r04rF0          10566 	.dw	0,(Ldebug_CIE15_start-4)
      00050C 00 00r08r25          10567 	.dw	0,(Sstm8s_tim2$TIM2_SetCompare3$757)	;initial loc
      000510 00 00 00 09          10568 	.dw	0,Sstm8s_tim2$TIM2_SetCompare3$762-Sstm8s_tim2$TIM2_SetCompare3$757
      000514 01                   10569 	.db	1
      000515 00 00r08r25          10570 	.dw	0,(Sstm8s_tim2$TIM2_SetCompare3$757)
      000519 0E                   10571 	.db	14
      00051A 02                   10572 	.uleb128	2
      00051B 00                   10573 	.db	0
                                  10574 
                                  10575 	.area .debug_frame (NOLOAD)
      00051C 00 00                10576 	.dw	0
      00051E 00 10                10577 	.dw	Ldebug_CIE16_end-Ldebug_CIE16_start
      000520                      10578 Ldebug_CIE16_start:
      000520 FF FF                10579 	.dw	0xffff
      000522 FF FF                10580 	.dw	0xffff
      000524 01                   10581 	.db	1
      000525 00                   10582 	.db	0
      000526 01                   10583 	.uleb128	1
      000527 7F                   10584 	.sleb128	-1
      000528 09                   10585 	.db	9
      000529 0C                   10586 	.db	12
      00052A 08                   10587 	.uleb128	8
      00052B 02                   10588 	.uleb128	2
      00052C 89                   10589 	.db	137
      00052D 01                   10590 	.uleb128	1
      00052E 00                   10591 	.db	0
      00052F 00                   10592 	.db	0
      000530                      10593 Ldebug_CIE16_end:
      000530 00 00 00 14          10594 	.dw	0,20
      000534 00 00r05r1C          10595 	.dw	0,(Ldebug_CIE16_start-4)
      000538 00 00r08r1C          10596 	.dw	0,(Sstm8s_tim2$TIM2_SetCompare2$750)	;initial loc
      00053C 00 00 00 09          10597 	.dw	0,Sstm8s_tim2$TIM2_SetCompare2$755-Sstm8s_tim2$TIM2_SetCompare2$750
      000540 01                   10598 	.db	1
      000541 00 00r08r1C          10599 	.dw	0,(Sstm8s_tim2$TIM2_SetCompare2$750)
      000545 0E                   10600 	.db	14
      000546 02                   10601 	.uleb128	2
      000547 00                   10602 	.db	0
                                  10603 
                                  10604 	.area .debug_frame (NOLOAD)
      000548 00 00                10605 	.dw	0
      00054A 00 10                10606 	.dw	Ldebug_CIE17_end-Ldebug_CIE17_start
      00054C                      10607 Ldebug_CIE17_start:
      00054C FF FF                10608 	.dw	0xffff
      00054E FF FF                10609 	.dw	0xffff
      000550 01                   10610 	.db	1
      000551 00                   10611 	.db	0
      000552 01                   10612 	.uleb128	1
      000553 7F                   10613 	.sleb128	-1
      000554 09                   10614 	.db	9
      000555 0C                   10615 	.db	12
      000556 08                   10616 	.uleb128	8
      000557 02                   10617 	.uleb128	2
      000558 89                   10618 	.db	137
      000559 01                   10619 	.uleb128	1
      00055A 00                   10620 	.db	0
      00055B 00                   10621 	.db	0
      00055C                      10622 Ldebug_CIE17_end:
      00055C 00 00 00 14          10623 	.dw	0,20
      000560 00 00r05r48          10624 	.dw	0,(Ldebug_CIE17_start-4)
      000564 00 00r08r13          10625 	.dw	0,(Sstm8s_tim2$TIM2_SetCompare1$743)	;initial loc
      000568 00 00 00 09          10626 	.dw	0,Sstm8s_tim2$TIM2_SetCompare1$748-Sstm8s_tim2$TIM2_SetCompare1$743
      00056C 01                   10627 	.db	1
      00056D 00 00r08r13          10628 	.dw	0,(Sstm8s_tim2$TIM2_SetCompare1$743)
      000571 0E                   10629 	.db	14
      000572 02                   10630 	.uleb128	2
      000573 00                   10631 	.db	0
                                  10632 
                                  10633 	.area .debug_frame (NOLOAD)
      000574 00 00                10634 	.dw	0
      000576 00 10                10635 	.dw	Ldebug_CIE18_end-Ldebug_CIE18_start
      000578                      10636 Ldebug_CIE18_start:
      000578 FF FF                10637 	.dw	0xffff
      00057A FF FF                10638 	.dw	0xffff
      00057C 01                   10639 	.db	1
      00057D 00                   10640 	.db	0
      00057E 01                   10641 	.uleb128	1
      00057F 7F                   10642 	.sleb128	-1
      000580 09                   10643 	.db	9
      000581 0C                   10644 	.db	12
      000582 08                   10645 	.uleb128	8
      000583 02                   10646 	.uleb128	2
      000584 89                   10647 	.db	137
      000585 01                   10648 	.uleb128	1
      000586 00                   10649 	.db	0
      000587 00                   10650 	.db	0
      000588                      10651 Ldebug_CIE18_end:
      000588 00 00 00 14          10652 	.dw	0,20
      00058C 00 00r05r74          10653 	.dw	0,(Ldebug_CIE18_start-4)
      000590 00 00r08r0A          10654 	.dw	0,(Sstm8s_tim2$TIM2_SetAutoreload$736)	;initial loc
      000594 00 00 00 09          10655 	.dw	0,Sstm8s_tim2$TIM2_SetAutoreload$741-Sstm8s_tim2$TIM2_SetAutoreload$736
      000598 01                   10656 	.db	1
      000599 00 00r08r0A          10657 	.dw	0,(Sstm8s_tim2$TIM2_SetAutoreload$736)
      00059D 0E                   10658 	.db	14
      00059E 02                   10659 	.uleb128	2
      00059F 00                   10660 	.db	0
                                  10661 
                                  10662 	.area .debug_frame (NOLOAD)
      0005A0 00 00                10663 	.dw	0
      0005A2 00 10                10664 	.dw	Ldebug_CIE19_end-Ldebug_CIE19_start
      0005A4                      10665 Ldebug_CIE19_start:
      0005A4 FF FF                10666 	.dw	0xffff
      0005A6 FF FF                10667 	.dw	0xffff
      0005A8 01                   10668 	.db	1
      0005A9 00                   10669 	.db	0
      0005AA 01                   10670 	.uleb128	1
      0005AB 7F                   10671 	.sleb128	-1
      0005AC 09                   10672 	.db	9
      0005AD 0C                   10673 	.db	12
      0005AE 08                   10674 	.uleb128	8
      0005AF 02                   10675 	.uleb128	2
      0005B0 89                   10676 	.db	137
      0005B1 01                   10677 	.uleb128	1
      0005B2 00                   10678 	.db	0
      0005B3 00                   10679 	.db	0
      0005B4                      10680 Ldebug_CIE19_end:
      0005B4 00 00 00 14          10681 	.dw	0,20
      0005B8 00 00r05rA0          10682 	.dw	0,(Ldebug_CIE19_start-4)
      0005BC 00 00r08r01          10683 	.dw	0,(Sstm8s_tim2$TIM2_SetCounter$729)	;initial loc
      0005C0 00 00 00 09          10684 	.dw	0,Sstm8s_tim2$TIM2_SetCounter$734-Sstm8s_tim2$TIM2_SetCounter$729
      0005C4 01                   10685 	.db	1
      0005C5 00 00r08r01          10686 	.dw	0,(Sstm8s_tim2$TIM2_SetCounter$729)
      0005C9 0E                   10687 	.db	14
      0005CA 02                   10688 	.uleb128	2
      0005CB 00                   10689 	.db	0
                                  10690 
                                  10691 	.area .debug_frame (NOLOAD)
      0005CC 00 00                10692 	.dw	0
      0005CE 00 10                10693 	.dw	Ldebug_CIE20_end-Ldebug_CIE20_start
      0005D0                      10694 Ldebug_CIE20_start:
      0005D0 FF FF                10695 	.dw	0xffff
      0005D2 FF FF                10696 	.dw	0xffff
      0005D4 01                   10697 	.db	1
      0005D5 00                   10698 	.db	0
      0005D6 01                   10699 	.uleb128	1
      0005D7 7F                   10700 	.sleb128	-1
      0005D8 09                   10701 	.db	9
      0005D9 0C                   10702 	.db	12
      0005DA 08                   10703 	.uleb128	8
      0005DB 02                   10704 	.uleb128	2
      0005DC 89                   10705 	.db	137
      0005DD 01                   10706 	.uleb128	1
      0005DE 00                   10707 	.db	0
      0005DF 00                   10708 	.db	0
      0005E0                      10709 Ldebug_CIE20_end:
      0005E0 00 00 00 AC          10710 	.dw	0,172
      0005E4 00 00r05rCC          10711 	.dw	0,(Ldebug_CIE20_start-4)
      0005E8 00 00r07r66          10712 	.dw	0,(Sstm8s_tim2$TIM2_SelectOCxM$685)	;initial loc
      0005EC 00 00 00 9B          10713 	.dw	0,Sstm8s_tim2$TIM2_SelectOCxM$727-Sstm8s_tim2$TIM2_SelectOCxM$685
      0005F0 01                   10714 	.db	1
      0005F1 00 00r07r66          10715 	.dw	0,(Sstm8s_tim2$TIM2_SelectOCxM$685)
      0005F5 0E                   10716 	.db	14
      0005F6 02                   10717 	.uleb128	2
      0005F7 01                   10718 	.db	1
      0005F8 00 00r07r67          10719 	.dw	0,(Sstm8s_tim2$TIM2_SelectOCxM$686)
      0005FC 0E                   10720 	.db	14
      0005FD 04                   10721 	.uleb128	4
      0005FE 01                   10722 	.db	1
      0005FF 00 00r07r73          10723 	.dw	0,(Sstm8s_tim2$TIM2_SelectOCxM$688)
      000603 0E                   10724 	.db	14
      000604 04                   10725 	.uleb128	4
      000605 01                   10726 	.db	1
      000606 00 00r07r81          10727 	.dw	0,(Sstm8s_tim2$TIM2_SelectOCxM$689)
      00060A 0E                   10728 	.db	14
      00060B 04                   10729 	.uleb128	4
      00060C 01                   10730 	.db	1
      00060D 00 00r07r83          10731 	.dw	0,(Sstm8s_tim2$TIM2_SelectOCxM$690)
      000611 0E                   10732 	.db	14
      000612 05                   10733 	.uleb128	5
      000613 01                   10734 	.db	1
      000614 00 00r07r85          10735 	.dw	0,(Sstm8s_tim2$TIM2_SelectOCxM$691)
      000618 0E                   10736 	.db	14
      000619 06                   10737 	.uleb128	6
      00061A 01                   10738 	.db	1
      00061B 00 00r07r87          10739 	.dw	0,(Sstm8s_tim2$TIM2_SelectOCxM$692)
      00061F 0E                   10740 	.db	14
      000620 08                   10741 	.uleb128	8
      000621 01                   10742 	.db	1
      000622 00 00r07r8D          10743 	.dw	0,(Sstm8s_tim2$TIM2_SelectOCxM$693)
      000626 0E                   10744 	.db	14
      000627 04                   10745 	.uleb128	4
      000628 01                   10746 	.db	1
      000629 00 00r07r97          10747 	.dw	0,(Sstm8s_tim2$TIM2_SelectOCxM$695)
      00062D 0E                   10748 	.db	14
      00062E 04                   10749 	.uleb128	4
      00062F 01                   10750 	.db	1
      000630 00 00r07r9D          10751 	.dw	0,(Sstm8s_tim2$TIM2_SelectOCxM$696)
      000634 0E                   10752 	.db	14
      000635 04                   10753 	.uleb128	4
      000636 01                   10754 	.db	1
      000637 00 00r07rA3          10755 	.dw	0,(Sstm8s_tim2$TIM2_SelectOCxM$697)
      00063B 0E                   10756 	.db	14
      00063C 04                   10757 	.uleb128	4
      00063D 01                   10758 	.db	1
      00063E 00 00r07rA9          10759 	.dw	0,(Sstm8s_tim2$TIM2_SelectOCxM$698)
      000642 0E                   10760 	.db	14
      000643 04                   10761 	.uleb128	4
      000644 01                   10762 	.db	1
      000645 00 00r07rAF          10763 	.dw	0,(Sstm8s_tim2$TIM2_SelectOCxM$699)
      000649 0E                   10764 	.db	14
      00064A 04                   10765 	.uleb128	4
      00064B 01                   10766 	.db	1
      00064C 00 00r07rB5          10767 	.dw	0,(Sstm8s_tim2$TIM2_SelectOCxM$700)
      000650 0E                   10768 	.db	14
      000651 04                   10769 	.uleb128	4
      000652 01                   10770 	.db	1
      000653 00 00r07rBB          10771 	.dw	0,(Sstm8s_tim2$TIM2_SelectOCxM$701)
      000657 0E                   10772 	.db	14
      000658 04                   10773 	.uleb128	4
      000659 01                   10774 	.db	1
      00065A 00 00r07rBD          10775 	.dw	0,(Sstm8s_tim2$TIM2_SelectOCxM$702)
      00065E 0E                   10776 	.db	14
      00065F 05                   10777 	.uleb128	5
      000660 01                   10778 	.db	1
      000661 00 00r07rBF          10779 	.dw	0,(Sstm8s_tim2$TIM2_SelectOCxM$703)
      000665 0E                   10780 	.db	14
      000666 06                   10781 	.uleb128	6
      000667 01                   10782 	.db	1
      000668 00 00r07rC1          10783 	.dw	0,(Sstm8s_tim2$TIM2_SelectOCxM$704)
      00066C 0E                   10784 	.db	14
      00066D 08                   10785 	.uleb128	8
      00066E 01                   10786 	.db	1
      00066F 00 00r07rC7          10787 	.dw	0,(Sstm8s_tim2$TIM2_SelectOCxM$705)
      000673 0E                   10788 	.db	14
      000674 04                   10789 	.uleb128	4
      000675 01                   10790 	.db	1
      000676 00 00r07rFE          10791 	.dw	0,(Sstm8s_tim2$TIM2_SelectOCxM$724)
      00067A 0E                   10792 	.db	14
      00067B 02                   10793 	.uleb128	2
      00067C 01                   10794 	.db	1
      00067D 00 00r07rFF          10795 	.dw	0,(Sstm8s_tim2$TIM2_SelectOCxM$725)
      000681 0E                   10796 	.db	14
      000682 00                   10797 	.uleb128	0
      000683 01                   10798 	.db	1
      000684 00 00r08r00          10799 	.dw	0,(Sstm8s_tim2$TIM2_SelectOCxM$726)
      000688 0E                   10800 	.db	14
      000689 FF FF FF FF 0F       10801 	.uleb128	-1
      00068E 00                   10802 	.db	0
      00068F 00                   10803 	.db	0
                                  10804 
                                  10805 	.area .debug_frame (NOLOAD)
      000690 00 00                10806 	.dw	0
      000692 00 10                10807 	.dw	Ldebug_CIE21_end-Ldebug_CIE21_start
      000694                      10808 Ldebug_CIE21_start:
      000694 FF FF                10809 	.dw	0xffff
      000696 FF FF                10810 	.dw	0xffff
      000698 01                   10811 	.db	1
      000699 00                   10812 	.db	0
      00069A 01                   10813 	.uleb128	1
      00069B 7F                   10814 	.sleb128	-1
      00069C 09                   10815 	.db	9
      00069D 0C                   10816 	.db	12
      00069E 08                   10817 	.uleb128	8
      00069F 02                   10818 	.uleb128	2
      0006A0 89                   10819 	.db	137
      0006A1 01                   10820 	.uleb128	1
      0006A2 00                   10821 	.db	0
      0006A3 00                   10822 	.db	0
      0006A4                      10823 Ldebug_CIE21_end:
      0006A4 00 00 00 A4          10824 	.dw	0,164
      0006A8 00 00r06r90          10825 	.dw	0,(Ldebug_CIE21_start-4)
      0006AC 00 00r06rE1          10826 	.dw	0,(Sstm8s_tim2$TIM2_CCxCmd$630)	;initial loc
      0006B0 00 00 00 85          10827 	.dw	0,Sstm8s_tim2$TIM2_CCxCmd$683-Sstm8s_tim2$TIM2_CCxCmd$630
      0006B4 01                   10828 	.db	1
      0006B5 00 00r06rE1          10829 	.dw	0,(Sstm8s_tim2$TIM2_CCxCmd$630)
      0006B9 0E                   10830 	.db	14
      0006BA 02                   10831 	.uleb128	2
      0006BB 01                   10832 	.db	1
      0006BC 00 00r06rE2          10833 	.dw	0,(Sstm8s_tim2$TIM2_CCxCmd$631)
      0006C0 0E                   10834 	.db	14
      0006C1 03                   10835 	.uleb128	3
      0006C2 01                   10836 	.db	1
      0006C3 00 00r06rE7          10837 	.dw	0,(Sstm8s_tim2$TIM2_CCxCmd$633)
      0006C7 0E                   10838 	.db	14
      0006C8 04                   10839 	.uleb128	4
      0006C9 01                   10840 	.db	1
      0006CA 00 00r06rEC          10841 	.dw	0,(Sstm8s_tim2$TIM2_CCxCmd$634)
      0006CE 0E                   10842 	.db	14
      0006CF 03                   10843 	.uleb128	3
      0006D0 01                   10844 	.db	1
      0006D1 00 00r06rEF          10845 	.dw	0,(Sstm8s_tim2$TIM2_CCxCmd$635)
      0006D5 0E                   10846 	.db	14
      0006D6 03                   10847 	.uleb128	3
      0006D7 01                   10848 	.db	1
      0006D8 00 00r06rFA          10849 	.dw	0,(Sstm8s_tim2$TIM2_CCxCmd$636)
      0006DC 0E                   10850 	.db	14
      0006DD 03                   10851 	.uleb128	3
      0006DE 01                   10852 	.db	1
      0006DF 00 00r06rFB          10853 	.dw	0,(Sstm8s_tim2$TIM2_CCxCmd$637)
      0006E3 0E                   10854 	.db	14
      0006E4 04                   10855 	.uleb128	4
      0006E5 01                   10856 	.db	1
      0006E6 00 00r06rFD          10857 	.dw	0,(Sstm8s_tim2$TIM2_CCxCmd$638)
      0006EA 0E                   10858 	.db	14
      0006EB 05                   10859 	.uleb128	5
      0006EC 01                   10860 	.db	1
      0006ED 00 00r06rFF          10861 	.dw	0,(Sstm8s_tim2$TIM2_CCxCmd$639)
      0006F1 0E                   10862 	.db	14
      0006F2 06                   10863 	.uleb128	6
      0006F3 01                   10864 	.db	1
      0006F4 00 00r07r01          10865 	.dw	0,(Sstm8s_tim2$TIM2_CCxCmd$640)
      0006F8 0E                   10866 	.db	14
      0006F9 08                   10867 	.uleb128	8
      0006FA 01                   10868 	.db	1
      0006FB 00 00r07r07          10869 	.dw	0,(Sstm8s_tim2$TIM2_CCxCmd$641)
      0006FF 0E                   10870 	.db	14
      000700 04                   10871 	.uleb128	4
      000701 01                   10872 	.db	1
      000702 00 00r07r08          10873 	.dw	0,(Sstm8s_tim2$TIM2_CCxCmd$642)
      000706 0E                   10874 	.db	14
      000707 03                   10875 	.uleb128	3
      000708 01                   10876 	.db	1
      000709 00 00r07r11          10877 	.dw	0,(Sstm8s_tim2$TIM2_CCxCmd$644)
      00070D 0E                   10878 	.db	14
      00070E 04                   10879 	.uleb128	4
      00070F 01                   10880 	.db	1
      000710 00 00r07r13          10881 	.dw	0,(Sstm8s_tim2$TIM2_CCxCmd$645)
      000714 0E                   10882 	.db	14
      000715 05                   10883 	.uleb128	5
      000716 01                   10884 	.db	1
      000717 00 00r07r15          10885 	.dw	0,(Sstm8s_tim2$TIM2_CCxCmd$646)
      00071B 0E                   10886 	.db	14
      00071C 06                   10887 	.uleb128	6
      00071D 01                   10888 	.db	1
      00071E 00 00r07r17          10889 	.dw	0,(Sstm8s_tim2$TIM2_CCxCmd$647)
      000722 0E                   10890 	.db	14
      000723 08                   10891 	.uleb128	8
      000724 01                   10892 	.db	1
      000725 00 00r07r1D          10893 	.dw	0,(Sstm8s_tim2$TIM2_CCxCmd$648)
      000729 0E                   10894 	.db	14
      00072A 04                   10895 	.uleb128	4
      00072B 01                   10896 	.db	1
      00072C 00 00r07r1E          10897 	.dw	0,(Sstm8s_tim2$TIM2_CCxCmd$649)
      000730 0E                   10898 	.db	14
      000731 03                   10899 	.uleb128	3
      000732 01                   10900 	.db	1
      000733 00 00r07r63          10901 	.dw	0,(Sstm8s_tim2$TIM2_CCxCmd$680)
      000737 0E                   10902 	.db	14
      000738 02                   10903 	.uleb128	2
      000739 01                   10904 	.db	1
      00073A 00 00r07r64          10905 	.dw	0,(Sstm8s_tim2$TIM2_CCxCmd$681)
      00073E 0E                   10906 	.db	14
      00073F 00                   10907 	.uleb128	0
      000740 01                   10908 	.db	1
      000741 00 00r07r65          10909 	.dw	0,(Sstm8s_tim2$TIM2_CCxCmd$682)
      000745 0E                   10910 	.db	14
      000746 FF FF FF FF 0F       10911 	.uleb128	-1
      00074B 00                   10912 	.db	0
                                  10913 
                                  10914 	.area .debug_frame (NOLOAD)
      00074C 00 00                10915 	.dw	0
      00074E 00 10                10916 	.dw	Ldebug_CIE22_end-Ldebug_CIE22_start
      000750                      10917 Ldebug_CIE22_start:
      000750 FF FF                10918 	.dw	0xffff
      000752 FF FF                10919 	.dw	0xffff
      000754 01                   10920 	.db	1
      000755 00                   10921 	.db	0
      000756 01                   10922 	.uleb128	1
      000757 7F                   10923 	.sleb128	-1
      000758 09                   10924 	.db	9
      000759 0C                   10925 	.db	12
      00075A 08                   10926 	.uleb128	8
      00075B 02                   10927 	.uleb128	2
      00075C 89                   10928 	.db	137
      00075D 01                   10929 	.uleb128	1
      00075E 00                   10930 	.db	0
      00075F 00                   10931 	.db	0
      000760                      10932 Ldebug_CIE22_end:
      000760 00 00 00 44          10933 	.dw	0,68
      000764 00 00r07r4C          10934 	.dw	0,(Ldebug_CIE22_start-4)
      000768 00 00r06rB5          10935 	.dw	0,(Sstm8s_tim2$TIM2_OC3PolarityConfig$609)	;initial loc
      00076C 00 00 00 2C          10936 	.dw	0,Sstm8s_tim2$TIM2_OC3PolarityConfig$628-Sstm8s_tim2$TIM2_OC3PolarityConfig$609
      000770 01                   10937 	.db	1
      000771 00 00r06rB5          10938 	.dw	0,(Sstm8s_tim2$TIM2_OC3PolarityConfig$609)
      000775 0E                   10939 	.db	14
      000776 02                   10940 	.uleb128	2
      000777 01                   10941 	.db	1
      000778 00 00r06rB6          10942 	.dw	0,(Sstm8s_tim2$TIM2_OC3PolarityConfig$610)
      00077C 0E                   10943 	.db	14
      00077D 03                   10944 	.uleb128	3
      00077E 01                   10945 	.db	1
      00077F 00 00r06rC0          10946 	.dw	0,(Sstm8s_tim2$TIM2_OC3PolarityConfig$612)
      000783 0E                   10947 	.db	14
      000784 03                   10948 	.uleb128	3
      000785 01                   10949 	.db	1
      000786 00 00r06rC2          10950 	.dw	0,(Sstm8s_tim2$TIM2_OC3PolarityConfig$613)
      00078A 0E                   10951 	.db	14
      00078B 04                   10952 	.uleb128	4
      00078C 01                   10953 	.db	1
      00078D 00 00r06rC4          10954 	.dw	0,(Sstm8s_tim2$TIM2_OC3PolarityConfig$614)
      000791 0E                   10955 	.db	14
      000792 05                   10956 	.uleb128	5
      000793 01                   10957 	.db	1
      000794 00 00r06rC6          10958 	.dw	0,(Sstm8s_tim2$TIM2_OC3PolarityConfig$615)
      000798 0E                   10959 	.db	14
      000799 07                   10960 	.uleb128	7
      00079A 01                   10961 	.db	1
      00079B 00 00r06rCC          10962 	.dw	0,(Sstm8s_tim2$TIM2_OC3PolarityConfig$616)
      00079F 0E                   10963 	.db	14
      0007A0 03                   10964 	.uleb128	3
      0007A1 01                   10965 	.db	1
      0007A2 00 00r06rE0          10966 	.dw	0,(Sstm8s_tim2$TIM2_OC3PolarityConfig$626)
      0007A6 0E                   10967 	.db	14
      0007A7 02                   10968 	.uleb128	2
                                  10969 
                                  10970 	.area .debug_frame (NOLOAD)
      0007A8 00 00                10971 	.dw	0
      0007AA 00 10                10972 	.dw	Ldebug_CIE23_end-Ldebug_CIE23_start
      0007AC                      10973 Ldebug_CIE23_start:
      0007AC FF FF                10974 	.dw	0xffff
      0007AE FF FF                10975 	.dw	0xffff
      0007B0 01                   10976 	.db	1
      0007B1 00                   10977 	.db	0
      0007B2 01                   10978 	.uleb128	1
      0007B3 7F                   10979 	.sleb128	-1
      0007B4 09                   10980 	.db	9
      0007B5 0C                   10981 	.db	12
      0007B6 08                   10982 	.uleb128	8
      0007B7 02                   10983 	.uleb128	2
      0007B8 89                   10984 	.db	137
      0007B9 01                   10985 	.uleb128	1
      0007BA 00                   10986 	.db	0
      0007BB 00                   10987 	.db	0
      0007BC                      10988 Ldebug_CIE23_end:
      0007BC 00 00 00 44          10989 	.dw	0,68
      0007C0 00 00r07rA8          10990 	.dw	0,(Ldebug_CIE23_start-4)
      0007C4 00 00r06r89          10991 	.dw	0,(Sstm8s_tim2$TIM2_OC2PolarityConfig$588)	;initial loc
      0007C8 00 00 00 2C          10992 	.dw	0,Sstm8s_tim2$TIM2_OC2PolarityConfig$607-Sstm8s_tim2$TIM2_OC2PolarityConfig$588
      0007CC 01                   10993 	.db	1
      0007CD 00 00r06r89          10994 	.dw	0,(Sstm8s_tim2$TIM2_OC2PolarityConfig$588)
      0007D1 0E                   10995 	.db	14
      0007D2 02                   10996 	.uleb128	2
      0007D3 01                   10997 	.db	1
      0007D4 00 00r06r8A          10998 	.dw	0,(Sstm8s_tim2$TIM2_OC2PolarityConfig$589)
      0007D8 0E                   10999 	.db	14
      0007D9 03                   11000 	.uleb128	3
      0007DA 01                   11001 	.db	1
      0007DB 00 00r06r94          11002 	.dw	0,(Sstm8s_tim2$TIM2_OC2PolarityConfig$591)
      0007DF 0E                   11003 	.db	14
      0007E0 03                   11004 	.uleb128	3
      0007E1 01                   11005 	.db	1
      0007E2 00 00r06r96          11006 	.dw	0,(Sstm8s_tim2$TIM2_OC2PolarityConfig$592)
      0007E6 0E                   11007 	.db	14
      0007E7 04                   11008 	.uleb128	4
      0007E8 01                   11009 	.db	1
      0007E9 00 00r06r98          11010 	.dw	0,(Sstm8s_tim2$TIM2_OC2PolarityConfig$593)
      0007ED 0E                   11011 	.db	14
      0007EE 05                   11012 	.uleb128	5
      0007EF 01                   11013 	.db	1
      0007F0 00 00r06r9A          11014 	.dw	0,(Sstm8s_tim2$TIM2_OC2PolarityConfig$594)
      0007F4 0E                   11015 	.db	14
      0007F5 07                   11016 	.uleb128	7
      0007F6 01                   11017 	.db	1
      0007F7 00 00r06rA0          11018 	.dw	0,(Sstm8s_tim2$TIM2_OC2PolarityConfig$595)
      0007FB 0E                   11019 	.db	14
      0007FC 03                   11020 	.uleb128	3
      0007FD 01                   11021 	.db	1
      0007FE 00 00r06rB4          11022 	.dw	0,(Sstm8s_tim2$TIM2_OC2PolarityConfig$605)
      000802 0E                   11023 	.db	14
      000803 02                   11024 	.uleb128	2
                                  11025 
                                  11026 	.area .debug_frame (NOLOAD)
      000804 00 00                11027 	.dw	0
      000806 00 10                11028 	.dw	Ldebug_CIE24_end-Ldebug_CIE24_start
      000808                      11029 Ldebug_CIE24_start:
      000808 FF FF                11030 	.dw	0xffff
      00080A FF FF                11031 	.dw	0xffff
      00080C 01                   11032 	.db	1
      00080D 00                   11033 	.db	0
      00080E 01                   11034 	.uleb128	1
      00080F 7F                   11035 	.sleb128	-1
      000810 09                   11036 	.db	9
      000811 0C                   11037 	.db	12
      000812 08                   11038 	.uleb128	8
      000813 02                   11039 	.uleb128	2
      000814 89                   11040 	.db	137
      000815 01                   11041 	.uleb128	1
      000816 00                   11042 	.db	0
      000817 00                   11043 	.db	0
      000818                      11044 Ldebug_CIE24_end:
      000818 00 00 00 44          11045 	.dw	0,68
      00081C 00 00r08r04          11046 	.dw	0,(Ldebug_CIE24_start-4)
      000820 00 00r06r5D          11047 	.dw	0,(Sstm8s_tim2$TIM2_OC1PolarityConfig$567)	;initial loc
      000824 00 00 00 2C          11048 	.dw	0,Sstm8s_tim2$TIM2_OC1PolarityConfig$586-Sstm8s_tim2$TIM2_OC1PolarityConfig$567
      000828 01                   11049 	.db	1
      000829 00 00r06r5D          11050 	.dw	0,(Sstm8s_tim2$TIM2_OC1PolarityConfig$567)
      00082D 0E                   11051 	.db	14
      00082E 02                   11052 	.uleb128	2
      00082F 01                   11053 	.db	1
      000830 00 00r06r5E          11054 	.dw	0,(Sstm8s_tim2$TIM2_OC1PolarityConfig$568)
      000834 0E                   11055 	.db	14
      000835 03                   11056 	.uleb128	3
      000836 01                   11057 	.db	1
      000837 00 00r06r68          11058 	.dw	0,(Sstm8s_tim2$TIM2_OC1PolarityConfig$570)
      00083B 0E                   11059 	.db	14
      00083C 03                   11060 	.uleb128	3
      00083D 01                   11061 	.db	1
      00083E 00 00r06r6A          11062 	.dw	0,(Sstm8s_tim2$TIM2_OC1PolarityConfig$571)
      000842 0E                   11063 	.db	14
      000843 04                   11064 	.uleb128	4
      000844 01                   11065 	.db	1
      000845 00 00r06r6C          11066 	.dw	0,(Sstm8s_tim2$TIM2_OC1PolarityConfig$572)
      000849 0E                   11067 	.db	14
      00084A 05                   11068 	.uleb128	5
      00084B 01                   11069 	.db	1
      00084C 00 00r06r6E          11070 	.dw	0,(Sstm8s_tim2$TIM2_OC1PolarityConfig$573)
      000850 0E                   11071 	.db	14
      000851 07                   11072 	.uleb128	7
      000852 01                   11073 	.db	1
      000853 00 00r06r74          11074 	.dw	0,(Sstm8s_tim2$TIM2_OC1PolarityConfig$574)
      000857 0E                   11075 	.db	14
      000858 03                   11076 	.uleb128	3
      000859 01                   11077 	.db	1
      00085A 00 00r06r88          11078 	.dw	0,(Sstm8s_tim2$TIM2_OC1PolarityConfig$584)
      00085E 0E                   11079 	.db	14
      00085F 02                   11080 	.uleb128	2
                                  11081 
                                  11082 	.area .debug_frame (NOLOAD)
      000860 00 00                11083 	.dw	0
      000862 00 10                11084 	.dw	Ldebug_CIE25_end-Ldebug_CIE25_start
      000864                      11085 Ldebug_CIE25_start:
      000864 FF FF                11086 	.dw	0xffff
      000866 FF FF                11087 	.dw	0xffff
      000868 01                   11088 	.db	1
      000869 00                   11089 	.db	0
      00086A 01                   11090 	.uleb128	1
      00086B 7F                   11091 	.sleb128	-1
      00086C 09                   11092 	.db	9
      00086D 0C                   11093 	.db	12
      00086E 08                   11094 	.uleb128	8
      00086F 02                   11095 	.uleb128	2
      000870 89                   11096 	.db	137
      000871 01                   11097 	.uleb128	1
      000872 00                   11098 	.db	0
      000873 00                   11099 	.db	0
      000874                      11100 Ldebug_CIE25_end:
      000874 00 00 00 40          11101 	.dw	0,64
      000878 00 00r08r60          11102 	.dw	0,(Ldebug_CIE25_start-4)
      00087C 00 00r06r48          11103 	.dw	0,(Sstm8s_tim2$TIM2_GenerateEvent$554)	;initial loc
      000880 00 00 00 15          11104 	.dw	0,Sstm8s_tim2$TIM2_GenerateEvent$565-Sstm8s_tim2$TIM2_GenerateEvent$554
      000884 01                   11105 	.db	1
      000885 00 00r06r48          11106 	.dw	0,(Sstm8s_tim2$TIM2_GenerateEvent$554)
      000889 0E                   11107 	.db	14
      00088A 02                   11108 	.uleb128	2
      00088B 01                   11109 	.db	1
      00088C 00 00r06r4C          11110 	.dw	0,(Sstm8s_tim2$TIM2_GenerateEvent$556)
      000890 0E                   11111 	.db	14
      000891 03                   11112 	.uleb128	3
      000892 01                   11113 	.db	1
      000893 00 00r06r4E          11114 	.dw	0,(Sstm8s_tim2$TIM2_GenerateEvent$557)
      000897 0E                   11115 	.db	14
      000898 04                   11116 	.uleb128	4
      000899 01                   11117 	.db	1
      00089A 00 00r06r50          11118 	.dw	0,(Sstm8s_tim2$TIM2_GenerateEvent$558)
      00089E 0E                   11119 	.db	14
      00089F 05                   11120 	.uleb128	5
      0008A0 01                   11121 	.db	1
      0008A1 00 00r06r52          11122 	.dw	0,(Sstm8s_tim2$TIM2_GenerateEvent$559)
      0008A5 0E                   11123 	.db	14
      0008A6 07                   11124 	.uleb128	7
      0008A7 01                   11125 	.db	1
      0008A8 00 00r06r58          11126 	.dw	0,(Sstm8s_tim2$TIM2_GenerateEvent$560)
      0008AC 0E                   11127 	.db	14
      0008AD 03                   11128 	.uleb128	3
      0008AE 01                   11129 	.db	1
      0008AF 00 00r06r59          11130 	.dw	0,(Sstm8s_tim2$TIM2_GenerateEvent$561)
      0008B3 0E                   11131 	.db	14
      0008B4 02                   11132 	.uleb128	2
      0008B5 00                   11133 	.db	0
      0008B6 00                   11134 	.db	0
      0008B7 00                   11135 	.db	0
                                  11136 
                                  11137 	.area .debug_frame (NOLOAD)
      0008B8 00 00                11138 	.dw	0
      0008BA 00 10                11139 	.dw	Ldebug_CIE26_end-Ldebug_CIE26_start
      0008BC                      11140 Ldebug_CIE26_start:
      0008BC FF FF                11141 	.dw	0xffff
      0008BE FF FF                11142 	.dw	0xffff
      0008C0 01                   11143 	.db	1
      0008C1 00                   11144 	.db	0
      0008C2 01                   11145 	.uleb128	1
      0008C3 7F                   11146 	.sleb128	-1
      0008C4 09                   11147 	.db	9
      0008C5 0C                   11148 	.db	12
      0008C6 08                   11149 	.uleb128	8
      0008C7 02                   11150 	.uleb128	2
      0008C8 89                   11151 	.db	137
      0008C9 01                   11152 	.uleb128	1
      0008CA 00                   11153 	.db	0
      0008CB 00                   11154 	.db	0
      0008CC                      11155 Ldebug_CIE26_end:
      0008CC 00 00 00 40          11156 	.dw	0,64
      0008D0 00 00r08rB8          11157 	.dw	0,(Ldebug_CIE26_start-4)
      0008D4 00 00r06r1E          11158 	.dw	0,(Sstm8s_tim2$TIM2_OC3PreloadConfig$534)	;initial loc
      0008D8 00 00 00 2A          11159 	.dw	0,Sstm8s_tim2$TIM2_OC3PreloadConfig$552-Sstm8s_tim2$TIM2_OC3PreloadConfig$534
      0008DC 01                   11160 	.db	1
      0008DD 00 00r06r1E          11161 	.dw	0,(Sstm8s_tim2$TIM2_OC3PreloadConfig$534)
      0008E1 0E                   11162 	.db	14
      0008E2 02                   11163 	.uleb128	2
      0008E3 01                   11164 	.db	1
      0008E4 00 00r06r1F          11165 	.dw	0,(Sstm8s_tim2$TIM2_OC3PreloadConfig$535)
      0008E8 0E                   11166 	.db	14
      0008E9 03                   11167 	.uleb128	3
      0008EA 01                   11168 	.db	1
      0008EB 00 00r06r29          11169 	.dw	0,(Sstm8s_tim2$TIM2_OC3PreloadConfig$537)
      0008EF 0E                   11170 	.db	14
      0008F0 04                   11171 	.uleb128	4
      0008F1 01                   11172 	.db	1
      0008F2 00 00r06r2B          11173 	.dw	0,(Sstm8s_tim2$TIM2_OC3PreloadConfig$538)
      0008F6 0E                   11174 	.db	14
      0008F7 05                   11175 	.uleb128	5
      0008F8 01                   11176 	.db	1
      0008F9 00 00r06r2D          11177 	.dw	0,(Sstm8s_tim2$TIM2_OC3PreloadConfig$539)
      0008FD 0E                   11178 	.db	14
      0008FE 07                   11179 	.uleb128	7
      0008FF 01                   11180 	.db	1
      000900 00 00r06r33          11181 	.dw	0,(Sstm8s_tim2$TIM2_OC3PreloadConfig$540)
      000904 0E                   11182 	.db	14
      000905 03                   11183 	.uleb128	3
      000906 01                   11184 	.db	1
      000907 00 00r06r47          11185 	.dw	0,(Sstm8s_tim2$TIM2_OC3PreloadConfig$550)
      00090B 0E                   11186 	.db	14
      00090C 02                   11187 	.uleb128	2
      00090D 00                   11188 	.db	0
      00090E 00                   11189 	.db	0
      00090F 00                   11190 	.db	0
                                  11191 
                                  11192 	.area .debug_frame (NOLOAD)
      000910 00 00                11193 	.dw	0
      000912 00 10                11194 	.dw	Ldebug_CIE27_end-Ldebug_CIE27_start
      000914                      11195 Ldebug_CIE27_start:
      000914 FF FF                11196 	.dw	0xffff
      000916 FF FF                11197 	.dw	0xffff
      000918 01                   11198 	.db	1
      000919 00                   11199 	.db	0
      00091A 01                   11200 	.uleb128	1
      00091B 7F                   11201 	.sleb128	-1
      00091C 09                   11202 	.db	9
      00091D 0C                   11203 	.db	12
      00091E 08                   11204 	.uleb128	8
      00091F 02                   11205 	.uleb128	2
      000920 89                   11206 	.db	137
      000921 01                   11207 	.uleb128	1
      000922 00                   11208 	.db	0
      000923 00                   11209 	.db	0
      000924                      11210 Ldebug_CIE27_end:
      000924 00 00 00 40          11211 	.dw	0,64
      000928 00 00r09r10          11212 	.dw	0,(Ldebug_CIE27_start-4)
      00092C 00 00r05rF4          11213 	.dw	0,(Sstm8s_tim2$TIM2_OC2PreloadConfig$514)	;initial loc
      000930 00 00 00 2A          11214 	.dw	0,Sstm8s_tim2$TIM2_OC2PreloadConfig$532-Sstm8s_tim2$TIM2_OC2PreloadConfig$514
      000934 01                   11215 	.db	1
      000935 00 00r05rF4          11216 	.dw	0,(Sstm8s_tim2$TIM2_OC2PreloadConfig$514)
      000939 0E                   11217 	.db	14
      00093A 02                   11218 	.uleb128	2
      00093B 01                   11219 	.db	1
      00093C 00 00r05rF5          11220 	.dw	0,(Sstm8s_tim2$TIM2_OC2PreloadConfig$515)
      000940 0E                   11221 	.db	14
      000941 03                   11222 	.uleb128	3
      000942 01                   11223 	.db	1
      000943 00 00r05rFF          11224 	.dw	0,(Sstm8s_tim2$TIM2_OC2PreloadConfig$517)
      000947 0E                   11225 	.db	14
      000948 04                   11226 	.uleb128	4
      000949 01                   11227 	.db	1
      00094A 00 00r06r01          11228 	.dw	0,(Sstm8s_tim2$TIM2_OC2PreloadConfig$518)
      00094E 0E                   11229 	.db	14
      00094F 05                   11230 	.uleb128	5
      000950 01                   11231 	.db	1
      000951 00 00r06r03          11232 	.dw	0,(Sstm8s_tim2$TIM2_OC2PreloadConfig$519)
      000955 0E                   11233 	.db	14
      000956 07                   11234 	.uleb128	7
      000957 01                   11235 	.db	1
      000958 00 00r06r09          11236 	.dw	0,(Sstm8s_tim2$TIM2_OC2PreloadConfig$520)
      00095C 0E                   11237 	.db	14
      00095D 03                   11238 	.uleb128	3
      00095E 01                   11239 	.db	1
      00095F 00 00r06r1D          11240 	.dw	0,(Sstm8s_tim2$TIM2_OC2PreloadConfig$530)
      000963 0E                   11241 	.db	14
      000964 02                   11242 	.uleb128	2
      000965 00                   11243 	.db	0
      000966 00                   11244 	.db	0
      000967 00                   11245 	.db	0
                                  11246 
                                  11247 	.area .debug_frame (NOLOAD)
      000968 00 00                11248 	.dw	0
      00096A 00 10                11249 	.dw	Ldebug_CIE28_end-Ldebug_CIE28_start
      00096C                      11250 Ldebug_CIE28_start:
      00096C FF FF                11251 	.dw	0xffff
      00096E FF FF                11252 	.dw	0xffff
      000970 01                   11253 	.db	1
      000971 00                   11254 	.db	0
      000972 01                   11255 	.uleb128	1
      000973 7F                   11256 	.sleb128	-1
      000974 09                   11257 	.db	9
      000975 0C                   11258 	.db	12
      000976 08                   11259 	.uleb128	8
      000977 02                   11260 	.uleb128	2
      000978 89                   11261 	.db	137
      000979 01                   11262 	.uleb128	1
      00097A 00                   11263 	.db	0
      00097B 00                   11264 	.db	0
      00097C                      11265 Ldebug_CIE28_end:
      00097C 00 00 00 40          11266 	.dw	0,64
      000980 00 00r09r68          11267 	.dw	0,(Ldebug_CIE28_start-4)
      000984 00 00r05rCA          11268 	.dw	0,(Sstm8s_tim2$TIM2_OC1PreloadConfig$494)	;initial loc
      000988 00 00 00 2A          11269 	.dw	0,Sstm8s_tim2$TIM2_OC1PreloadConfig$512-Sstm8s_tim2$TIM2_OC1PreloadConfig$494
      00098C 01                   11270 	.db	1
      00098D 00 00r05rCA          11271 	.dw	0,(Sstm8s_tim2$TIM2_OC1PreloadConfig$494)
      000991 0E                   11272 	.db	14
      000992 02                   11273 	.uleb128	2
      000993 01                   11274 	.db	1
      000994 00 00r05rCB          11275 	.dw	0,(Sstm8s_tim2$TIM2_OC1PreloadConfig$495)
      000998 0E                   11276 	.db	14
      000999 03                   11277 	.uleb128	3
      00099A 01                   11278 	.db	1
      00099B 00 00r05rD5          11279 	.dw	0,(Sstm8s_tim2$TIM2_OC1PreloadConfig$497)
      00099F 0E                   11280 	.db	14
      0009A0 04                   11281 	.uleb128	4
      0009A1 01                   11282 	.db	1
      0009A2 00 00r05rD7          11283 	.dw	0,(Sstm8s_tim2$TIM2_OC1PreloadConfig$498)
      0009A6 0E                   11284 	.db	14
      0009A7 05                   11285 	.uleb128	5
      0009A8 01                   11286 	.db	1
      0009A9 00 00r05rD9          11287 	.dw	0,(Sstm8s_tim2$TIM2_OC1PreloadConfig$499)
      0009AD 0E                   11288 	.db	14
      0009AE 07                   11289 	.uleb128	7
      0009AF 01                   11290 	.db	1
      0009B0 00 00r05rDF          11291 	.dw	0,(Sstm8s_tim2$TIM2_OC1PreloadConfig$500)
      0009B4 0E                   11292 	.db	14
      0009B5 03                   11293 	.uleb128	3
      0009B6 01                   11294 	.db	1
      0009B7 00 00r05rF3          11295 	.dw	0,(Sstm8s_tim2$TIM2_OC1PreloadConfig$510)
      0009BB 0E                   11296 	.db	14
      0009BC 02                   11297 	.uleb128	2
      0009BD 00                   11298 	.db	0
      0009BE 00                   11299 	.db	0
      0009BF 00                   11300 	.db	0
                                  11301 
                                  11302 	.area .debug_frame (NOLOAD)
      0009C0 00 00                11303 	.dw	0
      0009C2 00 10                11304 	.dw	Ldebug_CIE29_end-Ldebug_CIE29_start
      0009C4                      11305 Ldebug_CIE29_start:
      0009C4 FF FF                11306 	.dw	0xffff
      0009C6 FF FF                11307 	.dw	0xffff
      0009C8 01                   11308 	.db	1
      0009C9 00                   11309 	.db	0
      0009CA 01                   11310 	.uleb128	1
      0009CB 7F                   11311 	.sleb128	-1
      0009CC 09                   11312 	.db	9
      0009CD 0C                   11313 	.db	12
      0009CE 08                   11314 	.uleb128	8
      0009CF 02                   11315 	.uleb128	2
      0009D0 89                   11316 	.db	137
      0009D1 01                   11317 	.uleb128	1
      0009D2 00                   11318 	.db	0
      0009D3 00                   11319 	.db	0
      0009D4                      11320 Ldebug_CIE29_end:
      0009D4 00 00 00 40          11321 	.dw	0,64
      0009D8 00 00r09rC0          11322 	.dw	0,(Ldebug_CIE29_start-4)
      0009DC 00 00r05rA0          11323 	.dw	0,(Sstm8s_tim2$TIM2_ARRPreloadConfig$474)	;initial loc
      0009E0 00 00 00 2A          11324 	.dw	0,Sstm8s_tim2$TIM2_ARRPreloadConfig$492-Sstm8s_tim2$TIM2_ARRPreloadConfig$474
      0009E4 01                   11325 	.db	1
      0009E5 00 00r05rA0          11326 	.dw	0,(Sstm8s_tim2$TIM2_ARRPreloadConfig$474)
      0009E9 0E                   11327 	.db	14
      0009EA 02                   11328 	.uleb128	2
      0009EB 01                   11329 	.db	1
      0009EC 00 00r05rA1          11330 	.dw	0,(Sstm8s_tim2$TIM2_ARRPreloadConfig$475)
      0009F0 0E                   11331 	.db	14
      0009F1 03                   11332 	.uleb128	3
      0009F2 01                   11333 	.db	1
      0009F3 00 00r05rAB          11334 	.dw	0,(Sstm8s_tim2$TIM2_ARRPreloadConfig$477)
      0009F7 0E                   11335 	.db	14
      0009F8 04                   11336 	.uleb128	4
      0009F9 01                   11337 	.db	1
      0009FA 00 00r05rAD          11338 	.dw	0,(Sstm8s_tim2$TIM2_ARRPreloadConfig$478)
      0009FE 0E                   11339 	.db	14
      0009FF 05                   11340 	.uleb128	5
      000A00 01                   11341 	.db	1
      000A01 00 00r05rAF          11342 	.dw	0,(Sstm8s_tim2$TIM2_ARRPreloadConfig$479)
      000A05 0E                   11343 	.db	14
      000A06 07                   11344 	.uleb128	7
      000A07 01                   11345 	.db	1
      000A08 00 00r05rB5          11346 	.dw	0,(Sstm8s_tim2$TIM2_ARRPreloadConfig$480)
      000A0C 0E                   11347 	.db	14
      000A0D 03                   11348 	.uleb128	3
      000A0E 01                   11349 	.db	1
      000A0F 00 00r05rC9          11350 	.dw	0,(Sstm8s_tim2$TIM2_ARRPreloadConfig$490)
      000A13 0E                   11351 	.db	14
      000A14 02                   11352 	.uleb128	2
      000A15 00                   11353 	.db	0
      000A16 00                   11354 	.db	0
      000A17 00                   11355 	.db	0
                                  11356 
                                  11357 	.area .debug_frame (NOLOAD)
      000A18 00 00                11358 	.dw	0
      000A1A 00 10                11359 	.dw	Ldebug_CIE30_end-Ldebug_CIE30_start
      000A1C                      11360 Ldebug_CIE30_start:
      000A1C FF FF                11361 	.dw	0xffff
      000A1E FF FF                11362 	.dw	0xffff
      000A20 01                   11363 	.db	1
      000A21 00                   11364 	.db	0
      000A22 01                   11365 	.uleb128	1
      000A23 7F                   11366 	.sleb128	-1
      000A24 09                   11367 	.db	9
      000A25 0C                   11368 	.db	12
      000A26 08                   11369 	.uleb128	8
      000A27 02                   11370 	.uleb128	2
      000A28 89                   11371 	.db	137
      000A29 01                   11372 	.uleb128	1
      000A2A 00                   11373 	.db	0
      000A2B 00                   11374 	.db	0
      000A2C                      11375 Ldebug_CIE30_end:
      000A2C 00 00 00 4C          11376 	.dw	0,76
      000A30 00 00r0Ar18          11377 	.dw	0,(Ldebug_CIE30_start-4)
      000A34 00 00r05r7B          11378 	.dw	0,(Sstm8s_tim2$TIM2_ForcedOC3Config$458)	;initial loc
      000A38 00 00 00 25          11379 	.dw	0,Sstm8s_tim2$TIM2_ForcedOC3Config$472-Sstm8s_tim2$TIM2_ForcedOC3Config$458
      000A3C 01                   11380 	.db	1
      000A3D 00 00r05r7B          11381 	.dw	0,(Sstm8s_tim2$TIM2_ForcedOC3Config$458)
      000A41 0E                   11382 	.db	14
      000A42 02                   11383 	.uleb128	2
      000A43 01                   11384 	.db	1
      000A44 00 00r05r7C          11385 	.dw	0,(Sstm8s_tim2$TIM2_ForcedOC3Config$459)
      000A48 0E                   11386 	.db	14
      000A49 03                   11387 	.uleb128	3
      000A4A 01                   11388 	.db	1
      000A4B 00 00r05r82          11389 	.dw	0,(Sstm8s_tim2$TIM2_ForcedOC3Config$461)
      000A4F 0E                   11390 	.db	14
      000A50 03                   11391 	.uleb128	3
      000A51 01                   11392 	.db	1
      000A52 00 00r05r88          11393 	.dw	0,(Sstm8s_tim2$TIM2_ForcedOC3Config$462)
      000A56 0E                   11394 	.db	14
      000A57 03                   11395 	.uleb128	3
      000A58 01                   11396 	.db	1
      000A59 00 00r05r8A          11397 	.dw	0,(Sstm8s_tim2$TIM2_ForcedOC3Config$463)
      000A5D 0E                   11398 	.db	14
      000A5E 04                   11399 	.uleb128	4
      000A5F 01                   11400 	.db	1
      000A60 00 00r05r8C          11401 	.dw	0,(Sstm8s_tim2$TIM2_ForcedOC3Config$464)
      000A64 0E                   11402 	.db	14
      000A65 05                   11403 	.uleb128	5
      000A66 01                   11404 	.db	1
      000A67 00 00r05r8E          11405 	.dw	0,(Sstm8s_tim2$TIM2_ForcedOC3Config$465)
      000A6B 0E                   11406 	.db	14
      000A6C 07                   11407 	.uleb128	7
      000A6D 01                   11408 	.db	1
      000A6E 00 00r05r94          11409 	.dw	0,(Sstm8s_tim2$TIM2_ForcedOC3Config$466)
      000A72 0E                   11410 	.db	14
      000A73 03                   11411 	.uleb128	3
      000A74 01                   11412 	.db	1
      000A75 00 00r05r9F          11413 	.dw	0,(Sstm8s_tim2$TIM2_ForcedOC3Config$470)
      000A79 0E                   11414 	.db	14
      000A7A 02                   11415 	.uleb128	2
      000A7B 00                   11416 	.db	0
                                  11417 
                                  11418 	.area .debug_frame (NOLOAD)
      000A7C 00 00                11419 	.dw	0
      000A7E 00 10                11420 	.dw	Ldebug_CIE31_end-Ldebug_CIE31_start
      000A80                      11421 Ldebug_CIE31_start:
      000A80 FF FF                11422 	.dw	0xffff
      000A82 FF FF                11423 	.dw	0xffff
      000A84 01                   11424 	.db	1
      000A85 00                   11425 	.db	0
      000A86 01                   11426 	.uleb128	1
      000A87 7F                   11427 	.sleb128	-1
      000A88 09                   11428 	.db	9
      000A89 0C                   11429 	.db	12
      000A8A 08                   11430 	.uleb128	8
      000A8B 02                   11431 	.uleb128	2
      000A8C 89                   11432 	.db	137
      000A8D 01                   11433 	.uleb128	1
      000A8E 00                   11434 	.db	0
      000A8F 00                   11435 	.db	0
      000A90                      11436 Ldebug_CIE31_end:
      000A90 00 00 00 4C          11437 	.dw	0,76
      000A94 00 00r0Ar7C          11438 	.dw	0,(Ldebug_CIE31_start-4)
      000A98 00 00r05r56          11439 	.dw	0,(Sstm8s_tim2$TIM2_ForcedOC2Config$442)	;initial loc
      000A9C 00 00 00 25          11440 	.dw	0,Sstm8s_tim2$TIM2_ForcedOC2Config$456-Sstm8s_tim2$TIM2_ForcedOC2Config$442
      000AA0 01                   11441 	.db	1
      000AA1 00 00r05r56          11442 	.dw	0,(Sstm8s_tim2$TIM2_ForcedOC2Config$442)
      000AA5 0E                   11443 	.db	14
      000AA6 02                   11444 	.uleb128	2
      000AA7 01                   11445 	.db	1
      000AA8 00 00r05r57          11446 	.dw	0,(Sstm8s_tim2$TIM2_ForcedOC2Config$443)
      000AAC 0E                   11447 	.db	14
      000AAD 03                   11448 	.uleb128	3
      000AAE 01                   11449 	.db	1
      000AAF 00 00r05r5D          11450 	.dw	0,(Sstm8s_tim2$TIM2_ForcedOC2Config$445)
      000AB3 0E                   11451 	.db	14
      000AB4 03                   11452 	.uleb128	3
      000AB5 01                   11453 	.db	1
      000AB6 00 00r05r63          11454 	.dw	0,(Sstm8s_tim2$TIM2_ForcedOC2Config$446)
      000ABA 0E                   11455 	.db	14
      000ABB 03                   11456 	.uleb128	3
      000ABC 01                   11457 	.db	1
      000ABD 00 00r05r65          11458 	.dw	0,(Sstm8s_tim2$TIM2_ForcedOC2Config$447)
      000AC1 0E                   11459 	.db	14
      000AC2 04                   11460 	.uleb128	4
      000AC3 01                   11461 	.db	1
      000AC4 00 00r05r67          11462 	.dw	0,(Sstm8s_tim2$TIM2_ForcedOC2Config$448)
      000AC8 0E                   11463 	.db	14
      000AC9 05                   11464 	.uleb128	5
      000ACA 01                   11465 	.db	1
      000ACB 00 00r05r69          11466 	.dw	0,(Sstm8s_tim2$TIM2_ForcedOC2Config$449)
      000ACF 0E                   11467 	.db	14
      000AD0 07                   11468 	.uleb128	7
      000AD1 01                   11469 	.db	1
      000AD2 00 00r05r6F          11470 	.dw	0,(Sstm8s_tim2$TIM2_ForcedOC2Config$450)
      000AD6 0E                   11471 	.db	14
      000AD7 03                   11472 	.uleb128	3
      000AD8 01                   11473 	.db	1
      000AD9 00 00r05r7A          11474 	.dw	0,(Sstm8s_tim2$TIM2_ForcedOC2Config$454)
      000ADD 0E                   11475 	.db	14
      000ADE 02                   11476 	.uleb128	2
      000ADF 00                   11477 	.db	0
                                  11478 
                                  11479 	.area .debug_frame (NOLOAD)
      000AE0 00 00                11480 	.dw	0
      000AE2 00 10                11481 	.dw	Ldebug_CIE32_end-Ldebug_CIE32_start
      000AE4                      11482 Ldebug_CIE32_start:
      000AE4 FF FF                11483 	.dw	0xffff
      000AE6 FF FF                11484 	.dw	0xffff
      000AE8 01                   11485 	.db	1
      000AE9 00                   11486 	.db	0
      000AEA 01                   11487 	.uleb128	1
      000AEB 7F                   11488 	.sleb128	-1
      000AEC 09                   11489 	.db	9
      000AED 0C                   11490 	.db	12
      000AEE 08                   11491 	.uleb128	8
      000AEF 02                   11492 	.uleb128	2
      000AF0 89                   11493 	.db	137
      000AF1 01                   11494 	.uleb128	1
      000AF2 00                   11495 	.db	0
      000AF3 00                   11496 	.db	0
      000AF4                      11497 Ldebug_CIE32_end:
      000AF4 00 00 00 4C          11498 	.dw	0,76
      000AF8 00 00r0ArE0          11499 	.dw	0,(Ldebug_CIE32_start-4)
      000AFC 00 00r05r31          11500 	.dw	0,(Sstm8s_tim2$TIM2_ForcedOC1Config$426)	;initial loc
      000B00 00 00 00 25          11501 	.dw	0,Sstm8s_tim2$TIM2_ForcedOC1Config$440-Sstm8s_tim2$TIM2_ForcedOC1Config$426
      000B04 01                   11502 	.db	1
      000B05 00 00r05r31          11503 	.dw	0,(Sstm8s_tim2$TIM2_ForcedOC1Config$426)
      000B09 0E                   11504 	.db	14
      000B0A 02                   11505 	.uleb128	2
      000B0B 01                   11506 	.db	1
      000B0C 00 00r05r32          11507 	.dw	0,(Sstm8s_tim2$TIM2_ForcedOC1Config$427)
      000B10 0E                   11508 	.db	14
      000B11 03                   11509 	.uleb128	3
      000B12 01                   11510 	.db	1
      000B13 00 00r05r38          11511 	.dw	0,(Sstm8s_tim2$TIM2_ForcedOC1Config$429)
      000B17 0E                   11512 	.db	14
      000B18 03                   11513 	.uleb128	3
      000B19 01                   11514 	.db	1
      000B1A 00 00r05r3E          11515 	.dw	0,(Sstm8s_tim2$TIM2_ForcedOC1Config$430)
      000B1E 0E                   11516 	.db	14
      000B1F 03                   11517 	.uleb128	3
      000B20 01                   11518 	.db	1
      000B21 00 00r05r40          11519 	.dw	0,(Sstm8s_tim2$TIM2_ForcedOC1Config$431)
      000B25 0E                   11520 	.db	14
      000B26 04                   11521 	.uleb128	4
      000B27 01                   11522 	.db	1
      000B28 00 00r05r42          11523 	.dw	0,(Sstm8s_tim2$TIM2_ForcedOC1Config$432)
      000B2C 0E                   11524 	.db	14
      000B2D 05                   11525 	.uleb128	5
      000B2E 01                   11526 	.db	1
      000B2F 00 00r05r44          11527 	.dw	0,(Sstm8s_tim2$TIM2_ForcedOC1Config$433)
      000B33 0E                   11528 	.db	14
      000B34 07                   11529 	.uleb128	7
      000B35 01                   11530 	.db	1
      000B36 00 00r05r4A          11531 	.dw	0,(Sstm8s_tim2$TIM2_ForcedOC1Config$434)
      000B3A 0E                   11532 	.db	14
      000B3B 03                   11533 	.uleb128	3
      000B3C 01                   11534 	.db	1
      000B3D 00 00r05r55          11535 	.dw	0,(Sstm8s_tim2$TIM2_ForcedOC1Config$438)
      000B41 0E                   11536 	.db	14
      000B42 02                   11537 	.uleb128	2
      000B43 00                   11538 	.db	0
                                  11539 
                                  11540 	.area .debug_frame (NOLOAD)
      000B44 00 00                11541 	.dw	0
      000B46 00 10                11542 	.dw	Ldebug_CIE33_end-Ldebug_CIE33_start
      000B48                      11543 Ldebug_CIE33_start:
      000B48 FF FF                11544 	.dw	0xffff
      000B4A FF FF                11545 	.dw	0xffff
      000B4C 01                   11546 	.db	1
      000B4D 00                   11547 	.db	0
      000B4E 01                   11548 	.uleb128	1
      000B4F 7F                   11549 	.sleb128	-1
      000B50 09                   11550 	.db	9
      000B51 0C                   11551 	.db	12
      000B52 08                   11552 	.uleb128	8
      000B53 02                   11553 	.uleb128	2
      000B54 89                   11554 	.db	137
      000B55 01                   11555 	.uleb128	1
      000B56 00                   11556 	.db	0
      000B57 00                   11557 	.db	0
      000B58                      11558 Ldebug_CIE33_end:
      000B58 00 00 00 E4          11559 	.dw	0,228
      000B5C 00 00r0Br44          11560 	.dw	0,(Ldebug_CIE33_start-4)
      000B60 00 00r04rC3          11561 	.dw	0,(Sstm8s_tim2$TIM2_PrescalerConfig$389)	;initial loc
      000B64 00 00 00 6E          11562 	.dw	0,Sstm8s_tim2$TIM2_PrescalerConfig$424-Sstm8s_tim2$TIM2_PrescalerConfig$389
      000B68 01                   11563 	.db	1
      000B69 00 00r04rC3          11564 	.dw	0,(Sstm8s_tim2$TIM2_PrescalerConfig$389)
      000B6D 0E                   11565 	.db	14
      000B6E 02                   11566 	.uleb128	2
      000B6F 01                   11567 	.db	1
      000B70 00 00r04rCC          11568 	.dw	0,(Sstm8s_tim2$TIM2_PrescalerConfig$391)
      000B74 0E                   11569 	.db	14
      000B75 03                   11570 	.uleb128	3
      000B76 01                   11571 	.db	1
      000B77 00 00r04rCE          11572 	.dw	0,(Sstm8s_tim2$TIM2_PrescalerConfig$392)
      000B7B 0E                   11573 	.db	14
      000B7C 04                   11574 	.uleb128	4
      000B7D 01                   11575 	.db	1
      000B7E 00 00r04rD0          11576 	.dw	0,(Sstm8s_tim2$TIM2_PrescalerConfig$393)
      000B82 0E                   11577 	.db	14
      000B83 05                   11578 	.uleb128	5
      000B84 01                   11579 	.db	1
      000B85 00 00r04rD2          11580 	.dw	0,(Sstm8s_tim2$TIM2_PrescalerConfig$394)
      000B89 0E                   11581 	.db	14
      000B8A 07                   11582 	.uleb128	7
      000B8B 01                   11583 	.db	1
      000B8C 00 00r04rD8          11584 	.dw	0,(Sstm8s_tim2$TIM2_PrescalerConfig$395)
      000B90 0E                   11585 	.db	14
      000B91 03                   11586 	.uleb128	3
      000B92 01                   11587 	.db	1
      000B93 00 00r04rD9          11588 	.dw	0,(Sstm8s_tim2$TIM2_PrescalerConfig$396)
      000B97 0E                   11589 	.db	14
      000B98 02                   11590 	.uleb128	2
      000B99 01                   11591 	.db	1
      000B9A 00 00r04rE0          11592 	.dw	0,(Sstm8s_tim2$TIM2_PrescalerConfig$398)
      000B9E 0E                   11593 	.db	14
      000B9F 02                   11594 	.uleb128	2
      000BA0 01                   11595 	.db	1
      000BA1 00 00r04rE4          11596 	.dw	0,(Sstm8s_tim2$TIM2_PrescalerConfig$399)
      000BA5 0E                   11597 	.db	14
      000BA6 02                   11598 	.uleb128	2
      000BA7 01                   11599 	.db	1
      000BA8 00 00r04rE8          11600 	.dw	0,(Sstm8s_tim2$TIM2_PrescalerConfig$400)
      000BAC 0E                   11601 	.db	14
      000BAD 02                   11602 	.uleb128	2
      000BAE 01                   11603 	.db	1
      000BAF 00 00r04rEC          11604 	.dw	0,(Sstm8s_tim2$TIM2_PrescalerConfig$401)
      000BB3 0E                   11605 	.db	14
      000BB4 02                   11606 	.uleb128	2
      000BB5 01                   11607 	.db	1
      000BB6 00 00r04rF0          11608 	.dw	0,(Sstm8s_tim2$TIM2_PrescalerConfig$402)
      000BBA 0E                   11609 	.db	14
      000BBB 02                   11610 	.uleb128	2
      000BBC 01                   11611 	.db	1
      000BBD 00 00r04rF4          11612 	.dw	0,(Sstm8s_tim2$TIM2_PrescalerConfig$403)
      000BC1 0E                   11613 	.db	14
      000BC2 02                   11614 	.uleb128	2
      000BC3 01                   11615 	.db	1
      000BC4 00 00r04rF8          11616 	.dw	0,(Sstm8s_tim2$TIM2_PrescalerConfig$404)
      000BC8 0E                   11617 	.db	14
      000BC9 02                   11618 	.uleb128	2
      000BCA 01                   11619 	.db	1
      000BCB 00 00r04rFC          11620 	.dw	0,(Sstm8s_tim2$TIM2_PrescalerConfig$405)
      000BCF 0E                   11621 	.db	14
      000BD0 02                   11622 	.uleb128	2
      000BD1 01                   11623 	.db	1
      000BD2 00 00r05r00          11624 	.dw	0,(Sstm8s_tim2$TIM2_PrescalerConfig$406)
      000BD6 0E                   11625 	.db	14
      000BD7 02                   11626 	.uleb128	2
      000BD8 01                   11627 	.db	1
      000BD9 00 00r05r04          11628 	.dw	0,(Sstm8s_tim2$TIM2_PrescalerConfig$407)
      000BDD 0E                   11629 	.db	14
      000BDE 02                   11630 	.uleb128	2
      000BDF 01                   11631 	.db	1
      000BE0 00 00r05r08          11632 	.dw	0,(Sstm8s_tim2$TIM2_PrescalerConfig$408)
      000BE4 0E                   11633 	.db	14
      000BE5 02                   11634 	.uleb128	2
      000BE6 01                   11635 	.db	1
      000BE7 00 00r05r0C          11636 	.dw	0,(Sstm8s_tim2$TIM2_PrescalerConfig$409)
      000BEB 0E                   11637 	.db	14
      000BEC 02                   11638 	.uleb128	2
      000BED 01                   11639 	.db	1
      000BEE 00 00r05r10          11640 	.dw	0,(Sstm8s_tim2$TIM2_PrescalerConfig$410)
      000BF2 0E                   11641 	.db	14
      000BF3 02                   11642 	.uleb128	2
      000BF4 01                   11643 	.db	1
      000BF5 00 00r05r14          11644 	.dw	0,(Sstm8s_tim2$TIM2_PrescalerConfig$411)
      000BF9 0E                   11645 	.db	14
      000BFA 02                   11646 	.uleb128	2
      000BFB 01                   11647 	.db	1
      000BFC 00 00r05r18          11648 	.dw	0,(Sstm8s_tim2$TIM2_PrescalerConfig$412)
      000C00 0E                   11649 	.db	14
      000C01 02                   11650 	.uleb128	2
      000C02 01                   11651 	.db	1
      000C03 00 00r05r19          11652 	.dw	0,(Sstm8s_tim2$TIM2_PrescalerConfig$413)
      000C07 0E                   11653 	.db	14
      000C08 03                   11654 	.uleb128	3
      000C09 01                   11655 	.db	1
      000C0A 00 00r05r1B          11656 	.dw	0,(Sstm8s_tim2$TIM2_PrescalerConfig$414)
      000C0E 0E                   11657 	.db	14
      000C0F 04                   11658 	.uleb128	4
      000C10 01                   11659 	.db	1
      000C11 00 00r05r1D          11660 	.dw	0,(Sstm8s_tim2$TIM2_PrescalerConfig$415)
      000C15 0E                   11661 	.db	14
      000C16 05                   11662 	.uleb128	5
      000C17 01                   11663 	.db	1
      000C18 00 00r05r1F          11664 	.dw	0,(Sstm8s_tim2$TIM2_PrescalerConfig$416)
      000C1C 0E                   11665 	.db	14
      000C1D 07                   11666 	.uleb128	7
      000C1E 01                   11667 	.db	1
      000C1F 00 00r05r25          11668 	.dw	0,(Sstm8s_tim2$TIM2_PrescalerConfig$417)
      000C23 0E                   11669 	.db	14
      000C24 03                   11670 	.uleb128	3
      000C25 01                   11671 	.db	1
      000C26 00 00r05r26          11672 	.dw	0,(Sstm8s_tim2$TIM2_PrescalerConfig$418)
      000C2A 0E                   11673 	.db	14
      000C2B 02                   11674 	.uleb128	2
      000C2C 01                   11675 	.db	1
      000C2D 00 00r05r2F          11676 	.dw	0,(Sstm8s_tim2$TIM2_PrescalerConfig$422)
      000C31 0E                   11677 	.db	14
      000C32 00                   11678 	.uleb128	0
      000C33 01                   11679 	.db	1
      000C34 00 00r05r30          11680 	.dw	0,(Sstm8s_tim2$TIM2_PrescalerConfig$423)
      000C38 0E                   11681 	.db	14
      000C39 FF FF FF FF 0F       11682 	.uleb128	-1
      000C3E 00                   11683 	.db	0
      000C3F 00                   11684 	.db	0
                                  11685 
                                  11686 	.area .debug_frame (NOLOAD)
      000C40 00 00                11687 	.dw	0
      000C42 00 10                11688 	.dw	Ldebug_CIE34_end-Ldebug_CIE34_start
      000C44                      11689 Ldebug_CIE34_start:
      000C44 FF FF                11690 	.dw	0xffff
      000C46 FF FF                11691 	.dw	0xffff
      000C48 01                   11692 	.db	1
      000C49 00                   11693 	.db	0
      000C4A 01                   11694 	.uleb128	1
      000C4B 7F                   11695 	.sleb128	-1
      000C4C 09                   11696 	.db	9
      000C4D 0C                   11697 	.db	12
      000C4E 08                   11698 	.uleb128	8
      000C4F 02                   11699 	.uleb128	2
      000C50 89                   11700 	.db	137
      000C51 01                   11701 	.uleb128	1
      000C52 00                   11702 	.db	0
      000C53 00                   11703 	.db	0
      000C54                      11704 Ldebug_CIE34_end:
      000C54 00 00 00 40          11705 	.dw	0,64
      000C58 00 00r0Cr40          11706 	.dw	0,(Ldebug_CIE34_start-4)
      000C5C 00 00r04r99          11707 	.dw	0,(Sstm8s_tim2$TIM2_SelectOnePulseMode$369)	;initial loc
      000C60 00 00 00 2A          11708 	.dw	0,Sstm8s_tim2$TIM2_SelectOnePulseMode$387-Sstm8s_tim2$TIM2_SelectOnePulseMode$369
      000C64 01                   11709 	.db	1
      000C65 00 00r04r99          11710 	.dw	0,(Sstm8s_tim2$TIM2_SelectOnePulseMode$369)
      000C69 0E                   11711 	.db	14
      000C6A 02                   11712 	.uleb128	2
      000C6B 01                   11713 	.db	1
      000C6C 00 00r04r9A          11714 	.dw	0,(Sstm8s_tim2$TIM2_SelectOnePulseMode$370)
      000C70 0E                   11715 	.db	14
      000C71 03                   11716 	.uleb128	3
      000C72 01                   11717 	.db	1
      000C73 00 00r04rA4          11718 	.dw	0,(Sstm8s_tim2$TIM2_SelectOnePulseMode$372)
      000C77 0E                   11719 	.db	14
      000C78 04                   11720 	.uleb128	4
      000C79 01                   11721 	.db	1
      000C7A 00 00r04rA6          11722 	.dw	0,(Sstm8s_tim2$TIM2_SelectOnePulseMode$373)
      000C7E 0E                   11723 	.db	14
      000C7F 05                   11724 	.uleb128	5
      000C80 01                   11725 	.db	1
      000C81 00 00r04rA8          11726 	.dw	0,(Sstm8s_tim2$TIM2_SelectOnePulseMode$374)
      000C85 0E                   11727 	.db	14
      000C86 07                   11728 	.uleb128	7
      000C87 01                   11729 	.db	1
      000C88 00 00r04rAE          11730 	.dw	0,(Sstm8s_tim2$TIM2_SelectOnePulseMode$375)
      000C8C 0E                   11731 	.db	14
      000C8D 03                   11732 	.uleb128	3
      000C8E 01                   11733 	.db	1
      000C8F 00 00r04rC2          11734 	.dw	0,(Sstm8s_tim2$TIM2_SelectOnePulseMode$385)
      000C93 0E                   11735 	.db	14
      000C94 02                   11736 	.uleb128	2
      000C95 00                   11737 	.db	0
      000C96 00                   11738 	.db	0
      000C97 00                   11739 	.db	0
                                  11740 
                                  11741 	.area .debug_frame (NOLOAD)
      000C98 00 00                11742 	.dw	0
      000C9A 00 10                11743 	.dw	Ldebug_CIE35_end-Ldebug_CIE35_start
      000C9C                      11744 Ldebug_CIE35_start:
      000C9C FF FF                11745 	.dw	0xffff
      000C9E FF FF                11746 	.dw	0xffff
      000CA0 01                   11747 	.db	1
      000CA1 00                   11748 	.db	0
      000CA2 01                   11749 	.uleb128	1
      000CA3 7F                   11750 	.sleb128	-1
      000CA4 09                   11751 	.db	9
      000CA5 0C                   11752 	.db	12
      000CA6 08                   11753 	.uleb128	8
      000CA7 02                   11754 	.uleb128	2
      000CA8 89                   11755 	.db	137
      000CA9 01                   11756 	.uleb128	1
      000CAA 00                   11757 	.db	0
      000CAB 00                   11758 	.db	0
      000CAC                      11759 Ldebug_CIE35_end:
      000CAC 00 00 00 40          11760 	.dw	0,64
      000CB0 00 00r0Cr98          11761 	.dw	0,(Ldebug_CIE35_start-4)
      000CB4 00 00r04r6F          11762 	.dw	0,(Sstm8s_tim2$TIM2_UpdateRequestConfig$349)	;initial loc
      000CB8 00 00 00 2A          11763 	.dw	0,Sstm8s_tim2$TIM2_UpdateRequestConfig$367-Sstm8s_tim2$TIM2_UpdateRequestConfig$349
      000CBC 01                   11764 	.db	1
      000CBD 00 00r04r6F          11765 	.dw	0,(Sstm8s_tim2$TIM2_UpdateRequestConfig$349)
      000CC1 0E                   11766 	.db	14
      000CC2 02                   11767 	.uleb128	2
      000CC3 01                   11768 	.db	1
      000CC4 00 00r04r70          11769 	.dw	0,(Sstm8s_tim2$TIM2_UpdateRequestConfig$350)
      000CC8 0E                   11770 	.db	14
      000CC9 03                   11771 	.uleb128	3
      000CCA 01                   11772 	.db	1
      000CCB 00 00r04r7A          11773 	.dw	0,(Sstm8s_tim2$TIM2_UpdateRequestConfig$352)
      000CCF 0E                   11774 	.db	14
      000CD0 04                   11775 	.uleb128	4
      000CD1 01                   11776 	.db	1
      000CD2 00 00r04r7C          11777 	.dw	0,(Sstm8s_tim2$TIM2_UpdateRequestConfig$353)
      000CD6 0E                   11778 	.db	14
      000CD7 05                   11779 	.uleb128	5
      000CD8 01                   11780 	.db	1
      000CD9 00 00r04r7E          11781 	.dw	0,(Sstm8s_tim2$TIM2_UpdateRequestConfig$354)
      000CDD 0E                   11782 	.db	14
      000CDE 07                   11783 	.uleb128	7
      000CDF 01                   11784 	.db	1
      000CE0 00 00r04r84          11785 	.dw	0,(Sstm8s_tim2$TIM2_UpdateRequestConfig$355)
      000CE4 0E                   11786 	.db	14
      000CE5 03                   11787 	.uleb128	3
      000CE6 01                   11788 	.db	1
      000CE7 00 00r04r98          11789 	.dw	0,(Sstm8s_tim2$TIM2_UpdateRequestConfig$365)
      000CEB 0E                   11790 	.db	14
      000CEC 02                   11791 	.uleb128	2
      000CED 00                   11792 	.db	0
      000CEE 00                   11793 	.db	0
      000CEF 00                   11794 	.db	0
                                  11795 
                                  11796 	.area .debug_frame (NOLOAD)
      000CF0 00 00                11797 	.dw	0
      000CF2 00 10                11798 	.dw	Ldebug_CIE36_end-Ldebug_CIE36_start
      000CF4                      11799 Ldebug_CIE36_start:
      000CF4 FF FF                11800 	.dw	0xffff
      000CF6 FF FF                11801 	.dw	0xffff
      000CF8 01                   11802 	.db	1
      000CF9 00                   11803 	.db	0
      000CFA 01                   11804 	.uleb128	1
      000CFB 7F                   11805 	.sleb128	-1
      000CFC 09                   11806 	.db	9
      000CFD 0C                   11807 	.db	12
      000CFE 08                   11808 	.uleb128	8
      000CFF 02                   11809 	.uleb128	2
      000D00 89                   11810 	.db	137
      000D01 01                   11811 	.uleb128	1
      000D02 00                   11812 	.db	0
      000D03 00                   11813 	.db	0
      000D04                      11814 Ldebug_CIE36_end:
      000D04 00 00 00 40          11815 	.dw	0,64
      000D08 00 00r0CrF0          11816 	.dw	0,(Ldebug_CIE36_start-4)
      000D0C 00 00r04r45          11817 	.dw	0,(Sstm8s_tim2$TIM2_UpdateDisableConfig$329)	;initial loc
      000D10 00 00 00 2A          11818 	.dw	0,Sstm8s_tim2$TIM2_UpdateDisableConfig$347-Sstm8s_tim2$TIM2_UpdateDisableConfig$329
      000D14 01                   11819 	.db	1
      000D15 00 00r04r45          11820 	.dw	0,(Sstm8s_tim2$TIM2_UpdateDisableConfig$329)
      000D19 0E                   11821 	.db	14
      000D1A 02                   11822 	.uleb128	2
      000D1B 01                   11823 	.db	1
      000D1C 00 00r04r46          11824 	.dw	0,(Sstm8s_tim2$TIM2_UpdateDisableConfig$330)
      000D20 0E                   11825 	.db	14
      000D21 03                   11826 	.uleb128	3
      000D22 01                   11827 	.db	1
      000D23 00 00r04r50          11828 	.dw	0,(Sstm8s_tim2$TIM2_UpdateDisableConfig$332)
      000D27 0E                   11829 	.db	14
      000D28 04                   11830 	.uleb128	4
      000D29 01                   11831 	.db	1
      000D2A 00 00r04r52          11832 	.dw	0,(Sstm8s_tim2$TIM2_UpdateDisableConfig$333)
      000D2E 0E                   11833 	.db	14
      000D2F 05                   11834 	.uleb128	5
      000D30 01                   11835 	.db	1
      000D31 00 00r04r54          11836 	.dw	0,(Sstm8s_tim2$TIM2_UpdateDisableConfig$334)
      000D35 0E                   11837 	.db	14
      000D36 07                   11838 	.uleb128	7
      000D37 01                   11839 	.db	1
      000D38 00 00r04r5A          11840 	.dw	0,(Sstm8s_tim2$TIM2_UpdateDisableConfig$335)
      000D3C 0E                   11841 	.db	14
      000D3D 03                   11842 	.uleb128	3
      000D3E 01                   11843 	.db	1
      000D3F 00 00r04r6E          11844 	.dw	0,(Sstm8s_tim2$TIM2_UpdateDisableConfig$345)
      000D43 0E                   11845 	.db	14
      000D44 02                   11846 	.uleb128	2
      000D45 00                   11847 	.db	0
      000D46 00                   11848 	.db	0
      000D47 00                   11849 	.db	0
                                  11850 
                                  11851 	.area .debug_frame (NOLOAD)
      000D48 00 00                11852 	.dw	0
      000D4A 00 10                11853 	.dw	Ldebug_CIE37_end-Ldebug_CIE37_start
      000D4C                      11854 Ldebug_CIE37_start:
      000D4C FF FF                11855 	.dw	0xffff
      000D4E FF FF                11856 	.dw	0xffff
      000D50 01                   11857 	.db	1
      000D51 00                   11858 	.db	0
      000D52 01                   11859 	.uleb128	1
      000D53 7F                   11860 	.sleb128	-1
      000D54 09                   11861 	.db	9
      000D55 0C                   11862 	.db	12
      000D56 08                   11863 	.uleb128	8
      000D57 02                   11864 	.uleb128	2
      000D58 89                   11865 	.db	137
      000D59 01                   11866 	.uleb128	1
      000D5A 00                   11867 	.db	0
      000D5B 00                   11868 	.db	0
      000D5C                      11869 Ldebug_CIE37_end:
      000D5C 00 00 00 98          11870 	.dw	0,152
      000D60 00 00r0Dr48          11871 	.dw	0,(Ldebug_CIE37_start-4)
      000D64 00 00r03rFC          11872 	.dw	0,(Sstm8s_tim2$TIM2_ITConfig$297)	;initial loc
      000D68 00 00 00 49          11873 	.dw	0,Sstm8s_tim2$TIM2_ITConfig$327-Sstm8s_tim2$TIM2_ITConfig$297
      000D6C 01                   11874 	.db	1
      000D6D 00 00r03rFC          11875 	.dw	0,(Sstm8s_tim2$TIM2_ITConfig$297)
      000D71 0E                   11876 	.db	14
      000D72 02                   11877 	.uleb128	2
      000D73 01                   11878 	.db	1
      000D74 00 00r03rFD          11879 	.dw	0,(Sstm8s_tim2$TIM2_ITConfig$298)
      000D78 0E                   11880 	.db	14
      000D79 03                   11881 	.uleb128	3
      000D7A 01                   11882 	.db	1
      000D7B 00 00r04r05          11883 	.dw	0,(Sstm8s_tim2$TIM2_ITConfig$300)
      000D7F 0E                   11884 	.db	14
      000D80 04                   11885 	.uleb128	4
      000D81 01                   11886 	.db	1
      000D82 00 00r04r07          11887 	.dw	0,(Sstm8s_tim2$TIM2_ITConfig$301)
      000D86 0E                   11888 	.db	14
      000D87 05                   11889 	.uleb128	5
      000D88 01                   11890 	.db	1
      000D89 00 00r04r09          11891 	.dw	0,(Sstm8s_tim2$TIM2_ITConfig$302)
      000D8D 0E                   11892 	.db	14
      000D8E 06                   11893 	.uleb128	6
      000D8F 01                   11894 	.db	1
      000D90 00 00r04r0B          11895 	.dw	0,(Sstm8s_tim2$TIM2_ITConfig$303)
      000D94 0E                   11896 	.db	14
      000D95 08                   11897 	.uleb128	8
      000D96 01                   11898 	.db	1
      000D97 00 00r04r11          11899 	.dw	0,(Sstm8s_tim2$TIM2_ITConfig$304)
      000D9B 0E                   11900 	.db	14
      000D9C 04                   11901 	.uleb128	4
      000D9D 01                   11902 	.db	1
      000D9E 00 00r04r12          11903 	.dw	0,(Sstm8s_tim2$TIM2_ITConfig$305)
      000DA2 0E                   11904 	.db	14
      000DA3 03                   11905 	.uleb128	3
      000DA4 01                   11906 	.db	1
      000DA5 00 00r04r1B          11907 	.dw	0,(Sstm8s_tim2$TIM2_ITConfig$307)
      000DA9 0E                   11908 	.db	14
      000DAA 04                   11909 	.uleb128	4
      000DAB 01                   11910 	.db	1
      000DAC 00 00r04r1D          11911 	.dw	0,(Sstm8s_tim2$TIM2_ITConfig$308)
      000DB0 0E                   11912 	.db	14
      000DB1 05                   11913 	.uleb128	5
      000DB2 01                   11914 	.db	1
      000DB3 00 00r04r1F          11915 	.dw	0,(Sstm8s_tim2$TIM2_ITConfig$309)
      000DB7 0E                   11916 	.db	14
      000DB8 06                   11917 	.uleb128	6
      000DB9 01                   11918 	.db	1
      000DBA 00 00r04r21          11919 	.dw	0,(Sstm8s_tim2$TIM2_ITConfig$310)
      000DBE 0E                   11920 	.db	14
      000DBF 08                   11921 	.uleb128	8
      000DC0 01                   11922 	.db	1
      000DC1 00 00r04r27          11923 	.dw	0,(Sstm8s_tim2$TIM2_ITConfig$311)
      000DC5 0E                   11924 	.db	14
      000DC6 04                   11925 	.uleb128	4
      000DC7 01                   11926 	.db	1
      000DC8 00 00r04r28          11927 	.dw	0,(Sstm8s_tim2$TIM2_ITConfig$312)
      000DCC 0E                   11928 	.db	14
      000DCD 03                   11929 	.uleb128	3
      000DCE 01                   11930 	.db	1
      000DCF 00 00r04r2C          11931 	.dw	0,(Sstm8s_tim2$TIM2_ITConfig$314)
      000DD3 0E                   11932 	.db	14
      000DD4 04                   11933 	.uleb128	4
      000DD5 01                   11934 	.db	1
      000DD6 00 00r04r30          11935 	.dw	0,(Sstm8s_tim2$TIM2_ITConfig$315)
      000DDA 0E                   11936 	.db	14
      000DDB 03                   11937 	.uleb128	3
      000DDC 01                   11938 	.db	1
      000DDD 00 00r04r42          11939 	.dw	0,(Sstm8s_tim2$TIM2_ITConfig$324)
      000DE1 0E                   11940 	.db	14
      000DE2 02                   11941 	.uleb128	2
      000DE3 01                   11942 	.db	1
      000DE4 00 00r04r43          11943 	.dw	0,(Sstm8s_tim2$TIM2_ITConfig$325)
      000DE8 0E                   11944 	.db	14
      000DE9 00                   11945 	.uleb128	0
      000DEA 01                   11946 	.db	1
      000DEB 00 00r04r44          11947 	.dw	0,(Sstm8s_tim2$TIM2_ITConfig$326)
      000DEF 0E                   11948 	.db	14
      000DF0 FF FF FF FF 0F       11949 	.uleb128	-1
      000DF5 00                   11950 	.db	0
      000DF6 00                   11951 	.db	0
      000DF7 00                   11952 	.db	0
                                  11953 
                                  11954 	.area .debug_frame (NOLOAD)
      000DF8 00 00                11955 	.dw	0
      000DFA 00 10                11956 	.dw	Ldebug_CIE38_end-Ldebug_CIE38_start
      000DFC                      11957 Ldebug_CIE38_start:
      000DFC FF FF                11958 	.dw	0xffff
      000DFE FF FF                11959 	.dw	0xffff
      000E00 01                   11960 	.db	1
      000E01 00                   11961 	.db	0
      000E02 01                   11962 	.uleb128	1
      000E03 7F                   11963 	.sleb128	-1
      000E04 09                   11964 	.db	9
      000E05 0C                   11965 	.db	12
      000E06 08                   11966 	.uleb128	8
      000E07 02                   11967 	.uleb128	2
      000E08 89                   11968 	.db	137
      000E09 01                   11969 	.uleb128	1
      000E0A 00                   11970 	.db	0
      000E0B 00                   11971 	.db	0
      000E0C                      11972 Ldebug_CIE38_end:
      000E0C 00 00 00 40          11973 	.dw	0,64
      000E10 00 00r0DrF8          11974 	.dw	0,(Ldebug_CIE38_start-4)
      000E14 00 00r03rD2          11975 	.dw	0,(Sstm8s_tim2$TIM2_Cmd$277)	;initial loc
      000E18 00 00 00 2A          11976 	.dw	0,Sstm8s_tim2$TIM2_Cmd$295-Sstm8s_tim2$TIM2_Cmd$277
      000E1C 01                   11977 	.db	1
      000E1D 00 00r03rD2          11978 	.dw	0,(Sstm8s_tim2$TIM2_Cmd$277)
      000E21 0E                   11979 	.db	14
      000E22 02                   11980 	.uleb128	2
      000E23 01                   11981 	.db	1
      000E24 00 00r03rD3          11982 	.dw	0,(Sstm8s_tim2$TIM2_Cmd$278)
      000E28 0E                   11983 	.db	14
      000E29 03                   11984 	.uleb128	3
      000E2A 01                   11985 	.db	1
      000E2B 00 00r03rDD          11986 	.dw	0,(Sstm8s_tim2$TIM2_Cmd$280)
      000E2F 0E                   11987 	.db	14
      000E30 04                   11988 	.uleb128	4
      000E31 01                   11989 	.db	1
      000E32 00 00r03rDF          11990 	.dw	0,(Sstm8s_tim2$TIM2_Cmd$281)
      000E36 0E                   11991 	.db	14
      000E37 05                   11992 	.uleb128	5
      000E38 01                   11993 	.db	1
      000E39 00 00r03rE1          11994 	.dw	0,(Sstm8s_tim2$TIM2_Cmd$282)
      000E3D 0E                   11995 	.db	14
      000E3E 07                   11996 	.uleb128	7
      000E3F 01                   11997 	.db	1
      000E40 00 00r03rE7          11998 	.dw	0,(Sstm8s_tim2$TIM2_Cmd$283)
      000E44 0E                   11999 	.db	14
      000E45 03                   12000 	.uleb128	3
      000E46 01                   12001 	.db	1
      000E47 00 00r03rFB          12002 	.dw	0,(Sstm8s_tim2$TIM2_Cmd$293)
      000E4B 0E                   12003 	.db	14
      000E4C 02                   12004 	.uleb128	2
      000E4D 00                   12005 	.db	0
      000E4E 00                   12006 	.db	0
      000E4F 00                   12007 	.db	0
                                  12008 
                                  12009 	.area .debug_frame (NOLOAD)
      000E50 00 00                12010 	.dw	0
      000E52 00 10                12011 	.dw	Ldebug_CIE39_end-Ldebug_CIE39_start
      000E54                      12012 Ldebug_CIE39_start:
      000E54 FF FF                12013 	.dw	0xffff
      000E56 FF FF                12014 	.dw	0xffff
      000E58 01                   12015 	.db	1
      000E59 00                   12016 	.db	0
      000E5A 01                   12017 	.uleb128	1
      000E5B 7F                   12018 	.sleb128	-1
      000E5C 09                   12019 	.db	9
      000E5D 0C                   12020 	.db	12
      000E5E 08                   12021 	.uleb128	8
      000E5F 02                   12022 	.uleb128	2
      000E60 89                   12023 	.db	137
      000E61 01                   12024 	.uleb128	1
      000E62 00                   12025 	.db	0
      000E63 00                   12026 	.db	0
      000E64                      12027 Ldebug_CIE39_end:
      000E64 00 00 01 24          12028 	.dw	0,292
      000E68 00 00r0Er50          12029 	.dw	0,(Ldebug_CIE39_start-4)
      000E6C 00 00r02rED          12030 	.dw	0,(Sstm8s_tim2$TIM2_PWMIConfig$204)	;initial loc
      000E70 00 00 00 E5          12031 	.dw	0,Sstm8s_tim2$TIM2_PWMIConfig$275-Sstm8s_tim2$TIM2_PWMIConfig$204
      000E74 01                   12032 	.db	1
      000E75 00 00r02rED          12033 	.dw	0,(Sstm8s_tim2$TIM2_PWMIConfig$204)
      000E79 0E                   12034 	.db	14
      000E7A 02                   12035 	.uleb128	2
      000E7B 01                   12036 	.db	1
      000E7C 00 00r02rEF          12037 	.dw	0,(Sstm8s_tim2$TIM2_PWMIConfig$205)
      000E80 0E                   12038 	.db	14
      000E81 05                   12039 	.uleb128	5
      000E82 01                   12040 	.db	1
      000E83 00 00r02rF8          12041 	.dw	0,(Sstm8s_tim2$TIM2_PWMIConfig$207)
      000E87 0E                   12042 	.db	14
      000E88 05                   12043 	.uleb128	5
      000E89 01                   12044 	.db	1
      000E8A 00 00r02rFA          12045 	.dw	0,(Sstm8s_tim2$TIM2_PWMIConfig$208)
      000E8E 0E                   12046 	.db	14
      000E8F 06                   12047 	.uleb128	6
      000E90 01                   12048 	.db	1
      000E91 00 00r02rFC          12049 	.dw	0,(Sstm8s_tim2$TIM2_PWMIConfig$209)
      000E95 0E                   12050 	.db	14
      000E96 07                   12051 	.uleb128	7
      000E97 01                   12052 	.db	1
      000E98 00 00r02rFE          12053 	.dw	0,(Sstm8s_tim2$TIM2_PWMIConfig$210)
      000E9C 0E                   12054 	.db	14
      000E9D 09                   12055 	.uleb128	9
      000E9E 01                   12056 	.db	1
      000E9F 00 00r03r04          12057 	.dw	0,(Sstm8s_tim2$TIM2_PWMIConfig$211)
      000EA3 0E                   12058 	.db	14
      000EA4 05                   12059 	.uleb128	5
      000EA5 01                   12060 	.db	1
      000EA6 00 00r03r10          12061 	.dw	0,(Sstm8s_tim2$TIM2_PWMIConfig$213)
      000EAA 0E                   12062 	.db	14
      000EAB 05                   12063 	.uleb128	5
      000EAC 01                   12064 	.db	1
      000EAD 00 00r03r1A          12065 	.dw	0,(Sstm8s_tim2$TIM2_PWMIConfig$214)
      000EB1 0E                   12066 	.db	14
      000EB2 06                   12067 	.uleb128	6
      000EB3 01                   12068 	.db	1
      000EB4 00 00r03r1C          12069 	.dw	0,(Sstm8s_tim2$TIM2_PWMIConfig$215)
      000EB8 0E                   12070 	.db	14
      000EB9 07                   12071 	.uleb128	7
      000EBA 01                   12072 	.db	1
      000EBB 00 00r03r1E          12073 	.dw	0,(Sstm8s_tim2$TIM2_PWMIConfig$216)
      000EBF 0E                   12074 	.db	14
      000EC0 09                   12075 	.uleb128	9
      000EC1 01                   12076 	.db	1
      000EC2 00 00r03r24          12077 	.dw	0,(Sstm8s_tim2$TIM2_PWMIConfig$217)
      000EC6 0E                   12078 	.db	14
      000EC7 05                   12079 	.uleb128	5
      000EC8 01                   12080 	.db	1
      000EC9 00 00r03r30          12081 	.dw	0,(Sstm8s_tim2$TIM2_PWMIConfig$219)
      000ECD 0E                   12082 	.db	14
      000ECE 05                   12083 	.uleb128	5
      000ECF 01                   12084 	.db	1
      000ED0 00 00r03r3A          12085 	.dw	0,(Sstm8s_tim2$TIM2_PWMIConfig$220)
      000ED4 0E                   12086 	.db	14
      000ED5 05                   12087 	.uleb128	5
      000ED6 01                   12088 	.db	1
      000ED7 00 00r03r40          12089 	.dw	0,(Sstm8s_tim2$TIM2_PWMIConfig$221)
      000EDB 0E                   12090 	.db	14
      000EDC 05                   12091 	.uleb128	5
      000EDD 01                   12092 	.db	1
      000EDE 00 00r03r42          12093 	.dw	0,(Sstm8s_tim2$TIM2_PWMIConfig$222)
      000EE2 0E                   12094 	.db	14
      000EE3 06                   12095 	.uleb128	6
      000EE4 01                   12096 	.db	1
      000EE5 00 00r03r44          12097 	.dw	0,(Sstm8s_tim2$TIM2_PWMIConfig$223)
      000EE9 0E                   12098 	.db	14
      000EEA 07                   12099 	.uleb128	7
      000EEB 01                   12100 	.db	1
      000EEC 00 00r03r46          12101 	.dw	0,(Sstm8s_tim2$TIM2_PWMIConfig$224)
      000EF0 0E                   12102 	.db	14
      000EF1 09                   12103 	.uleb128	9
      000EF2 01                   12104 	.db	1
      000EF3 00 00r03r4C          12105 	.dw	0,(Sstm8s_tim2$TIM2_PWMIConfig$225)
      000EF7 0E                   12106 	.db	14
      000EF8 05                   12107 	.uleb128	5
      000EF9 01                   12108 	.db	1
      000EFA 00 00r03r56          12109 	.dw	0,(Sstm8s_tim2$TIM2_PWMIConfig$227)
      000EFE 0E                   12110 	.db	14
      000EFF 05                   12111 	.uleb128	5
      000F00 01                   12112 	.db	1
      000F01 00 00r03r5C          12113 	.dw	0,(Sstm8s_tim2$TIM2_PWMIConfig$228)
      000F05 0E                   12114 	.db	14
      000F06 05                   12115 	.uleb128	5
      000F07 01                   12116 	.db	1
      000F08 00 00r03r62          12117 	.dw	0,(Sstm8s_tim2$TIM2_PWMIConfig$229)
      000F0C 0E                   12118 	.db	14
      000F0D 05                   12119 	.uleb128	5
      000F0E 01                   12120 	.db	1
      000F0F 00 00r03r64          12121 	.dw	0,(Sstm8s_tim2$TIM2_PWMIConfig$230)
      000F13 0E                   12122 	.db	14
      000F14 06                   12123 	.uleb128	6
      000F15 01                   12124 	.db	1
      000F16 00 00r03r66          12125 	.dw	0,(Sstm8s_tim2$TIM2_PWMIConfig$231)
      000F1A 0E                   12126 	.db	14
      000F1B 07                   12127 	.uleb128	7
      000F1C 01                   12128 	.db	1
      000F1D 00 00r03r68          12129 	.dw	0,(Sstm8s_tim2$TIM2_PWMIConfig$232)
      000F21 0E                   12130 	.db	14
      000F22 09                   12131 	.uleb128	9
      000F23 01                   12132 	.db	1
      000F24 00 00r03r6E          12133 	.dw	0,(Sstm8s_tim2$TIM2_PWMIConfig$233)
      000F28 0E                   12134 	.db	14
      000F29 05                   12135 	.uleb128	5
      000F2A 01                   12136 	.db	1
      000F2B 00 00r03r8E          12137 	.dw	0,(Sstm8s_tim2$TIM2_PWMIConfig$251)
      000F2F 0E                   12138 	.db	14
      000F30 06                   12139 	.uleb128	6
      000F31 01                   12140 	.db	1
      000F32 00 00r03r91          12141 	.dw	0,(Sstm8s_tim2$TIM2_PWMIConfig$252)
      000F36 0E                   12142 	.db	14
      000F37 07                   12143 	.uleb128	7
      000F38 01                   12144 	.db	1
      000F39 00 00r03r96          12145 	.dw	0,(Sstm8s_tim2$TIM2_PWMIConfig$253)
      000F3D 0E                   12146 	.db	14
      000F3E 05                   12147 	.uleb128	5
      000F3F 01                   12148 	.db	1
      000F40 00 00r03r9E          12149 	.dw	0,(Sstm8s_tim2$TIM2_PWMIConfig$256)
      000F44 0E                   12150 	.db	14
      000F45 06                   12151 	.uleb128	6
      000F46 01                   12152 	.db	1
      000F47 00 00r03rA1          12153 	.dw	0,(Sstm8s_tim2$TIM2_PWMIConfig$257)
      000F4B 0E                   12154 	.db	14
      000F4C 07                   12155 	.uleb128	7
      000F4D 01                   12156 	.db	1
      000F4E 00 00r03rA6          12157 	.dw	0,(Sstm8s_tim2$TIM2_PWMIConfig$258)
      000F52 0E                   12158 	.db	14
      000F53 05                   12159 	.uleb128	5
      000F54 01                   12160 	.db	1
      000F55 00 00r03rB0          12161 	.dw	0,(Sstm8s_tim2$TIM2_PWMIConfig$263)
      000F59 0E                   12162 	.db	14
      000F5A 06                   12163 	.uleb128	6
      000F5B 01                   12164 	.db	1
      000F5C 00 00r03rB3          12165 	.dw	0,(Sstm8s_tim2$TIM2_PWMIConfig$264)
      000F60 0E                   12166 	.db	14
      000F61 07                   12167 	.uleb128	7
      000F62 01                   12168 	.db	1
      000F63 00 00r03rB8          12169 	.dw	0,(Sstm8s_tim2$TIM2_PWMIConfig$265)
      000F67 0E                   12170 	.db	14
      000F68 05                   12171 	.uleb128	5
      000F69 01                   12172 	.db	1
      000F6A 00 00r03rC0          12173 	.dw	0,(Sstm8s_tim2$TIM2_PWMIConfig$268)
      000F6E 0E                   12174 	.db	14
      000F6F 06                   12175 	.uleb128	6
      000F70 01                   12176 	.db	1
      000F71 00 00r03rC3          12177 	.dw	0,(Sstm8s_tim2$TIM2_PWMIConfig$269)
      000F75 0E                   12178 	.db	14
      000F76 07                   12179 	.uleb128	7
      000F77 01                   12180 	.db	1
      000F78 00 00r03rC8          12181 	.dw	0,(Sstm8s_tim2$TIM2_PWMIConfig$270)
      000F7C 0E                   12182 	.db	14
      000F7D 05                   12183 	.uleb128	5
      000F7E 01                   12184 	.db	1
      000F7F 00 00r03rD1          12185 	.dw	0,(Sstm8s_tim2$TIM2_PWMIConfig$274)
      000F83 0E                   12186 	.db	14
      000F84 FC FF FF FF 0F       12187 	.uleb128	-4
      000F89 00                   12188 	.db	0
      000F8A 00                   12189 	.db	0
      000F8B 00                   12190 	.db	0
                                  12191 
                                  12192 	.area .debug_frame (NOLOAD)
      000F8C 00 00                12193 	.dw	0
      000F8E 00 10                12194 	.dw	Ldebug_CIE40_end-Ldebug_CIE40_start
      000F90                      12195 Ldebug_CIE40_start:
      000F90 FF FF                12196 	.dw	0xffff
      000F92 FF FF                12197 	.dw	0xffff
      000F94 01                   12198 	.db	1
      000F95 00                   12199 	.db	0
      000F96 01                   12200 	.uleb128	1
      000F97 7F                   12201 	.sleb128	-1
      000F98 09                   12202 	.db	9
      000F99 0C                   12203 	.db	12
      000F9A 08                   12204 	.uleb128	8
      000F9B 02                   12205 	.uleb128	2
      000F9C 89                   12206 	.db	137
      000F9D 01                   12207 	.uleb128	1
      000F9E 00                   12208 	.db	0
      000F9F 00                   12209 	.db	0
      000FA0                      12210 Ldebug_CIE40_end:
      000FA0 00 00 01 30          12211 	.dw	0,304
      000FA4 00 00r0Fr8C          12212 	.dw	0,(Ldebug_CIE40_start-4)
      000FA8 00 00r02r1E          12213 	.dw	0,(Sstm8s_tim2$TIM2_ICInit$141)	;initial loc
      000FAC 00 00 00 CF          12214 	.dw	0,Sstm8s_tim2$TIM2_ICInit$202-Sstm8s_tim2$TIM2_ICInit$141
      000FB0 01                   12215 	.db	1
      000FB1 00 00r02r1E          12216 	.dw	0,(Sstm8s_tim2$TIM2_ICInit$141)
      000FB5 0E                   12217 	.db	14
      000FB6 02                   12218 	.uleb128	2
      000FB7 01                   12219 	.db	1
      000FB8 00 00r02r1F          12220 	.dw	0,(Sstm8s_tim2$TIM2_ICInit$142)
      000FBC 0E                   12221 	.db	14
      000FBD 04                   12222 	.uleb128	4
      000FBE 01                   12223 	.db	1
      000FBF 00 00r02r2B          12224 	.dw	0,(Sstm8s_tim2$TIM2_ICInit$144)
      000FC3 0E                   12225 	.db	14
      000FC4 04                   12226 	.uleb128	4
      000FC5 01                   12227 	.db	1
      000FC6 00 00r02r39          12228 	.dw	0,(Sstm8s_tim2$TIM2_ICInit$145)
      000FCA 0E                   12229 	.db	14
      000FCB 04                   12230 	.uleb128	4
      000FCC 01                   12231 	.db	1
      000FCD 00 00r02r3B          12232 	.dw	0,(Sstm8s_tim2$TIM2_ICInit$146)
      000FD1 0E                   12233 	.db	14
      000FD2 05                   12234 	.uleb128	5
      000FD3 01                   12235 	.db	1
      000FD4 00 00r02r3D          12236 	.dw	0,(Sstm8s_tim2$TIM2_ICInit$147)
      000FD8 0E                   12237 	.db	14
      000FD9 07                   12238 	.uleb128	7
      000FDA 01                   12239 	.db	1
      000FDB 00 00r02r3F          12240 	.dw	0,(Sstm8s_tim2$TIM2_ICInit$148)
      000FDF 0E                   12241 	.db	14
      000FE0 08                   12242 	.uleb128	8
      000FE1 01                   12243 	.db	1
      000FE2 00 00r02r45          12244 	.dw	0,(Sstm8s_tim2$TIM2_ICInit$149)
      000FE6 0E                   12245 	.db	14
      000FE7 04                   12246 	.uleb128	4
      000FE8 01                   12247 	.db	1
      000FE9 00 00r02r4F          12248 	.dw	0,(Sstm8s_tim2$TIM2_ICInit$151)
      000FED 0E                   12249 	.db	14
      000FEE 04                   12250 	.uleb128	4
      000FEF 01                   12251 	.db	1
      000FF0 00 00r02r51          12252 	.dw	0,(Sstm8s_tim2$TIM2_ICInit$152)
      000FF4 0E                   12253 	.db	14
      000FF5 05                   12254 	.uleb128	5
      000FF6 01                   12255 	.db	1
      000FF7 00 00r02r53          12256 	.dw	0,(Sstm8s_tim2$TIM2_ICInit$153)
      000FFB 0E                   12257 	.db	14
      000FFC 07                   12258 	.uleb128	7
      000FFD 01                   12259 	.db	1
      000FFE 00 00r02r55          12260 	.dw	0,(Sstm8s_tim2$TIM2_ICInit$154)
      001002 0E                   12261 	.db	14
      001003 08                   12262 	.uleb128	8
      001004 01                   12263 	.db	1
      001005 00 00r02r5B          12264 	.dw	0,(Sstm8s_tim2$TIM2_ICInit$155)
      001009 0E                   12265 	.db	14
      00100A 04                   12266 	.uleb128	4
      00100B 01                   12267 	.db	1
      00100C 00 00r02r60          12268 	.dw	0,(Sstm8s_tim2$TIM2_ICInit$157)
      001010 0E                   12269 	.db	14
      001011 04                   12270 	.uleb128	4
      001012 01                   12271 	.db	1
      001013 00 00r02r66          12272 	.dw	0,(Sstm8s_tim2$TIM2_ICInit$158)
      001017 0E                   12273 	.db	14
      001018 04                   12274 	.uleb128	4
      001019 01                   12275 	.db	1
      00101A 00 00r02r6C          12276 	.dw	0,(Sstm8s_tim2$TIM2_ICInit$159)
      00101E 0E                   12277 	.db	14
      00101F 04                   12278 	.uleb128	4
      001020 01                   12279 	.db	1
      001021 00 00r02r6E          12280 	.dw	0,(Sstm8s_tim2$TIM2_ICInit$160)
      001025 0E                   12281 	.db	14
      001026 05                   12282 	.uleb128	5
      001027 01                   12283 	.db	1
      001028 00 00r02r70          12284 	.dw	0,(Sstm8s_tim2$TIM2_ICInit$161)
      00102C 0E                   12285 	.db	14
      00102D 07                   12286 	.uleb128	7
      00102E 01                   12287 	.db	1
      00102F 00 00r02r72          12288 	.dw	0,(Sstm8s_tim2$TIM2_ICInit$162)
      001033 0E                   12289 	.db	14
      001034 08                   12290 	.uleb128	8
      001035 01                   12291 	.db	1
      001036 00 00r02r78          12292 	.dw	0,(Sstm8s_tim2$TIM2_ICInit$163)
      00103A 0E                   12293 	.db	14
      00103B 04                   12294 	.uleb128	4
      00103C 01                   12295 	.db	1
      00103D 00 00r02r82          12296 	.dw	0,(Sstm8s_tim2$TIM2_ICInit$165)
      001041 0E                   12297 	.db	14
      001042 04                   12298 	.uleb128	4
      001043 01                   12299 	.db	1
      001044 00 00r02r88          12300 	.dw	0,(Sstm8s_tim2$TIM2_ICInit$166)
      001048 0E                   12301 	.db	14
      001049 04                   12302 	.uleb128	4
      00104A 01                   12303 	.db	1
      00104B 00 00r02r8E          12304 	.dw	0,(Sstm8s_tim2$TIM2_ICInit$167)
      00104F 0E                   12305 	.db	14
      001050 04                   12306 	.uleb128	4
      001051 01                   12307 	.db	1
      001052 00 00r02r90          12308 	.dw	0,(Sstm8s_tim2$TIM2_ICInit$168)
      001056 0E                   12309 	.db	14
      001057 05                   12310 	.uleb128	5
      001058 01                   12311 	.db	1
      001059 00 00r02r92          12312 	.dw	0,(Sstm8s_tim2$TIM2_ICInit$169)
      00105D 0E                   12313 	.db	14
      00105E 07                   12314 	.uleb128	7
      00105F 01                   12315 	.db	1
      001060 00 00r02r94          12316 	.dw	0,(Sstm8s_tim2$TIM2_ICInit$170)
      001064 0E                   12317 	.db	14
      001065 08                   12318 	.uleb128	8
      001066 01                   12319 	.db	1
      001067 00 00r02r9A          12320 	.dw	0,(Sstm8s_tim2$TIM2_ICInit$171)
      00106B 0E                   12321 	.db	14
      00106C 04                   12322 	.uleb128	4
      00106D 01                   12323 	.db	1
      00106E 00 00r02rA2          12324 	.dw	0,(Sstm8s_tim2$TIM2_ICInit$173)
      001072 0E                   12325 	.db	14
      001073 05                   12326 	.uleb128	5
      001074 01                   12327 	.db	1
      001075 00 00r02rA4          12328 	.dw	0,(Sstm8s_tim2$TIM2_ICInit$174)
      001079 0E                   12329 	.db	14
      00107A 07                   12330 	.uleb128	7
      00107B 01                   12331 	.db	1
      00107C 00 00r02rA6          12332 	.dw	0,(Sstm8s_tim2$TIM2_ICInit$175)
      001080 0E                   12333 	.db	14
      001081 08                   12334 	.uleb128	8
      001082 01                   12335 	.db	1
      001083 00 00r02rAC          12336 	.dw	0,(Sstm8s_tim2$TIM2_ICInit$176)
      001087 0E                   12337 	.db	14
      001088 04                   12338 	.uleb128	4
      001089 01                   12339 	.db	1
      00108A 00 00r02rB3          12340 	.dw	0,(Sstm8s_tim2$TIM2_ICInit$180)
      00108E 0E                   12341 	.db	14
      00108F 05                   12342 	.uleb128	5
      001090 01                   12343 	.db	1
      001091 00 00r02rB6          12344 	.dw	0,(Sstm8s_tim2$TIM2_ICInit$181)
      001095 0E                   12345 	.db	14
      001096 06                   12346 	.uleb128	6
      001097 01                   12347 	.db	1
      001098 00 00r02rBB          12348 	.dw	0,(Sstm8s_tim2$TIM2_ICInit$182)
      00109C 0E                   12349 	.db	14
      00109D 04                   12350 	.uleb128	4
      00109E 01                   12351 	.db	1
      00109F 00 00r02rC9          12352 	.dw	0,(Sstm8s_tim2$TIM2_ICInit$188)
      0010A3 0E                   12353 	.db	14
      0010A4 05                   12354 	.uleb128	5
      0010A5 01                   12355 	.db	1
      0010A6 00 00r02rCC          12356 	.dw	0,(Sstm8s_tim2$TIM2_ICInit$189)
      0010AA 0E                   12357 	.db	14
      0010AB 06                   12358 	.uleb128	6
      0010AC 01                   12359 	.db	1
      0010AD 00 00r02rD1          12360 	.dw	0,(Sstm8s_tim2$TIM2_ICInit$190)
      0010B1 0E                   12361 	.db	14
      0010B2 04                   12362 	.uleb128	4
      0010B3 01                   12363 	.db	1
      0010B4 00 00r02rDB          12364 	.dw	0,(Sstm8s_tim2$TIM2_ICInit$195)
      0010B8 0E                   12365 	.db	14
      0010B9 05                   12366 	.uleb128	5
      0010BA 01                   12367 	.db	1
      0010BB 00 00r02rDE          12368 	.dw	0,(Sstm8s_tim2$TIM2_ICInit$196)
      0010BF 0E                   12369 	.db	14
      0010C0 06                   12370 	.uleb128	6
      0010C1 01                   12371 	.db	1
      0010C2 00 00r02rE3          12372 	.dw	0,(Sstm8s_tim2$TIM2_ICInit$197)
      0010C6 0E                   12373 	.db	14
      0010C7 04                   12374 	.uleb128	4
      0010C8 01                   12375 	.db	1
      0010C9 00 00r02rEC          12376 	.dw	0,(Sstm8s_tim2$TIM2_ICInit$201)
      0010CD 0E                   12377 	.db	14
      0010CE FC FF FF FF 0F       12378 	.uleb128	-4
      0010D3 00                   12379 	.db	0
                                  12380 
                                  12381 	.area .debug_frame (NOLOAD)
      0010D4 00 00                12382 	.dw	0
      0010D6 00 10                12383 	.dw	Ldebug_CIE41_end-Ldebug_CIE41_start
      0010D8                      12384 Ldebug_CIE41_start:
      0010D8 FF FF                12385 	.dw	0xffff
      0010DA FF FF                12386 	.dw	0xffff
      0010DC 01                   12387 	.db	1
      0010DD 00                   12388 	.db	0
      0010DE 01                   12389 	.uleb128	1
      0010DF 7F                   12390 	.sleb128	-1
      0010E0 09                   12391 	.db	9
      0010E1 0C                   12392 	.db	12
      0010E2 08                   12393 	.uleb128	8
      0010E3 02                   12394 	.uleb128	2
      0010E4 89                   12395 	.db	137
      0010E5 01                   12396 	.uleb128	1
      0010E6 00                   12397 	.db	0
      0010E7 00                   12398 	.db	0
      0010E8                      12399 Ldebug_CIE41_end:
      0010E8 00 00 00 AC          12400 	.dw	0,172
      0010EC 00 00r10rD4          12401 	.dw	0,(Ldebug_CIE41_start-4)
      0010F0 00 00r01r8B          12402 	.dw	0,(Sstm8s_tim2$TIM2_OC3Init$106)	;initial loc
      0010F4 00 00 00 93          12403 	.dw	0,Sstm8s_tim2$TIM2_OC3Init$139-Sstm8s_tim2$TIM2_OC3Init$106
      0010F8 01                   12404 	.db	1
      0010F9 00 00r01r8B          12405 	.dw	0,(Sstm8s_tim2$TIM2_OC3Init$106)
      0010FD 0E                   12406 	.db	14
      0010FE 02                   12407 	.uleb128	2
      0010FF 01                   12408 	.db	1
      001100 00 00r01r8D          12409 	.dw	0,(Sstm8s_tim2$TIM2_OC3Init$107)
      001104 0E                   12410 	.db	14
      001105 05                   12411 	.uleb128	5
      001106 01                   12412 	.db	1
      001107 00 00r01r97          12413 	.dw	0,(Sstm8s_tim2$TIM2_OC3Init$109)
      00110B 0E                   12414 	.db	14
      00110C 05                   12415 	.uleb128	5
      00110D 01                   12416 	.db	1
      00110E 00 00r01r9D          12417 	.dw	0,(Sstm8s_tim2$TIM2_OC3Init$110)
      001112 0E                   12418 	.db	14
      001113 05                   12419 	.uleb128	5
      001114 01                   12420 	.db	1
      001115 00 00r01rA3          12421 	.dw	0,(Sstm8s_tim2$TIM2_OC3Init$111)
      001119 0E                   12422 	.db	14
      00111A 05                   12423 	.uleb128	5
      00111B 01                   12424 	.db	1
      00111C 00 00r01rA9          12425 	.dw	0,(Sstm8s_tim2$TIM2_OC3Init$112)
      001120 0E                   12426 	.db	14
      001121 05                   12427 	.uleb128	5
      001122 01                   12428 	.db	1
      001123 00 00r01rAF          12429 	.dw	0,(Sstm8s_tim2$TIM2_OC3Init$113)
      001127 0E                   12430 	.db	14
      001128 05                   12431 	.uleb128	5
      001129 01                   12432 	.db	1
      00112A 00 00r01rB1          12433 	.dw	0,(Sstm8s_tim2$TIM2_OC3Init$114)
      00112E 0E                   12434 	.db	14
      00112F 06                   12435 	.uleb128	6
      001130 01                   12436 	.db	1
      001131 00 00r01rB3          12437 	.dw	0,(Sstm8s_tim2$TIM2_OC3Init$115)
      001135 0E                   12438 	.db	14
      001136 08                   12439 	.uleb128	8
      001137 01                   12440 	.db	1
      001138 00 00r01rB5          12441 	.dw	0,(Sstm8s_tim2$TIM2_OC3Init$116)
      00113C 0E                   12442 	.db	14
      00113D 09                   12443 	.uleb128	9
      00113E 01                   12444 	.db	1
      00113F 00 00r01rBB          12445 	.dw	0,(Sstm8s_tim2$TIM2_OC3Init$117)
      001143 0E                   12446 	.db	14
      001144 05                   12447 	.uleb128	5
      001145 01                   12448 	.db	1
      001146 00 00r01rC5          12449 	.dw	0,(Sstm8s_tim2$TIM2_OC3Init$119)
      00114A 0E                   12450 	.db	14
      00114B 05                   12451 	.uleb128	5
      00114C 01                   12452 	.db	1
      00114D 00 00r01rC7          12453 	.dw	0,(Sstm8s_tim2$TIM2_OC3Init$120)
      001151 0E                   12454 	.db	14
      001152 06                   12455 	.uleb128	6
      001153 01                   12456 	.db	1
      001154 00 00r01rC9          12457 	.dw	0,(Sstm8s_tim2$TIM2_OC3Init$121)
      001158 0E                   12458 	.db	14
      001159 08                   12459 	.uleb128	8
      00115A 01                   12460 	.db	1
      00115B 00 00r01rCB          12461 	.dw	0,(Sstm8s_tim2$TIM2_OC3Init$122)
      00115F 0E                   12462 	.db	14
      001160 09                   12463 	.uleb128	9
      001161 01                   12464 	.db	1
      001162 00 00r01rD1          12465 	.dw	0,(Sstm8s_tim2$TIM2_OC3Init$123)
      001166 0E                   12466 	.db	14
      001167 05                   12467 	.uleb128	5
      001168 01                   12468 	.db	1
      001169 00 00r01rDB          12469 	.dw	0,(Sstm8s_tim2$TIM2_OC3Init$125)
      00116D 0E                   12470 	.db	14
      00116E 05                   12471 	.uleb128	5
      00116F 01                   12472 	.db	1
      001170 00 00r01rDD          12473 	.dw	0,(Sstm8s_tim2$TIM2_OC3Init$126)
      001174 0E                   12474 	.db	14
      001175 06                   12475 	.uleb128	6
      001176 01                   12476 	.db	1
      001177 00 00r01rDF          12477 	.dw	0,(Sstm8s_tim2$TIM2_OC3Init$127)
      00117B 0E                   12478 	.db	14
      00117C 08                   12479 	.uleb128	8
      00117D 01                   12480 	.db	1
      00117E 00 00r01rE1          12481 	.dw	0,(Sstm8s_tim2$TIM2_OC3Init$128)
      001182 0E                   12482 	.db	14
      001183 09                   12483 	.uleb128	9
      001184 01                   12484 	.db	1
      001185 00 00r01rE7          12485 	.dw	0,(Sstm8s_tim2$TIM2_OC3Init$129)
      001189 0E                   12486 	.db	14
      00118A 05                   12487 	.uleb128	5
      00118B 01                   12488 	.db	1
      00118C 00 00r02r1D          12489 	.dw	0,(Sstm8s_tim2$TIM2_OC3Init$138)
      001190 0E                   12490 	.db	14
      001191 FC FF FF FF 0F       12491 	.uleb128	-4
      001196 00                   12492 	.db	0
      001197 00                   12493 	.db	0
                                  12494 
                                  12495 	.area .debug_frame (NOLOAD)
      001198 00 00                12496 	.dw	0
      00119A 00 10                12497 	.dw	Ldebug_CIE42_end-Ldebug_CIE42_start
      00119C                      12498 Ldebug_CIE42_start:
      00119C FF FF                12499 	.dw	0xffff
      00119E FF FF                12500 	.dw	0xffff
      0011A0 01                   12501 	.db	1
      0011A1 00                   12502 	.db	0
      0011A2 01                   12503 	.uleb128	1
      0011A3 7F                   12504 	.sleb128	-1
      0011A4 09                   12505 	.db	9
      0011A5 0C                   12506 	.db	12
      0011A6 08                   12507 	.uleb128	8
      0011A7 02                   12508 	.uleb128	2
      0011A8 89                   12509 	.db	137
      0011A9 01                   12510 	.uleb128	1
      0011AA 00                   12511 	.db	0
      0011AB 00                   12512 	.db	0
      0011AC                      12513 Ldebug_CIE42_end:
      0011AC 00 00 00 AC          12514 	.dw	0,172
      0011B0 00 00r11r98          12515 	.dw	0,(Ldebug_CIE42_start-4)
      0011B4 00 00r00rF8          12516 	.dw	0,(Sstm8s_tim2$TIM2_OC2Init$71)	;initial loc
      0011B8 00 00 00 93          12517 	.dw	0,Sstm8s_tim2$TIM2_OC2Init$104-Sstm8s_tim2$TIM2_OC2Init$71
      0011BC 01                   12518 	.db	1
      0011BD 00 00r00rF8          12519 	.dw	0,(Sstm8s_tim2$TIM2_OC2Init$71)
      0011C1 0E                   12520 	.db	14
      0011C2 02                   12521 	.uleb128	2
      0011C3 01                   12522 	.db	1
      0011C4 00 00r00rFA          12523 	.dw	0,(Sstm8s_tim2$TIM2_OC2Init$72)
      0011C8 0E                   12524 	.db	14
      0011C9 05                   12525 	.uleb128	5
      0011CA 01                   12526 	.db	1
      0011CB 00 00r01r04          12527 	.dw	0,(Sstm8s_tim2$TIM2_OC2Init$74)
      0011CF 0E                   12528 	.db	14
      0011D0 05                   12529 	.uleb128	5
      0011D1 01                   12530 	.db	1
      0011D2 00 00r01r0A          12531 	.dw	0,(Sstm8s_tim2$TIM2_OC2Init$75)
      0011D6 0E                   12532 	.db	14
      0011D7 05                   12533 	.uleb128	5
      0011D8 01                   12534 	.db	1
      0011D9 00 00r01r10          12535 	.dw	0,(Sstm8s_tim2$TIM2_OC2Init$76)
      0011DD 0E                   12536 	.db	14
      0011DE 05                   12537 	.uleb128	5
      0011DF 01                   12538 	.db	1
      0011E0 00 00r01r16          12539 	.dw	0,(Sstm8s_tim2$TIM2_OC2Init$77)
      0011E4 0E                   12540 	.db	14
      0011E5 05                   12541 	.uleb128	5
      0011E6 01                   12542 	.db	1
      0011E7 00 00r01r1C          12543 	.dw	0,(Sstm8s_tim2$TIM2_OC2Init$78)
      0011EB 0E                   12544 	.db	14
      0011EC 05                   12545 	.uleb128	5
      0011ED 01                   12546 	.db	1
      0011EE 00 00r01r1E          12547 	.dw	0,(Sstm8s_tim2$TIM2_OC2Init$79)
      0011F2 0E                   12548 	.db	14
      0011F3 06                   12549 	.uleb128	6
      0011F4 01                   12550 	.db	1
      0011F5 00 00r01r20          12551 	.dw	0,(Sstm8s_tim2$TIM2_OC2Init$80)
      0011F9 0E                   12552 	.db	14
      0011FA 08                   12553 	.uleb128	8
      0011FB 01                   12554 	.db	1
      0011FC 00 00r01r22          12555 	.dw	0,(Sstm8s_tim2$TIM2_OC2Init$81)
      001200 0E                   12556 	.db	14
      001201 09                   12557 	.uleb128	9
      001202 01                   12558 	.db	1
      001203 00 00r01r28          12559 	.dw	0,(Sstm8s_tim2$TIM2_OC2Init$82)
      001207 0E                   12560 	.db	14
      001208 05                   12561 	.uleb128	5
      001209 01                   12562 	.db	1
      00120A 00 00r01r32          12563 	.dw	0,(Sstm8s_tim2$TIM2_OC2Init$84)
      00120E 0E                   12564 	.db	14
      00120F 05                   12565 	.uleb128	5
      001210 01                   12566 	.db	1
      001211 00 00r01r34          12567 	.dw	0,(Sstm8s_tim2$TIM2_OC2Init$85)
      001215 0E                   12568 	.db	14
      001216 06                   12569 	.uleb128	6
      001217 01                   12570 	.db	1
      001218 00 00r01r36          12571 	.dw	0,(Sstm8s_tim2$TIM2_OC2Init$86)
      00121C 0E                   12572 	.db	14
      00121D 08                   12573 	.uleb128	8
      00121E 01                   12574 	.db	1
      00121F 00 00r01r38          12575 	.dw	0,(Sstm8s_tim2$TIM2_OC2Init$87)
      001223 0E                   12576 	.db	14
      001224 09                   12577 	.uleb128	9
      001225 01                   12578 	.db	1
      001226 00 00r01r3E          12579 	.dw	0,(Sstm8s_tim2$TIM2_OC2Init$88)
      00122A 0E                   12580 	.db	14
      00122B 05                   12581 	.uleb128	5
      00122C 01                   12582 	.db	1
      00122D 00 00r01r48          12583 	.dw	0,(Sstm8s_tim2$TIM2_OC2Init$90)
      001231 0E                   12584 	.db	14
      001232 05                   12585 	.uleb128	5
      001233 01                   12586 	.db	1
      001234 00 00r01r4A          12587 	.dw	0,(Sstm8s_tim2$TIM2_OC2Init$91)
      001238 0E                   12588 	.db	14
      001239 06                   12589 	.uleb128	6
      00123A 01                   12590 	.db	1
      00123B 00 00r01r4C          12591 	.dw	0,(Sstm8s_tim2$TIM2_OC2Init$92)
      00123F 0E                   12592 	.db	14
      001240 08                   12593 	.uleb128	8
      001241 01                   12594 	.db	1
      001242 00 00r01r4E          12595 	.dw	0,(Sstm8s_tim2$TIM2_OC2Init$93)
      001246 0E                   12596 	.db	14
      001247 09                   12597 	.uleb128	9
      001248 01                   12598 	.db	1
      001249 00 00r01r54          12599 	.dw	0,(Sstm8s_tim2$TIM2_OC2Init$94)
      00124D 0E                   12600 	.db	14
      00124E 05                   12601 	.uleb128	5
      00124F 01                   12602 	.db	1
      001250 00 00r01r8A          12603 	.dw	0,(Sstm8s_tim2$TIM2_OC2Init$103)
      001254 0E                   12604 	.db	14
      001255 FC FF FF FF 0F       12605 	.uleb128	-4
      00125A 00                   12606 	.db	0
      00125B 00                   12607 	.db	0
                                  12608 
                                  12609 	.area .debug_frame (NOLOAD)
      00125C 00 00                12610 	.dw	0
      00125E 00 10                12611 	.dw	Ldebug_CIE43_end-Ldebug_CIE43_start
      001260                      12612 Ldebug_CIE43_start:
      001260 FF FF                12613 	.dw	0xffff
      001262 FF FF                12614 	.dw	0xffff
      001264 01                   12615 	.db	1
      001265 00                   12616 	.db	0
      001266 01                   12617 	.uleb128	1
      001267 7F                   12618 	.sleb128	-1
      001268 09                   12619 	.db	9
      001269 0C                   12620 	.db	12
      00126A 08                   12621 	.uleb128	8
      00126B 02                   12622 	.uleb128	2
      00126C 89                   12623 	.db	137
      00126D 01                   12624 	.uleb128	1
      00126E 00                   12625 	.db	0
      00126F 00                   12626 	.db	0
      001270                      12627 Ldebug_CIE43_end:
      001270 00 00 00 AC          12628 	.dw	0,172
      001274 00 00r12r5C          12629 	.dw	0,(Ldebug_CIE43_start-4)
      001278 00 00r00r65          12630 	.dw	0,(Sstm8s_tim2$TIM2_OC1Init$36)	;initial loc
      00127C 00 00 00 93          12631 	.dw	0,Sstm8s_tim2$TIM2_OC1Init$69-Sstm8s_tim2$TIM2_OC1Init$36
      001280 01                   12632 	.db	1
      001281 00 00r00r65          12633 	.dw	0,(Sstm8s_tim2$TIM2_OC1Init$36)
      001285 0E                   12634 	.db	14
      001286 02                   12635 	.uleb128	2
      001287 01                   12636 	.db	1
      001288 00 00r00r67          12637 	.dw	0,(Sstm8s_tim2$TIM2_OC1Init$37)
      00128C 0E                   12638 	.db	14
      00128D 05                   12639 	.uleb128	5
      00128E 01                   12640 	.db	1
      00128F 00 00r00r71          12641 	.dw	0,(Sstm8s_tim2$TIM2_OC1Init$39)
      001293 0E                   12642 	.db	14
      001294 05                   12643 	.uleb128	5
      001295 01                   12644 	.db	1
      001296 00 00r00r77          12645 	.dw	0,(Sstm8s_tim2$TIM2_OC1Init$40)
      00129A 0E                   12646 	.db	14
      00129B 05                   12647 	.uleb128	5
      00129C 01                   12648 	.db	1
      00129D 00 00r00r7D          12649 	.dw	0,(Sstm8s_tim2$TIM2_OC1Init$41)
      0012A1 0E                   12650 	.db	14
      0012A2 05                   12651 	.uleb128	5
      0012A3 01                   12652 	.db	1
      0012A4 00 00r00r83          12653 	.dw	0,(Sstm8s_tim2$TIM2_OC1Init$42)
      0012A8 0E                   12654 	.db	14
      0012A9 05                   12655 	.uleb128	5
      0012AA 01                   12656 	.db	1
      0012AB 00 00r00r89          12657 	.dw	0,(Sstm8s_tim2$TIM2_OC1Init$43)
      0012AF 0E                   12658 	.db	14
      0012B0 05                   12659 	.uleb128	5
      0012B1 01                   12660 	.db	1
      0012B2 00 00r00r8B          12661 	.dw	0,(Sstm8s_tim2$TIM2_OC1Init$44)
      0012B6 0E                   12662 	.db	14
      0012B7 06                   12663 	.uleb128	6
      0012B8 01                   12664 	.db	1
      0012B9 00 00r00r8D          12665 	.dw	0,(Sstm8s_tim2$TIM2_OC1Init$45)
      0012BD 0E                   12666 	.db	14
      0012BE 08                   12667 	.uleb128	8
      0012BF 01                   12668 	.db	1
      0012C0 00 00r00r8F          12669 	.dw	0,(Sstm8s_tim2$TIM2_OC1Init$46)
      0012C4 0E                   12670 	.db	14
      0012C5 09                   12671 	.uleb128	9
      0012C6 01                   12672 	.db	1
      0012C7 00 00r00r95          12673 	.dw	0,(Sstm8s_tim2$TIM2_OC1Init$47)
      0012CB 0E                   12674 	.db	14
      0012CC 05                   12675 	.uleb128	5
      0012CD 01                   12676 	.db	1
      0012CE 00 00r00r9F          12677 	.dw	0,(Sstm8s_tim2$TIM2_OC1Init$49)
      0012D2 0E                   12678 	.db	14
      0012D3 05                   12679 	.uleb128	5
      0012D4 01                   12680 	.db	1
      0012D5 00 00r00rA1          12681 	.dw	0,(Sstm8s_tim2$TIM2_OC1Init$50)
      0012D9 0E                   12682 	.db	14
      0012DA 06                   12683 	.uleb128	6
      0012DB 01                   12684 	.db	1
      0012DC 00 00r00rA3          12685 	.dw	0,(Sstm8s_tim2$TIM2_OC1Init$51)
      0012E0 0E                   12686 	.db	14
      0012E1 08                   12687 	.uleb128	8
      0012E2 01                   12688 	.db	1
      0012E3 00 00r00rA5          12689 	.dw	0,(Sstm8s_tim2$TIM2_OC1Init$52)
      0012E7 0E                   12690 	.db	14
      0012E8 09                   12691 	.uleb128	9
      0012E9 01                   12692 	.db	1
      0012EA 00 00r00rAB          12693 	.dw	0,(Sstm8s_tim2$TIM2_OC1Init$53)
      0012EE 0E                   12694 	.db	14
      0012EF 05                   12695 	.uleb128	5
      0012F0 01                   12696 	.db	1
      0012F1 00 00r00rB5          12697 	.dw	0,(Sstm8s_tim2$TIM2_OC1Init$55)
      0012F5 0E                   12698 	.db	14
      0012F6 05                   12699 	.uleb128	5
      0012F7 01                   12700 	.db	1
      0012F8 00 00r00rB7          12701 	.dw	0,(Sstm8s_tim2$TIM2_OC1Init$56)
      0012FC 0E                   12702 	.db	14
      0012FD 06                   12703 	.uleb128	6
      0012FE 01                   12704 	.db	1
      0012FF 00 00r00rB9          12705 	.dw	0,(Sstm8s_tim2$TIM2_OC1Init$57)
      001303 0E                   12706 	.db	14
      001304 08                   12707 	.uleb128	8
      001305 01                   12708 	.db	1
      001306 00 00r00rBB          12709 	.dw	0,(Sstm8s_tim2$TIM2_OC1Init$58)
      00130A 0E                   12710 	.db	14
      00130B 09                   12711 	.uleb128	9
      00130C 01                   12712 	.db	1
      00130D 00 00r00rC1          12713 	.dw	0,(Sstm8s_tim2$TIM2_OC1Init$59)
      001311 0E                   12714 	.db	14
      001312 05                   12715 	.uleb128	5
      001313 01                   12716 	.db	1
      001314 00 00r00rF7          12717 	.dw	0,(Sstm8s_tim2$TIM2_OC1Init$68)
      001318 0E                   12718 	.db	14
      001319 FC FF FF FF 0F       12719 	.uleb128	-4
      00131E 00                   12720 	.db	0
      00131F 00                   12721 	.db	0
                                  12722 
                                  12723 	.area .debug_frame (NOLOAD)
      001320 00 00                12724 	.dw	0
      001322 00 10                12725 	.dw	Ldebug_CIE44_end-Ldebug_CIE44_start
      001324                      12726 Ldebug_CIE44_start:
      001324 FF FF                12727 	.dw	0xffff
      001326 FF FF                12728 	.dw	0xffff
      001328 01                   12729 	.db	1
      001329 00                   12730 	.db	0
      00132A 01                   12731 	.uleb128	1
      00132B 7F                   12732 	.sleb128	-1
      00132C 09                   12733 	.db	9
      00132D 0C                   12734 	.db	12
      00132E 08                   12735 	.uleb128	8
      00132F 02                   12736 	.uleb128	2
      001330 89                   12737 	.db	137
      001331 01                   12738 	.uleb128	1
      001332 00                   12739 	.db	0
      001333 00                   12740 	.db	0
      001334                      12741 Ldebug_CIE44_end:
      001334 00 00 00 14          12742 	.dw	0,20
      001338 00 00r13r20          12743 	.dw	0,(Ldebug_CIE44_start-4)
      00133C 00 00r00r59          12744 	.dw	0,(Sstm8s_tim2$TIM2_TimeBaseInit$28)	;initial loc
      001340 00 00 00 0C          12745 	.dw	0,Sstm8s_tim2$TIM2_TimeBaseInit$34-Sstm8s_tim2$TIM2_TimeBaseInit$28
      001344 01                   12746 	.db	1
      001345 00 00r00r59          12747 	.dw	0,(Sstm8s_tim2$TIM2_TimeBaseInit$28)
      001349 0E                   12748 	.db	14
      00134A 02                   12749 	.uleb128	2
      00134B 00                   12750 	.db	0
                                  12751 
                                  12752 	.area .debug_frame (NOLOAD)
      00134C 00 00                12753 	.dw	0
      00134E 00 10                12754 	.dw	Ldebug_CIE45_end-Ldebug_CIE45_start
      001350                      12755 Ldebug_CIE45_start:
      001350 FF FF                12756 	.dw	0xffff
      001352 FF FF                12757 	.dw	0xffff
      001354 01                   12758 	.db	1
      001355 00                   12759 	.db	0
      001356 01                   12760 	.uleb128	1
      001357 7F                   12761 	.sleb128	-1
      001358 09                   12762 	.db	9
      001359 0C                   12763 	.db	12
      00135A 08                   12764 	.uleb128	8
      00135B 02                   12765 	.uleb128	2
      00135C 89                   12766 	.db	137
      00135D 01                   12767 	.uleb128	1
      00135E 00                   12768 	.db	0
      00135F 00                   12769 	.db	0
      001360                      12770 Ldebug_CIE45_end:
      001360 00 00 00 14          12771 	.dw	0,20
      001364 00 00r13r4C          12772 	.dw	0,(Ldebug_CIE45_start-4)
      001368 00 00r00r00          12773 	.dw	0,(Sstm8s_tim2$TIM2_DeInit$1)	;initial loc
      00136C 00 00 00 59          12774 	.dw	0,Sstm8s_tim2$TIM2_DeInit$26-Sstm8s_tim2$TIM2_DeInit$1
      001370 01                   12775 	.db	1
      001371 00 00r00r00          12776 	.dw	0,(Sstm8s_tim2$TIM2_DeInit$1)
      001375 0E                   12777 	.db	14
      001376 02                   12778 	.uleb128	2
      001377 00                   12779 	.db	0
