                                      1 ;--------------------------------------------------------
                                      2 ; File Created by SDCC : free open source ISO C Compiler 
                                      3 ; Version 4.4.0 #14620 (MINGW64)
                                      4 ;--------------------------------------------------------
                                      5 	.module crc
                                      6 	.optsdcc -mstm8
                                      7 	
                                      8 ;--------------------------------------------------------
                                      9 ; Public variables in this module
                                     10 ;--------------------------------------------------------
                                     11 	.globl _BitsReverse
                                     12 	.globl _GetCRC
                                     13 ;--------------------------------------------------------
                                     14 ; ram data
                                     15 ;--------------------------------------------------------
                                     16 	.area DATA
                                     17 ;--------------------------------------------------------
                                     18 ; ram data
                                     19 ;--------------------------------------------------------
                                     20 	.area INITIALIZED
      000000                         21 _s_crcTab:
      000000                         22 	.ds 1024
                                     23 ;--------------------------------------------------------
                                     24 ; absolute external ram data
                                     25 ;--------------------------------------------------------
                                     26 	.area DABS (ABS)
                                     27 
                                     28 ; default segment ordering for linker
                                     29 	.area HOME
                                     30 	.area GSINIT
                                     31 	.area GSFINAL
                                     32 	.area CONST
                                     33 	.area INITIALIZER
                                     34 	.area CODE
                                     35 
                                     36 ;--------------------------------------------------------
                                     37 ; global & static initialisations
                                     38 ;--------------------------------------------------------
                                     39 	.area HOME
                                     40 	.area GSINIT
                                     41 	.area GSFINAL
                                     42 	.area GSINIT
                                     43 ;--------------------------------------------------------
                                     44 ; Home
                                     45 ;--------------------------------------------------------
                                     46 	.area HOME
                                     47 	.area HOME
                                     48 ;--------------------------------------------------------
                                     49 ; code
                                     50 ;--------------------------------------------------------
                                     51 	.area CODE
                                     52 ;	crc.c: 89: unsigned int BitsReverse(unsigned int inVal, unsigned char bits)
                                     53 ;	-----------------------------------------
                                     54 ;	 function BitsReverse
                                     55 ;	-----------------------------------------
      000000                         56 _BitsReverse:
      000000 52 06            [ 2]   57 	sub	sp, #6
      000002 1F 02            [ 2]   58 	ldw	(0x02, sp), x
      000004 6B 01            [ 1]   59 	ld	(0x01, sp), a
                                     60 ;	crc.c: 91: unsigned int outVal = 0;
      000006 5F               [ 1]   61 	clrw	x
      000007 1F 04            [ 2]   62 	ldw	(0x04, sp), x
                                     63 ;	crc.c: 94: for(i=0; i<bits; i++)
      000009 7B 01            [ 1]   64 	ld	a, (0x01, sp)
      00000B 4A               [ 1]   65 	dec	a
      00000C 90 95            [ 1]   66 	ld	yh, a
      00000E 0F 06            [ 1]   67 	clr	(0x06, sp)
      000010                         68 00105$:
      000010 7B 06            [ 1]   69 	ld	a, (0x06, sp)
      000012 11 01            [ 1]   70 	cp	a, (0x01, sp)
      000014 24 2F            [ 1]   71 	jrnc	00103$
                                     72 ;	crc.c: 96: if(inVal & (1 << i)) outVal |= 1 << (bits - 1 - i);
      000016 5F               [ 1]   73 	clrw	x
      000017 5C               [ 1]   74 	incw	x
      000018 7B 06            [ 1]   75 	ld	a, (0x06, sp)
      00001A 27 04            [ 1]   76 	jreq	00133$
      00001C                         77 00132$:
      00001C 58               [ 2]   78 	sllw	x
      00001D 4A               [ 1]   79 	dec	a
      00001E 26 FC            [ 1]   80 	jrne	00132$
      000020                         81 00133$:
      000020 9F               [ 1]   82 	ld	a, xl
      000021 14 03            [ 1]   83 	and	a, (0x03, sp)
      000023 02               [ 1]   84 	rlwa	x
      000024 14 02            [ 1]   85 	and	a, (0x02, sp)
      000026 95               [ 1]   86 	ld	xh, a
      000027 5D               [ 2]   87 	tnzw	x
      000028 27 17            [ 1]   88 	jreq	00106$
      00002A 90 9E            [ 1]   89 	ld	a, yh
      00002C 10 06            [ 1]   90 	sub	a, (0x06, sp)
      00002E 5F               [ 1]   91 	clrw	x
      00002F 5C               [ 1]   92 	incw	x
      000030 4D               [ 1]   93 	tnz	a
      000031 27 04            [ 1]   94 	jreq	00136$
      000033                         95 00135$:
      000033 58               [ 2]   96 	sllw	x
      000034 4A               [ 1]   97 	dec	a
      000035 26 FC            [ 1]   98 	jrne	00135$
      000037                         99 00136$:
      000037 9F               [ 1]  100 	ld	a, xl
      000038 1A 05            [ 1]  101 	or	a, (0x05, sp)
      00003A 6B 05            [ 1]  102 	ld	(0x05, sp), a
      00003C 9E               [ 1]  103 	ld	a, xh
      00003D 1A 04            [ 1]  104 	or	a, (0x04, sp)
      00003F 6B 04            [ 1]  105 	ld	(0x04, sp), a
      000041                        106 00106$:
                                    107 ;	crc.c: 94: for(i=0; i<bits; i++)
      000041 0C 06            [ 1]  108 	inc	(0x06, sp)
      000043 20 CB            [ 2]  109 	jra	00105$
      000045                        110 00103$:
                                    111 ;	crc.c: 99: return outVal;
      000045 1E 04            [ 2]  112 	ldw	x, (0x04, sp)
                                    113 ;	crc.c: 100: }
      000047 5B 06            [ 2]  114 	addw	sp, #6
      000049 81               [ 4]  115 	ret
                                    116 ;	crc.c: 113: unsigned int GetCRC(CrcTypeE type, unsigned char *buf, unsigned int bufLen)
                                    117 ;	-----------------------------------------
                                    118 ;	 function GetCRC
                                    119 ;	-----------------------------------------
      00004A                        120 _GetCRC:
      00004A 52 15            [ 2]  121 	sub	sp, #21
      00004C 6B 11            [ 1]  122 	ld	(0x11, sp), a
      00004E 1F 0F            [ 2]  123 	ldw	(0x0f, sp), x
                                    124 ;	crc.c: 115: unsigned char width  = s_crcInfoTab[type].Width; //宽度，即CRC比特数。
      000050 7B 11            [ 1]  125 	ld	a, (0x11, sp)
      000052 97               [ 1]  126 	ld	xl, a
      000053 A6 0B            [ 1]  127 	ld	a, #0x0b
      000055 42               [ 4]  128 	mul	x, a
      000056 1Cr00r00         [ 2]  129 	addw	x, #(_s_crcInfoTab+0)
      000059 90 93            [ 1]  130 	ldw	y, x
      00005B E6 02            [ 1]  131 	ld	a, (0x2, x)
      00005D 6B 03            [ 1]  132 	ld	(0x03, sp), a
                                    133 ;	crc.c: 116: unsigned int  crc    = s_crcInfoTab[type].CrcInit; //初始值,这是算法开始时寄存器（crc）的初始化预置值，十六进制表示。
      00005F 93               [ 1]  134 	ldw	x, y
      000060 EE 05            [ 2]  135 	ldw	x, (0x5, x)
      000062 1F 12            [ 2]  136 	ldw	(0x12, sp), x
                                    137 ;	crc.c: 117: unsigned int  xorout = s_crcInfoTab[type].XorOut; //计算结果与此参数异或后得到最终的CRC值。
      000064 93               [ 1]  138 	ldw	x, y
      000065 EE 07            [ 2]  139 	ldw	x, (0x7, x)
      000067 1F 04            [ 2]  140 	ldw	(0x04, sp), x
                                    141 ;	crc.c: 118: unsigned char refin  = s_crcInfoTab[type].RefIn; //待测数据的每个字节是否按位反转，E_TRUE或E_FALSE。
      000069 93               [ 1]  142 	ldw	x, y
      00006A E6 09            [ 1]  143 	ld	a, (0x9, x)
      00006C 6B 06            [ 1]  144 	ld	(0x06, sp), a
                                    145 ;	crc.c: 119: unsigned char refout = s_crcInfoTab[type].RefOut; //在计算后之后，异或输出之前，整个数据是否按位反转，E_TRUE或E_FALSE。
      00006E 90 E6 0A         [ 1]  146 	ld	a, (0xa, y)
      000071 6B 07            [ 1]  147 	ld	(0x07, sp), a
                                    148 ;	crc.c: 125: if(width > 8) //为了减少移位等操作，width大于8和小于8的分开处理
      000073 7B 03            [ 1]  149 	ld	a, (0x03, sp)
      000075 A1 08            [ 1]  150 	cp	a, #0x08
      000077 22 04            [ 1]  151 	jrugt	00212$
      000079 0F 0E            [ 1]  152 	clr	(0x0e, sp)
      00007B 20 04            [ 2]  153 	jra	00213$
      00007D                        154 00212$:
      00007D A6 01            [ 1]  155 	ld	a, #0x01
      00007F 6B 0E            [ 1]  156 	ld	(0x0e, sp), a
      000081                        157 00213$:
                                    158 ;	crc.c: 129: crc = (crc >> 8) ^ s_crcTab[type][(crc & 0xFF) ^ *buf++];
      000081 7B 11            [ 1]  159 	ld	a, (0x11, sp)
                                    160 ;	crc.c: 127: while(bufLen--)
      000083 16 18            [ 2]  161 	ldw	y, (0x18, sp)
      000085 17 14            [ 2]  162 	ldw	(0x14, sp), y
                                    163 ;	crc.c: 129: crc = (crc >> 8) ^ s_crcTab[type][(crc & 0xFF) ^ *buf++];
      000087 6B 08            [ 1]  164 	ld	(0x08, sp), a
      000089 0F 09            [ 1]  165 	clr	(0x09, sp)
      00008B 08 09            [ 1]  166 	sll	(0x09, sp)
      00008D 09 08            [ 1]  167 	rlc	(0x08, sp)
                                    168 ;	crc.c: 122: if(refin) //逆序 LSB 输入
      00008F 0D 06            [ 1]  169 	tnz	(0x06, sp)
      000091 27 78            [ 1]  170 	jreq	00120$
                                    171 ;	crc.c: 124: crc = BitsReverse(crc, width); //init 先逆序;
      000093 7B 03            [ 1]  172 	ld	a, (0x03, sp)
      000095 1E 12            [ 2]  173 	ldw	x, (0x12, sp)
      000097 CDr00r00         [ 4]  174 	call	_BitsReverse
      00009A 1F 12            [ 2]  175 	ldw	(0x12, sp), x
                                    176 ;	crc.c: 125: if(width > 8) //为了减少移位等操作，width大于8和小于8的分开处理
      00009C 0D 0E            [ 1]  177 	tnz	(0x0e, sp)
      00009E 27 3D            [ 1]  178 	jreq	00130$
                                    179 ;	crc.c: 127: while(bufLen--)
      0000A0 16 0F            [ 2]  180 	ldw	y, (0x0f, sp)
      0000A2 17 0D            [ 2]  181 	ldw	(0x0d, sp), y
      0000A4 16 14            [ 2]  182 	ldw	y, (0x14, sp)
      0000A6                        183 00101$:
      0000A6 93               [ 1]  184 	ldw	x, y
      0000A7 90 5A            [ 2]  185 	decw	y
      0000A9 5D               [ 2]  186 	tnzw	x
      0000AA 26 03            [ 1]  187 	jrne	00216$
      0000AC CCr01rAA         [ 2]  188 	jp	00121$
      0000AF                        189 00216$:
                                    190 ;	crc.c: 129: crc = (crc >> 8) ^ s_crcTab[type][(crc & 0xFF) ^ *buf++];
      0000AF 7B 12            [ 1]  191 	ld	a, (0x12, sp)
      0000B1 6B 02            [ 1]  192 	ld	(0x02, sp), a
      0000B3 0F 01            [ 1]  193 	clr	(0x01, sp)
      0000B5 1E 08            [ 2]  194 	ldw	x, (0x08, sp)
      0000B7 1Cr00r00         [ 2]  195 	addw	x, #(_s_crcTab+0)
      0000BA 1F 0B            [ 2]  196 	ldw	(0x0b, sp), x
      0000BC 7B 13            [ 1]  197 	ld	a, (0x13, sp)
      0000BE 6B 15            [ 1]  198 	ld	(0x15, sp), a
      0000C0 0F 14            [ 1]  199 	clr	(0x14, sp)
      0000C2 1E 0D            [ 2]  200 	ldw	x, (0x0d, sp)
      0000C4 F6               [ 1]  201 	ld	a, (x)
      0000C5 1E 0D            [ 2]  202 	ldw	x, (0x0d, sp)
      0000C7 5C               [ 1]  203 	incw	x
      0000C8 1F 0D            [ 2]  204 	ldw	(0x0d, sp), x
      0000CA 5F               [ 1]  205 	clrw	x
      0000CB 18 15            [ 1]  206 	xor	a, (0x15, sp)
      0000CD 97               [ 1]  207 	ld	xl, a
      0000CE 58               [ 2]  208 	sllw	x
      0000CF 72 FB 0B         [ 2]  209 	addw	x, (0x0b, sp)
      0000D2 FE               [ 2]  210 	ldw	x, (x)
      0000D3 9F               [ 1]  211 	ld	a, xl
      0000D4 18 02            [ 1]  212 	xor	a, (0x02, sp)
      0000D6 6B 13            [ 1]  213 	ld	(0x13, sp), a
      0000D8 9E               [ 1]  214 	ld	a, xh
      0000D9 6B 12            [ 1]  215 	ld	(0x12, sp), a
      0000DB 20 C9            [ 2]  216 	jra	00101$
                                    217 ;	crc.c: 134: while(bufLen--)
      0000DD                        218 00130$:
      0000DD 16 0F            [ 2]  219 	ldw	y, (0x0f, sp)
      0000DF 17 0D            [ 2]  220 	ldw	(0x0d, sp), y
      0000E1 16 14            [ 2]  221 	ldw	y, (0x14, sp)
      0000E3                        222 00104$:
      0000E3 93               [ 1]  223 	ldw	x, y
      0000E4 90 5A            [ 2]  224 	decw	y
      0000E6 5D               [ 2]  225 	tnzw	x
      0000E7 26 03            [ 1]  226 	jrne	00218$
      0000E9 CCr01rAA         [ 2]  227 	jp	00121$
      0000EC                        228 00218$:
                                    229 ;	crc.c: 136: crc = s_crcTab[type][crc ^ *buf++];
      0000EC 1E 08            [ 2]  230 	ldw	x, (0x08, sp)
      0000EE 1Cr00r00         [ 2]  231 	addw	x, #(_s_crcTab+0)
      0000F1 1F 14            [ 2]  232 	ldw	(0x14, sp), x
      0000F3 1E 0D            [ 2]  233 	ldw	x, (0x0d, sp)
      0000F5 F6               [ 1]  234 	ld	a, (x)
      0000F6 1E 0D            [ 2]  235 	ldw	x, (0x0d, sp)
      0000F8 5C               [ 1]  236 	incw	x
      0000F9 1F 0D            [ 2]  237 	ldw	(0x0d, sp), x
      0000FB 18 13            [ 1]  238 	xor	a, (0x13, sp)
      0000FD 97               [ 1]  239 	ld	xl, a
      0000FE 4F               [ 1]  240 	clr	a
      0000FF 18 12            [ 1]  241 	xor	a, (0x12, sp)
      000101 95               [ 1]  242 	ld	xh, a
      000102 58               [ 2]  243 	sllw	x
      000103 72 FB 14         [ 2]  244 	addw	x, (0x14, sp)
      000106 FE               [ 2]  245 	ldw	x, (x)
      000107 1F 12            [ 2]  246 	ldw	(0x12, sp), x
      000109 20 D8            [ 2]  247 	jra	00104$
      00010B                        248 00120$:
                                    249 ;	crc.c: 142: if(width > 8) //为了减少移位等操作，width大于8和小于8的分开处理
      00010B 0D 0E            [ 1]  250 	tnz	(0x0e, sp)
      00010D 27 4F            [ 1]  251 	jreq	00117$
                                    252 ;	crc.c: 144: while (bufLen--)
      00010F 7B 03            [ 1]  253 	ld	a, (0x03, sp)
      000111 A0 08            [ 1]  254 	sub	a, #0x08
      000113 6B 0C            [ 1]  255 	ld	(0x0c, sp), a
      000115 16 0F            [ 2]  256 	ldw	y, (0x0f, sp)
      000117 17 0D            [ 2]  257 	ldw	(0x0d, sp), y
      000119 16 14            [ 2]  258 	ldw	y, (0x14, sp)
      00011B                        259 00110$:
      00011B 17 14            [ 2]  260 	ldw	(0x14, sp), y
      00011D 90 5A            [ 2]  261 	decw	y
      00011F 1E 14            [ 2]  262 	ldw	x, (0x14, sp)
      000121 26 03            [ 1]  263 	jrne	00221$
      000123 CCr01rAA         [ 2]  264 	jp	00121$
      000126                        265 00221$:
                                    266 ;	crc.c: 146: high = crc >> (width - 8);
      000126 1E 12            [ 2]  267 	ldw	x, (0x12, sp)
      000128 7B 0C            [ 1]  268 	ld	a, (0x0c, sp)
      00012A                        269 00222$:
      00012A 54               [ 2]  270 	srlw	x
      00012B 4A               [ 1]  271 	dec	a
      00012C 26 FC            [ 1]  272 	jrne	00222$
      00012E 1F 14            [ 2]  273 	ldw	(0x14, sp), x
      000130 7B 15            [ 1]  274 	ld	a, (0x15, sp)
      000132 6B 0B            [ 1]  275 	ld	(0x0b, sp), a
                                    276 ;	crc.c: 147: crc = (crc << 8) ^ s_crcTab[type][high ^ *buf++];
      000134 7B 13            [ 1]  277 	ld	a, (0x13, sp)
      000136 6B 14            [ 1]  278 	ld	(0x14, sp), a
      000138 0F 15            [ 1]  279 	clr	(0x15, sp)
      00013A 1E 08            [ 2]  280 	ldw	x, (0x08, sp)
      00013C 1Cr00r00         [ 2]  281 	addw	x, #(_s_crcTab+0)
      00013F 1F 12            [ 2]  282 	ldw	(0x12, sp), x
      000141 1E 0D            [ 2]  283 	ldw	x, (0x0d, sp)
      000143 F6               [ 1]  284 	ld	a, (x)
      000144 1E 0D            [ 2]  285 	ldw	x, (0x0d, sp)
      000146 5C               [ 1]  286 	incw	x
      000147 1F 0D            [ 2]  287 	ldw	(0x0d, sp), x
      000149 18 0B            [ 1]  288 	xor	a, (0x0b, sp)
      00014B 5F               [ 1]  289 	clrw	x
      00014C 97               [ 1]  290 	ld	xl, a
      00014D 58               [ 2]  291 	sllw	x
      00014E 72 FB 12         [ 2]  292 	addw	x, (0x12, sp)
      000151 FE               [ 2]  293 	ldw	x, (x)
      000152 9F               [ 1]  294 	ld	a, xl
      000153 18 15            [ 1]  295 	xor	a, (0x15, sp)
      000155 6B 13            [ 1]  296 	ld	(0x13, sp), a
      000157 9E               [ 1]  297 	ld	a, xh
      000158 18 14            [ 1]  298 	xor	a, (0x14, sp)
      00015A 6B 12            [ 1]  299 	ld	(0x12, sp), a
      00015C 20 BD            [ 2]  300 	jra	00110$
      00015E                        301 00117$:
                                    302 ;	crc.c: 152: crc = crc << (8 - width);
      00015E A6 08            [ 1]  303 	ld	a, #0x08
      000160 10 03            [ 1]  304 	sub	a, (0x03, sp)
      000162 6B 0A            [ 1]  305 	ld	(0x0a, sp), a
      000164 1E 12            [ 2]  306 	ldw	x, (0x12, sp)
      000166 7B 0A            [ 1]  307 	ld	a, (0x0a, sp)
      000168 27 04            [ 1]  308 	jreq	00226$
      00016A                        309 00225$:
      00016A 58               [ 2]  310 	sllw	x
      00016B 4A               [ 1]  311 	dec	a
      00016C 26 FC            [ 1]  312 	jrne	00225$
      00016E                        313 00226$:
      00016E 1F 0B            [ 2]  314 	ldw	(0x0b, sp), x
                                    315 ;	crc.c: 153: while (bufLen--)
      000170 16 0F            [ 2]  316 	ldw	y, (0x0f, sp)
      000172 17 12            [ 2]  317 	ldw	(0x12, sp), y
      000174                        318 00113$:
      000174 1E 14            [ 2]  319 	ldw	x, (0x14, sp)
      000176 16 14            [ 2]  320 	ldw	y, (0x14, sp)
      000178 90 5A            [ 2]  321 	decw	y
      00017A 17 14            [ 2]  322 	ldw	(0x14, sp), y
      00017C 5D               [ 2]  323 	tnzw	x
      00017D 27 1F            [ 1]  324 	jreq	00115$
                                    325 ;	crc.c: 155: crc = s_crcTab[type][crc ^ *buf++];
      00017F 1E 08            [ 2]  326 	ldw	x, (0x08, sp)
      000181 1Cr00r00         [ 2]  327 	addw	x, #(_s_crcTab+0)
      000184 1F 0D            [ 2]  328 	ldw	(0x0d, sp), x
      000186 1E 12            [ 2]  329 	ldw	x, (0x12, sp)
      000188 F6               [ 1]  330 	ld	a, (x)
      000189 1E 12            [ 2]  331 	ldw	x, (0x12, sp)
      00018B 5C               [ 1]  332 	incw	x
      00018C 1F 12            [ 2]  333 	ldw	(0x12, sp), x
      00018E 18 0C            [ 1]  334 	xor	a, (0x0c, sp)
      000190 97               [ 1]  335 	ld	xl, a
      000191 4F               [ 1]  336 	clr	a
      000192 18 0B            [ 1]  337 	xor	a, (0x0b, sp)
      000194 95               [ 1]  338 	ld	xh, a
      000195 58               [ 2]  339 	sllw	x
      000196 72 FB 0D         [ 2]  340 	addw	x, (0x0d, sp)
      000199 FE               [ 2]  341 	ldw	x, (x)
      00019A 1F 0B            [ 2]  342 	ldw	(0x0b, sp), x
      00019C 20 D6            [ 2]  343 	jra	00113$
      00019E                        344 00115$:
                                    345 ;	crc.c: 157: crc >>= 8 - width; //位数小于8时，crc在高width位，要右移到原位
      00019E 1E 0B            [ 2]  346 	ldw	x, (0x0b, sp)
      0001A0 7B 0A            [ 1]  347 	ld	a, (0x0a, sp)
      0001A2 27 04            [ 1]  348 	jreq	00230$
      0001A4                        349 00229$:
      0001A4 54               [ 2]  350 	srlw	x
      0001A5 4A               [ 1]  351 	dec	a
      0001A6 26 FC            [ 1]  352 	jrne	00229$
      0001A8                        353 00230$:
      0001A8 1F 12            [ 2]  354 	ldw	(0x12, sp), x
      0001AA                        355 00121$:
                                    356 ;	crc.c: 161: if(refout != refin) //逆序输出
      0001AA 7B 07            [ 1]  357 	ld	a, (0x07, sp)
      0001AC 11 06            [ 1]  358 	cp	a, (0x06, sp)
      0001AE 27 09            [ 1]  359 	jreq	00123$
                                    360 ;	crc.c: 163: crc = BitsReverse(crc, width);
      0001B0 7B 03            [ 1]  361 	ld	a, (0x03, sp)
      0001B2 1E 12            [ 2]  362 	ldw	x, (0x12, sp)
      0001B4 CDr00r00         [ 4]  363 	call	_BitsReverse
      0001B7 1F 12            [ 2]  364 	ldw	(0x12, sp), x
      0001B9                        365 00123$:
                                    366 ;	crc.c: 166: crc ^= xorout; //异或输出
      0001B9 7B 13            [ 1]  367 	ld	a, (0x13, sp)
      0001BB 18 05            [ 1]  368 	xor	a, (0x05, sp)
      0001BD 6B 15            [ 1]  369 	ld	(0x15, sp), a
      0001BF 7B 12            [ 1]  370 	ld	a, (0x12, sp)
      0001C1 18 04            [ 1]  371 	xor	a, (0x04, sp)
      0001C3 6B 14            [ 1]  372 	ld	(0x14, sp), a
                                    373 ;	crc.c: 168: return crc & ((2 << (width - 1)) - 1);
      0001C5 7B 03            [ 1]  374 	ld	a, (0x03, sp)
      0001C7 4A               [ 1]  375 	dec	a
      0001C8 AE 00 02         [ 2]  376 	ldw	x, #0x0002
      0001CB 4D               [ 1]  377 	tnz	a
      0001CC 27 04            [ 1]  378 	jreq	00235$
      0001CE                        379 00234$:
      0001CE 58               [ 2]  380 	sllw	x
      0001CF 4A               [ 1]  381 	dec	a
      0001D0 26 FC            [ 1]  382 	jrne	00234$
      0001D2                        383 00235$:
      0001D2 5A               [ 2]  384 	decw	x
      0001D3 9F               [ 1]  385 	ld	a, xl
      0001D4 14 15            [ 1]  386 	and	a, (0x15, sp)
      0001D6 02               [ 1]  387 	rlwa	x
      0001D7 14 14            [ 1]  388 	and	a, (0x14, sp)
      0001D9 95               [ 1]  389 	ld	xh, a
                                    390 ;	crc.c: 169: }
      0001DA 5B 15            [ 2]  391 	addw	sp, #21
      0001DC 90 85            [ 2]  392 	popw	y
      0001DE 5B 02            [ 2]  393 	addw	sp, #2
      0001E0 90 FC            [ 2]  394 	jp	(y)
                                    395 	.area CODE
                                    396 	.area CONST
      000000                        397 _s_crcInfoTab:
      000000r00r16                  398 	.dw __str_0
      000002 05                     399 	.db #0x05	; 5
      000003 00 05                  400 	.dw #0x0005
      000005 00 1F                  401 	.dw #0x001f
      000007 00 1F                  402 	.dw #0x001f
      000009 01                     403 	.db #0x01	;  1
      00000A 01                     404 	.db #0x01	;  1
      00000Br00r1F                  405 	.dw __str_1
      00000D 10                     406 	.db #0x10	; 16
      00000E 80 05                  407 	.dw #0x8005
      000010 FF FF                  408 	.dw #0xffff
      000012 FF FF                  409 	.dw #0xffff
      000014 01                     410 	.db #0x01	;  1
      000015 01                     411 	.db #0x01	;  1
                                    412 	.area CONST
      000016                        413 __str_0:
      000016 43 52 43 35 5F 55 53   414 	.ascii "CRC5_USB"
             42
      00001E 00                     415 	.db 0x00
                                    416 	.area CODE
                                    417 	.area CONST
      00001F                        418 __str_1:
      00001F 43 52 43 31 36 5F 55   419 	.ascii "CRC16_USB"
             53 42
      000028 00                     420 	.db 0x00
                                    421 	.area CODE
                                    422 	.area INITIALIZER
      000000                        423 __xinit__s_crcTab:
      000000 00 00                  424 	.dw #0x0000
      000002 00 0E                  425 	.dw #0x000e
      000004 00 1C                  426 	.dw #0x001c
      000006 00 12                  427 	.dw #0x0012
      000008 00 11                  428 	.dw #0x0011
      00000A 00 1F                  429 	.dw #0x001f
      00000C 00 0D                  430 	.dw #0x000d
      00000E 00 03                  431 	.dw #0x0003
      000010 00 0B                  432 	.dw #0x000b
      000012 00 05                  433 	.dw #0x0005
      000014 00 17                  434 	.dw #0x0017
      000016 00 19                  435 	.dw #0x0019
      000018 00 1A                  436 	.dw #0x001a
      00001A 00 14                  437 	.dw #0x0014
      00001C 00 06                  438 	.dw #0x0006
      00001E 00 08                  439 	.dw #0x0008
      000020 00 16                  440 	.dw #0x0016
      000022 00 18                  441 	.dw #0x0018
      000024 00 0A                  442 	.dw #0x000a
      000026 00 04                  443 	.dw #0x0004
      000028 00 07                  444 	.dw #0x0007
      00002A 00 09                  445 	.dw #0x0009
      00002C 00 1B                  446 	.dw #0x001b
      00002E 00 15                  447 	.dw #0x0015
      000030 00 1D                  448 	.dw #0x001d
      000032 00 13                  449 	.dw #0x0013
      000034 00 01                  450 	.dw #0x0001
      000036 00 0F                  451 	.dw #0x000f
      000038 00 0C                  452 	.dw #0x000c
      00003A 00 02                  453 	.dw #0x0002
      00003C 00 10                  454 	.dw #0x0010
      00003E 00 1E                  455 	.dw #0x001e
      000040 00 05                  456 	.dw #0x0005
      000042 00 0B                  457 	.dw #0x000b
      000044 00 19                  458 	.dw #0x0019
      000046 00 17                  459 	.dw #0x0017
      000048 00 14                  460 	.dw #0x0014
      00004A 00 1A                  461 	.dw #0x001a
      00004C 00 08                  462 	.dw #0x0008
      00004E 00 06                  463 	.dw #0x0006
      000050 00 0E                  464 	.dw #0x000e
      000052 00 00                  465 	.dw #0x0000
      000054 00 12                  466 	.dw #0x0012
      000056 00 1C                  467 	.dw #0x001c
      000058 00 1F                  468 	.dw #0x001f
      00005A 00 11                  469 	.dw #0x0011
      00005C 00 03                  470 	.dw #0x0003
      00005E 00 0D                  471 	.dw #0x000d
      000060 00 13                  472 	.dw #0x0013
      000062 00 1D                  473 	.dw #0x001d
      000064 00 0F                  474 	.dw #0x000f
      000066 00 01                  475 	.dw #0x0001
      000068 00 02                  476 	.dw #0x0002
      00006A 00 0C                  477 	.dw #0x000c
      00006C 00 1E                  478 	.dw #0x001e
      00006E 00 10                  479 	.dw #0x0010
      000070 00 18                  480 	.dw #0x0018
      000072 00 16                  481 	.dw #0x0016
      000074 00 04                  482 	.dw #0x0004
      000076 00 0A                  483 	.dw #0x000a
      000078 00 09                  484 	.dw #0x0009
      00007A 00 07                  485 	.dw #0x0007
      00007C 00 15                  486 	.dw #0x0015
      00007E 00 1B                  487 	.dw #0x001b
      000080 00 0A                  488 	.dw #0x000a
      000082 00 04                  489 	.dw #0x0004
      000084 00 16                  490 	.dw #0x0016
      000086 00 18                  491 	.dw #0x0018
      000088 00 1B                  492 	.dw #0x001b
      00008A 00 15                  493 	.dw #0x0015
      00008C 00 07                  494 	.dw #0x0007
      00008E 00 09                  495 	.dw #0x0009
      000090 00 01                  496 	.dw #0x0001
      000092 00 0F                  497 	.dw #0x000f
      000094 00 1D                  498 	.dw #0x001d
      000096 00 13                  499 	.dw #0x0013
      000098 00 10                  500 	.dw #0x0010
      00009A 00 1E                  501 	.dw #0x001e
      00009C 00 0C                  502 	.dw #0x000c
      00009E 00 02                  503 	.dw #0x0002
      0000A0 00 1C                  504 	.dw #0x001c
      0000A2 00 12                  505 	.dw #0x0012
      0000A4 00 00                  506 	.dw #0x0000
      0000A6 00 0E                  507 	.dw #0x000e
      0000A8 00 0D                  508 	.dw #0x000d
      0000AA 00 03                  509 	.dw #0x0003
      0000AC 00 11                  510 	.dw #0x0011
      0000AE 00 1F                  511 	.dw #0x001f
      0000B0 00 17                  512 	.dw #0x0017
      0000B2 00 19                  513 	.dw #0x0019
      0000B4 00 0B                  514 	.dw #0x000b
      0000B6 00 05                  515 	.dw #0x0005
      0000B8 00 06                  516 	.dw #0x0006
      0000BA 00 08                  517 	.dw #0x0008
      0000BC 00 1A                  518 	.dw #0x001a
      0000BE 00 14                  519 	.dw #0x0014
      0000C0 00 0F                  520 	.dw #0x000f
      0000C2 00 01                  521 	.dw #0x0001
      0000C4 00 13                  522 	.dw #0x0013
      0000C6 00 1D                  523 	.dw #0x001d
      0000C8 00 1E                  524 	.dw #0x001e
      0000CA 00 10                  525 	.dw #0x0010
      0000CC 00 02                  526 	.dw #0x0002
      0000CE 00 0C                  527 	.dw #0x000c
      0000D0 00 04                  528 	.dw #0x0004
      0000D2 00 0A                  529 	.dw #0x000a
      0000D4 00 18                  530 	.dw #0x0018
      0000D6 00 16                  531 	.dw #0x0016
      0000D8 00 15                  532 	.dw #0x0015
      0000DA 00 1B                  533 	.dw #0x001b
      0000DC 00 09                  534 	.dw #0x0009
      0000DE 00 07                  535 	.dw #0x0007
      0000E0 00 19                  536 	.dw #0x0019
      0000E2 00 17                  537 	.dw #0x0017
      0000E4 00 05                  538 	.dw #0x0005
      0000E6 00 0B                  539 	.dw #0x000b
      0000E8 00 08                  540 	.dw #0x0008
      0000EA 00 06                  541 	.dw #0x0006
      0000EC 00 14                  542 	.dw #0x0014
      0000EE 00 1A                  543 	.dw #0x001a
      0000F0 00 12                  544 	.dw #0x0012
      0000F2 00 1C                  545 	.dw #0x001c
      0000F4 00 0E                  546 	.dw #0x000e
      0000F6 00 00                  547 	.dw #0x0000
      0000F8 00 03                  548 	.dw #0x0003
      0000FA 00 0D                  549 	.dw #0x000d
      0000FC 00 1F                  550 	.dw #0x001f
      0000FE 00 11                  551 	.dw #0x0011
      000100 00 14                  552 	.dw #0x0014
      000102 00 1A                  553 	.dw #0x001a
      000104 00 08                  554 	.dw #0x0008
      000106 00 06                  555 	.dw #0x0006
      000108 00 05                  556 	.dw #0x0005
      00010A 00 0B                  557 	.dw #0x000b
      00010C 00 19                  558 	.dw #0x0019
      00010E 00 17                  559 	.dw #0x0017
      000110 00 1F                  560 	.dw #0x001f
      000112 00 11                  561 	.dw #0x0011
      000114 00 03                  562 	.dw #0x0003
      000116 00 0D                  563 	.dw #0x000d
      000118 00 0E                  564 	.dw #0x000e
      00011A 00 00                  565 	.dw #0x0000
      00011C 00 12                  566 	.dw #0x0012
      00011E 00 1C                  567 	.dw #0x001c
      000120 00 02                  568 	.dw #0x0002
      000122 00 0C                  569 	.dw #0x000c
      000124 00 1E                  570 	.dw #0x001e
      000126 00 10                  571 	.dw #0x0010
      000128 00 13                  572 	.dw #0x0013
      00012A 00 1D                  573 	.dw #0x001d
      00012C 00 0F                  574 	.dw #0x000f
      00012E 00 01                  575 	.dw #0x0001
      000130 00 09                  576 	.dw #0x0009
      000132 00 07                  577 	.dw #0x0007
      000134 00 15                  578 	.dw #0x0015
      000136 00 1B                  579 	.dw #0x001b
      000138 00 18                  580 	.dw #0x0018
      00013A 00 16                  581 	.dw #0x0016
      00013C 00 04                  582 	.dw #0x0004
      00013E 00 0A                  583 	.dw #0x000a
      000140 00 11                  584 	.dw #0x0011
      000142 00 1F                  585 	.dw #0x001f
      000144 00 0D                  586 	.dw #0x000d
      000146 00 03                  587 	.dw #0x0003
      000148 00 00                  588 	.dw #0x0000
      00014A 00 0E                  589 	.dw #0x000e
      00014C 00 1C                  590 	.dw #0x001c
      00014E 00 12                  591 	.dw #0x0012
      000150 00 1A                  592 	.dw #0x001a
      000152 00 14                  593 	.dw #0x0014
      000154 00 06                  594 	.dw #0x0006
      000156 00 08                  595 	.dw #0x0008
      000158 00 0B                  596 	.dw #0x000b
      00015A 00 05                  597 	.dw #0x0005
      00015C 00 17                  598 	.dw #0x0017
      00015E 00 19                  599 	.dw #0x0019
      000160 00 07                  600 	.dw #0x0007
      000162 00 09                  601 	.dw #0x0009
      000164 00 1B                  602 	.dw #0x001b
      000166 00 15                  603 	.dw #0x0015
      000168 00 16                  604 	.dw #0x0016
      00016A 00 18                  605 	.dw #0x0018
      00016C 00 0A                  606 	.dw #0x000a
      00016E 00 04                  607 	.dw #0x0004
      000170 00 0C                  608 	.dw #0x000c
      000172 00 02                  609 	.dw #0x0002
      000174 00 10                  610 	.dw #0x0010
      000176 00 1E                  611 	.dw #0x001e
      000178 00 1D                  612 	.dw #0x001d
      00017A 00 13                  613 	.dw #0x0013
      00017C 00 01                  614 	.dw #0x0001
      00017E 00 0F                  615 	.dw #0x000f
      000180 00 1E                  616 	.dw #0x001e
      000182 00 10                  617 	.dw #0x0010
      000184 00 02                  618 	.dw #0x0002
      000186 00 0C                  619 	.dw #0x000c
      000188 00 0F                  620 	.dw #0x000f
      00018A 00 01                  621 	.dw #0x0001
      00018C 00 13                  622 	.dw #0x0013
      00018E 00 1D                  623 	.dw #0x001d
      000190 00 15                  624 	.dw #0x0015
      000192 00 1B                  625 	.dw #0x001b
      000194 00 09                  626 	.dw #0x0009
      000196 00 07                  627 	.dw #0x0007
      000198 00 04                  628 	.dw #0x0004
      00019A 00 0A                  629 	.dw #0x000a
      00019C 00 18                  630 	.dw #0x0018
      00019E 00 16                  631 	.dw #0x0016
      0001A0 00 08                  632 	.dw #0x0008
      0001A2 00 06                  633 	.dw #0x0006
      0001A4 00 14                  634 	.dw #0x0014
      0001A6 00 1A                  635 	.dw #0x001a
      0001A8 00 19                  636 	.dw #0x0019
      0001AA 00 17                  637 	.dw #0x0017
      0001AC 00 05                  638 	.dw #0x0005
      0001AE 00 0B                  639 	.dw #0x000b
      0001B0 00 03                  640 	.dw #0x0003
      0001B2 00 0D                  641 	.dw #0x000d
      0001B4 00 1F                  642 	.dw #0x001f
      0001B6 00 11                  643 	.dw #0x0011
      0001B8 00 12                  644 	.dw #0x0012
      0001BA 00 1C                  645 	.dw #0x001c
      0001BC 00 0E                  646 	.dw #0x000e
      0001BE 00 00                  647 	.dw #0x0000
      0001C0 00 1B                  648 	.dw #0x001b
      0001C2 00 15                  649 	.dw #0x0015
      0001C4 00 07                  650 	.dw #0x0007
      0001C6 00 09                  651 	.dw #0x0009
      0001C8 00 0A                  652 	.dw #0x000a
      0001CA 00 04                  653 	.dw #0x0004
      0001CC 00 16                  654 	.dw #0x0016
      0001CE 00 18                  655 	.dw #0x0018
      0001D0 00 10                  656 	.dw #0x0010
      0001D2 00 1E                  657 	.dw #0x001e
      0001D4 00 0C                  658 	.dw #0x000c
      0001D6 00 02                  659 	.dw #0x0002
      0001D8 00 01                  660 	.dw #0x0001
      0001DA 00 0F                  661 	.dw #0x000f
      0001DC 00 1D                  662 	.dw #0x001d
      0001DE 00 13                  663 	.dw #0x0013
      0001E0 00 0D                  664 	.dw #0x000d
      0001E2 00 03                  665 	.dw #0x0003
      0001E4 00 11                  666 	.dw #0x0011
      0001E6 00 1F                  667 	.dw #0x001f
      0001E8 00 1C                  668 	.dw #0x001c
      0001EA 00 12                  669 	.dw #0x0012
      0001EC 00 00                  670 	.dw #0x0000
      0001EE 00 0E                  671 	.dw #0x000e
      0001F0 00 06                  672 	.dw #0x0006
      0001F2 00 08                  673 	.dw #0x0008
      0001F4 00 1A                  674 	.dw #0x001a
      0001F6 00 14                  675 	.dw #0x0014
      0001F8 00 17                  676 	.dw #0x0017
      0001FA 00 19                  677 	.dw #0x0019
      0001FC 00 0B                  678 	.dw #0x000b
      0001FE 00 05                  679 	.dw #0x0005
      000200 00 00                  680 	.dw #0x0000
      000202 C0 C1                  681 	.dw #0xc0c1
      000204 C1 81                  682 	.dw #0xc181
      000206 01 40                  683 	.dw #0x0140
      000208 C3 01                  684 	.dw #0xc301
      00020A 03 C0                  685 	.dw #0x03c0
      00020C 02 80                  686 	.dw #0x0280
      00020E C2 41                  687 	.dw #0xc241
      000210 C6 01                  688 	.dw #0xc601
      000212 06 C0                  689 	.dw #0x06c0
      000214 07 80                  690 	.dw #0x0780
      000216 C7 41                  691 	.dw #0xc741
      000218 05 00                  692 	.dw #0x0500
      00021A C5 C1                  693 	.dw #0xc5c1
      00021C C4 81                  694 	.dw #0xc481
      00021E 04 40                  695 	.dw #0x0440
      000220 CC 01                  696 	.dw #0xcc01
      000222 0C C0                  697 	.dw #0x0cc0
      000224 0D 80                  698 	.dw #0x0d80
      000226 CD 41                  699 	.dw #0xcd41
      000228 0F 00                  700 	.dw #0x0f00
      00022A CF C1                  701 	.dw #0xcfc1
      00022C CE 81                  702 	.dw #0xce81
      00022E 0E 40                  703 	.dw #0x0e40
      000230 0A 00                  704 	.dw #0x0a00
      000232 CA C1                  705 	.dw #0xcac1
      000234 CB 81                  706 	.dw #0xcb81
      000236 0B 40                  707 	.dw #0x0b40
      000238 C9 01                  708 	.dw #0xc901
      00023A 09 C0                  709 	.dw #0x09c0
      00023C 08 80                  710 	.dw #0x0880
      00023E C8 41                  711 	.dw #0xc841
      000240 D8 01                  712 	.dw #0xd801
      000242 18 C0                  713 	.dw #0x18c0
      000244 19 80                  714 	.dw #0x1980
      000246 D9 41                  715 	.dw #0xd941
      000248 1B 00                  716 	.dw #0x1b00
      00024A DB C1                  717 	.dw #0xdbc1
      00024C DA 81                  718 	.dw #0xda81
      00024E 1A 40                  719 	.dw #0x1a40
      000250 1E 00                  720 	.dw #0x1e00
      000252 DE C1                  721 	.dw #0xdec1
      000254 DF 81                  722 	.dw #0xdf81
      000256 1F 40                  723 	.dw #0x1f40
      000258 DD 01                  724 	.dw #0xdd01
      00025A 1D C0                  725 	.dw #0x1dc0
      00025C 1C 80                  726 	.dw #0x1c80
      00025E DC 41                  727 	.dw #0xdc41
      000260 14 00                  728 	.dw #0x1400
      000262 D4 C1                  729 	.dw #0xd4c1
      000264 D5 81                  730 	.dw #0xd581
      000266 15 40                  731 	.dw #0x1540
      000268 D7 01                  732 	.dw #0xd701
      00026A 17 C0                  733 	.dw #0x17c0
      00026C 16 80                  734 	.dw #0x1680
      00026E D6 41                  735 	.dw #0xd641
      000270 D2 01                  736 	.dw #0xd201
      000272 12 C0                  737 	.dw #0x12c0
      000274 13 80                  738 	.dw #0x1380
      000276 D3 41                  739 	.dw #0xd341
      000278 11 00                  740 	.dw #0x1100
      00027A D1 C1                  741 	.dw #0xd1c1
      00027C D0 81                  742 	.dw #0xd081
      00027E 10 40                  743 	.dw #0x1040
      000280 F0 01                  744 	.dw #0xf001
      000282 30 C0                  745 	.dw #0x30c0
      000284 31 80                  746 	.dw #0x3180
      000286 F1 41                  747 	.dw #0xf141
      000288 33 00                  748 	.dw #0x3300
      00028A F3 C1                  749 	.dw #0xf3c1
      00028C F2 81                  750 	.dw #0xf281
      00028E 32 40                  751 	.dw #0x3240
      000290 36 00                  752 	.dw #0x3600
      000292 F6 C1                  753 	.dw #0xf6c1
      000294 F7 81                  754 	.dw #0xf781
      000296 37 40                  755 	.dw #0x3740
      000298 F5 01                  756 	.dw #0xf501
      00029A 35 C0                  757 	.dw #0x35c0
      00029C 34 80                  758 	.dw #0x3480
      00029E F4 41                  759 	.dw #0xf441
      0002A0 3C 00                  760 	.dw #0x3c00
      0002A2 FC C1                  761 	.dw #0xfcc1
      0002A4 FD 81                  762 	.dw #0xfd81
      0002A6 3D 40                  763 	.dw #0x3d40
      0002A8 FF 01                  764 	.dw #0xff01
      0002AA 3F C0                  765 	.dw #0x3fc0
      0002AC 3E 80                  766 	.dw #0x3e80
      0002AE FE 41                  767 	.dw #0xfe41
      0002B0 FA 01                  768 	.dw #0xfa01
      0002B2 3A C0                  769 	.dw #0x3ac0
      0002B4 3B 80                  770 	.dw #0x3b80
      0002B6 FB 41                  771 	.dw #0xfb41
      0002B8 39 00                  772 	.dw #0x3900
      0002BA F9 C1                  773 	.dw #0xf9c1
      0002BC F8 81                  774 	.dw #0xf881
      0002BE 38 40                  775 	.dw #0x3840
      0002C0 28 00                  776 	.dw #0x2800
      0002C2 E8 C1                  777 	.dw #0xe8c1
      0002C4 E9 81                  778 	.dw #0xe981
      0002C6 29 40                  779 	.dw #0x2940
      0002C8 EB 01                  780 	.dw #0xeb01
      0002CA 2B C0                  781 	.dw #0x2bc0
      0002CC 2A 80                  782 	.dw #0x2a80
      0002CE EA 41                  783 	.dw #0xea41
      0002D0 EE 01                  784 	.dw #0xee01
      0002D2 2E C0                  785 	.dw #0x2ec0
      0002D4 2F 80                  786 	.dw #0x2f80
      0002D6 EF 41                  787 	.dw #0xef41
      0002D8 2D 00                  788 	.dw #0x2d00
      0002DA ED C1                  789 	.dw #0xedc1
      0002DC EC 81                  790 	.dw #0xec81
      0002DE 2C 40                  791 	.dw #0x2c40
      0002E0 E4 01                  792 	.dw #0xe401
      0002E2 24 C0                  793 	.dw #0x24c0
      0002E4 25 80                  794 	.dw #0x2580
      0002E6 E5 41                  795 	.dw #0xe541
      0002E8 27 00                  796 	.dw #0x2700
      0002EA E7 C1                  797 	.dw #0xe7c1
      0002EC E6 81                  798 	.dw #0xe681
      0002EE 26 40                  799 	.dw #0x2640
      0002F0 22 00                  800 	.dw #0x2200
      0002F2 E2 C1                  801 	.dw #0xe2c1
      0002F4 E3 81                  802 	.dw #0xe381
      0002F6 23 40                  803 	.dw #0x2340
      0002F8 E1 01                  804 	.dw #0xe101
      0002FA 21 C0                  805 	.dw #0x21c0
      0002FC 20 80                  806 	.dw #0x2080
      0002FE E0 41                  807 	.dw #0xe041
      000300 A0 01                  808 	.dw #0xa001
      000302 60 C0                  809 	.dw #0x60c0
      000304 61 80                  810 	.dw #0x6180
      000306 A1 41                  811 	.dw #0xa141
      000308 63 00                  812 	.dw #0x6300
      00030A A3 C1                  813 	.dw #0xa3c1
      00030C A2 81                  814 	.dw #0xa281
      00030E 62 40                  815 	.dw #0x6240
      000310 66 00                  816 	.dw #0x6600
      000312 A6 C1                  817 	.dw #0xa6c1
      000314 A7 81                  818 	.dw #0xa781
      000316 67 40                  819 	.dw #0x6740
      000318 A5 01                  820 	.dw #0xa501
      00031A 65 C0                  821 	.dw #0x65c0
      00031C 64 80                  822 	.dw #0x6480
      00031E A4 41                  823 	.dw #0xa441
      000320 6C 00                  824 	.dw #0x6c00
      000322 AC C1                  825 	.dw #0xacc1
      000324 AD 81                  826 	.dw #0xad81
      000326 6D 40                  827 	.dw #0x6d40
      000328 AF 01                  828 	.dw #0xaf01
      00032A 6F C0                  829 	.dw #0x6fc0
      00032C 6E 80                  830 	.dw #0x6e80
      00032E AE 41                  831 	.dw #0xae41
      000330 AA 01                  832 	.dw #0xaa01
      000332 6A C0                  833 	.dw #0x6ac0
      000334 6B 80                  834 	.dw #0x6b80
      000336 AB 41                  835 	.dw #0xab41
      000338 69 00                  836 	.dw #0x6900
      00033A A9 C1                  837 	.dw #0xa9c1
      00033C A8 81                  838 	.dw #0xa881
      00033E 68 40                  839 	.dw #0x6840
      000340 78 00                  840 	.dw #0x7800
      000342 B8 C1                  841 	.dw #0xb8c1
      000344 B9 81                  842 	.dw #0xb981
      000346 79 40                  843 	.dw #0x7940
      000348 BB 01                  844 	.dw #0xbb01
      00034A 7B C0                  845 	.dw #0x7bc0
      00034C 7A 80                  846 	.dw #0x7a80
      00034E BA 41                  847 	.dw #0xba41
      000350 BE 01                  848 	.dw #0xbe01
      000352 7E C0                  849 	.dw #0x7ec0
      000354 7F 80                  850 	.dw #0x7f80
      000356 BF 41                  851 	.dw #0xbf41
      000358 7D 00                  852 	.dw #0x7d00
      00035A BD C1                  853 	.dw #0xbdc1
      00035C BC 81                  854 	.dw #0xbc81
      00035E 7C 40                  855 	.dw #0x7c40
      000360 B4 01                  856 	.dw #0xb401
      000362 74 C0                  857 	.dw #0x74c0
      000364 75 80                  858 	.dw #0x7580
      000366 B5 41                  859 	.dw #0xb541
      000368 77 00                  860 	.dw #0x7700
      00036A B7 C1                  861 	.dw #0xb7c1
      00036C B6 81                  862 	.dw #0xb681
      00036E 76 40                  863 	.dw #0x7640
      000370 72 00                  864 	.dw #0x7200
      000372 B2 C1                  865 	.dw #0xb2c1
      000374 B3 81                  866 	.dw #0xb381
      000376 73 40                  867 	.dw #0x7340
      000378 B1 01                  868 	.dw #0xb101
      00037A 71 C0                  869 	.dw #0x71c0
      00037C 70 80                  870 	.dw #0x7080
      00037E B0 41                  871 	.dw #0xb041
      000380 50 00                  872 	.dw #0x5000
      000382 90 C1                  873 	.dw #0x90c1
      000384 91 81                  874 	.dw #0x9181
      000386 51 40                  875 	.dw #0x5140
      000388 93 01                  876 	.dw #0x9301
      00038A 53 C0                  877 	.dw #0x53c0
      00038C 52 80                  878 	.dw #0x5280
      00038E 92 41                  879 	.dw #0x9241
      000390 96 01                  880 	.dw #0x9601
      000392 56 C0                  881 	.dw #0x56c0
      000394 57 80                  882 	.dw #0x5780
      000396 97 41                  883 	.dw #0x9741
      000398 55 00                  884 	.dw #0x5500
      00039A 95 C1                  885 	.dw #0x95c1
      00039C 94 81                  886 	.dw #0x9481
      00039E 54 40                  887 	.dw #0x5440
      0003A0 9C 01                  888 	.dw #0x9c01
      0003A2 5C C0                  889 	.dw #0x5cc0
      0003A4 5D 80                  890 	.dw #0x5d80
      0003A6 9D 41                  891 	.dw #0x9d41
      0003A8 5F 00                  892 	.dw #0x5f00
      0003AA 9F C1                  893 	.dw #0x9fc1
      0003AC 9E 81                  894 	.dw #0x9e81
      0003AE 5E 40                  895 	.dw #0x5e40
      0003B0 5A 00                  896 	.dw #0x5a00
      0003B2 9A C1                  897 	.dw #0x9ac1
      0003B4 9B 81                  898 	.dw #0x9b81
      0003B6 5B 40                  899 	.dw #0x5b40
      0003B8 99 01                  900 	.dw #0x9901
      0003BA 59 C0                  901 	.dw #0x59c0
      0003BC 58 80                  902 	.dw #0x5880
      0003BE 98 41                  903 	.dw #0x9841
      0003C0 88 01                  904 	.dw #0x8801
      0003C2 48 C0                  905 	.dw #0x48c0
      0003C4 49 80                  906 	.dw #0x4980
      0003C6 89 41                  907 	.dw #0x8941
      0003C8 4B 00                  908 	.dw #0x4b00
      0003CA 8B C1                  909 	.dw #0x8bc1
      0003CC 8A 81                  910 	.dw #0x8a81
      0003CE 4A 40                  911 	.dw #0x4a40
      0003D0 4E 00                  912 	.dw #0x4e00
      0003D2 8E C1                  913 	.dw #0x8ec1
      0003D4 8F 81                  914 	.dw #0x8f81
      0003D6 4F 40                  915 	.dw #0x4f40
      0003D8 8D 01                  916 	.dw #0x8d01
      0003DA 4D C0                  917 	.dw #0x4dc0
      0003DC 4C 80                  918 	.dw #0x4c80
      0003DE 8C 41                  919 	.dw #0x8c41
      0003E0 44 00                  920 	.dw #0x4400
      0003E2 84 C1                  921 	.dw #0x84c1
      0003E4 85 81                  922 	.dw #0x8581
      0003E6 45 40                  923 	.dw #0x4540
      0003E8 87 01                  924 	.dw #0x8701
      0003EA 47 C0                  925 	.dw #0x47c0
      0003EC 46 80                  926 	.dw #0x4680
      0003EE 86 41                  927 	.dw #0x8641
      0003F0 82 01                  928 	.dw #0x8201
      0003F2 42 C0                  929 	.dw #0x42c0
      0003F4 43 80                  930 	.dw #0x4380
      0003F6 83 41                  931 	.dw #0x8341
      0003F8 41 00                  932 	.dw #0x4100
      0003FA 81 C1                  933 	.dw #0x81c1
      0003FC 80 81                  934 	.dw #0x8081
      0003FE 40 40                  935 	.dw #0x4040
                                    936 	.area CABS (ABS)
