                                      1 ;--------------------------------------------------------
                                      2 ; File Created by SDCC : free open source ISO C Compiler 
                                      3 ; Version 4.4.0 #14620 (MINGW64)
                                      4 ;--------------------------------------------------------
                                      5 	.module stm8s_itc
                                      6 	.optsdcc -mstm8
                                      7 	
                                      8 ;--------------------------------------------------------
                                      9 ; Public variables in this module
                                     10 ;--------------------------------------------------------
                                     11 	.globl _assert_failed
                                     12 	.globl _ITC_GetCPUCC
                                     13 	.globl _ITC_DeInit
                                     14 	.globl _ITC_GetSoftIntStatus
                                     15 	.globl _ITC_GetSoftwarePriority
                                     16 	.globl _ITC_SetSoftwarePriority
                                     17 ;--------------------------------------------------------
                                     18 ; ram data
                                     19 ;--------------------------------------------------------
                                     20 	.area DATA
                                     21 ;--------------------------------------------------------
                                     22 ; ram data
                                     23 ;--------------------------------------------------------
                                     24 	.area INITIALIZED
                                     25 ;--------------------------------------------------------
                                     26 ; absolute external ram data
                                     27 ;--------------------------------------------------------
                                     28 	.area DABS (ABS)
                                     29 
                                     30 ; default segment ordering for linker
                                     31 	.area HOME
                                     32 	.area GSINIT
                                     33 	.area GSFINAL
                                     34 	.area CONST
                                     35 	.area INITIALIZER
                                     36 	.area CODE
                                     37 
                                     38 ;--------------------------------------------------------
                                     39 ; global & static initialisations
                                     40 ;--------------------------------------------------------
                                     41 	.area HOME
                                     42 	.area GSINIT
                                     43 	.area GSFINAL
                                     44 	.area GSINIT
                                     45 ;--------------------------------------------------------
                                     46 ; Home
                                     47 ;--------------------------------------------------------
                                     48 	.area HOME
                                     49 	.area HOME
                                     50 ;--------------------------------------------------------
                                     51 ; code
                                     52 ;--------------------------------------------------------
                                     53 	.area CODE
                                     54 ;	./STM8S_StdPeriph_Lib/Libraries/STM8S_StdPeriph_Driver/src/stm8s_itc.c: 50: uint8_t ITC_GetCPUCC(void)
                                     55 ;	-----------------------------------------
                                     56 ;	 function ITC_GetCPUCC
                                     57 ;	-----------------------------------------
      000000                         58 _ITC_GetCPUCC:
                                     59 ;	./STM8S_StdPeriph_Lib/Libraries/STM8S_StdPeriph_Driver/src/stm8s_itc.c: 59: __asm__("push cc");
      000000 8A               [ 1]   60 	push	cc
                                     61 ;	./STM8S_StdPeriph_Lib/Libraries/STM8S_StdPeriph_Driver/src/stm8s_itc.c: 60: __asm__("pop a");
      000001 84               [ 1]   62 	pop	a
                                     63 ;	./STM8S_StdPeriph_Lib/Libraries/STM8S_StdPeriph_Driver/src/stm8s_itc.c: 65: }
      000002 81               [ 4]   64 	ret
                                     65 ;	./STM8S_StdPeriph_Lib/Libraries/STM8S_StdPeriph_Driver/src/stm8s_itc.c: 83: void ITC_DeInit(void)
                                     66 ;	-----------------------------------------
                                     67 ;	 function ITC_DeInit
                                     68 ;	-----------------------------------------
      000003                         69 _ITC_DeInit:
                                     70 ;	./STM8S_StdPeriph_Lib/Libraries/STM8S_StdPeriph_Driver/src/stm8s_itc.c: 85: ITC->ISPR1 = ITC_SPRX_RESET_VALUE;
      000003 35 FF 7F 70      [ 1]   71 	mov	0x7f70+0, #0xff
                                     72 ;	./STM8S_StdPeriph_Lib/Libraries/STM8S_StdPeriph_Driver/src/stm8s_itc.c: 86: ITC->ISPR2 = ITC_SPRX_RESET_VALUE;
      000007 35 FF 7F 71      [ 1]   73 	mov	0x7f71+0, #0xff
                                     74 ;	./STM8S_StdPeriph_Lib/Libraries/STM8S_StdPeriph_Driver/src/stm8s_itc.c: 87: ITC->ISPR3 = ITC_SPRX_RESET_VALUE;
      00000B 35 FF 7F 72      [ 1]   75 	mov	0x7f72+0, #0xff
                                     76 ;	./STM8S_StdPeriph_Lib/Libraries/STM8S_StdPeriph_Driver/src/stm8s_itc.c: 88: ITC->ISPR4 = ITC_SPRX_RESET_VALUE;
      00000F 35 FF 7F 73      [ 1]   77 	mov	0x7f73+0, #0xff
                                     78 ;	./STM8S_StdPeriph_Lib/Libraries/STM8S_StdPeriph_Driver/src/stm8s_itc.c: 89: ITC->ISPR5 = ITC_SPRX_RESET_VALUE;
      000013 35 FF 7F 74      [ 1]   79 	mov	0x7f74+0, #0xff
                                     80 ;	./STM8S_StdPeriph_Lib/Libraries/STM8S_StdPeriph_Driver/src/stm8s_itc.c: 90: ITC->ISPR6 = ITC_SPRX_RESET_VALUE;
      000017 35 FF 7F 75      [ 1]   81 	mov	0x7f75+0, #0xff
                                     82 ;	./STM8S_StdPeriph_Lib/Libraries/STM8S_StdPeriph_Driver/src/stm8s_itc.c: 91: ITC->ISPR7 = ITC_SPRX_RESET_VALUE;
      00001B 35 FF 7F 76      [ 1]   83 	mov	0x7f76+0, #0xff
                                     84 ;	./STM8S_StdPeriph_Lib/Libraries/STM8S_StdPeriph_Driver/src/stm8s_itc.c: 92: ITC->ISPR8 = ITC_SPRX_RESET_VALUE;
      00001F 35 FF 7F 77      [ 1]   85 	mov	0x7f77+0, #0xff
                                     86 ;	./STM8S_StdPeriph_Lib/Libraries/STM8S_StdPeriph_Driver/src/stm8s_itc.c: 93: }
      000023 81               [ 4]   87 	ret
                                     88 ;	./STM8S_StdPeriph_Lib/Libraries/STM8S_StdPeriph_Driver/src/stm8s_itc.c: 100: uint8_t ITC_GetSoftIntStatus(void)
                                     89 ;	-----------------------------------------
                                     90 ;	 function ITC_GetSoftIntStatus
                                     91 ;	-----------------------------------------
      000024                         92 _ITC_GetSoftIntStatus:
                                     93 ;	./STM8S_StdPeriph_Lib/Libraries/STM8S_StdPeriph_Driver/src/stm8s_itc.c: 102: return (uint8_t)(ITC_GetCPUCC() & CPU_CC_I1I0);
      000024 CDr00r00         [ 4]   94 	call	_ITC_GetCPUCC
      000027 A4 28            [ 1]   95 	and	a, #0x28
                                     96 ;	./STM8S_StdPeriph_Lib/Libraries/STM8S_StdPeriph_Driver/src/stm8s_itc.c: 103: }
      000029 81               [ 4]   97 	ret
                                     98 ;	./STM8S_StdPeriph_Lib/Libraries/STM8S_StdPeriph_Driver/src/stm8s_itc.c: 110: ITC_PriorityLevel_TypeDef ITC_GetSoftwarePriority(ITC_Irq_TypeDef IrqNum)
                                     99 ;	-----------------------------------------
                                    100 ;	 function ITC_GetSoftwarePriority
                                    101 ;	-----------------------------------------
      00002A                        102 _ITC_GetSoftwarePriority:
      00002A 52 05            [ 2]  103 	sub	sp, #5
      00002C 6B 05            [ 1]  104 	ld	(0x05, sp), a
                                    105 ;	./STM8S_StdPeriph_Lib/Libraries/STM8S_StdPeriph_Driver/src/stm8s_itc.c: 112: uint8_t Value = 0;
      00002E 0F 01            [ 1]  106 	clr	(0x01, sp)
                                    107 ;	./STM8S_StdPeriph_Lib/Libraries/STM8S_StdPeriph_Driver/src/stm8s_itc.c: 116: assert_param(IS_ITC_IRQ_OK((uint8_t)IrqNum));
      000030 7B 05            [ 1]  108 	ld	a, (0x05, sp)
      000032 A1 18            [ 1]  109 	cp	a, #0x18
      000034 22 04            [ 1]  110 	jrugt	00142$
      000036 0F 02            [ 1]  111 	clr	(0x02, sp)
      000038 20 04            [ 2]  112 	jra	00143$
      00003A                        113 00142$:
      00003A A6 01            [ 1]  114 	ld	a, #0x01
      00003C 6B 02            [ 1]  115 	ld	(0x02, sp), a
      00003E                        116 00143$:
      00003E 0D 02            [ 1]  117 	tnz	(0x02, sp)
      000040 27 0C            [ 1]  118 	jreq	00127$
      000042 4B 74            [ 1]  119 	push	#0x74
      000044 5F               [ 1]  120 	clrw	x
      000045 89               [ 2]  121 	pushw	x
      000046 4B 00            [ 1]  122 	push	#0x00
      000048 AEr00r00         [ 2]  123 	ldw	x, #(___str_0+0)
      00004B CDr00r00         [ 4]  124 	call	_assert_failed
      00004E                        125 00127$:
                                    126 ;	./STM8S_StdPeriph_Lib/Libraries/STM8S_StdPeriph_Driver/src/stm8s_itc.c: 119: Mask = (uint8_t)(0x03U << (((uint8_t)IrqNum % 4U) * 2U));
      00004E 7B 05            [ 1]  127 	ld	a, (0x05, sp)
      000050 A4 03            [ 1]  128 	and	a, #0x03
      000052 48               [ 1]  129 	sll	a
      000053 6B 03            [ 1]  130 	ld	(0x03, sp), a
      000055 A6 03            [ 1]  131 	ld	a, #0x03
      000057 6B 04            [ 1]  132 	ld	(0x04, sp), a
      000059 7B 03            [ 1]  133 	ld	a, (0x03, sp)
      00005B 27 05            [ 1]  134 	jreq	00146$
      00005D                        135 00145$:
      00005D 08 04            [ 1]  136 	sll	(0x04, sp)
      00005F 4A               [ 1]  137 	dec	a
      000060 26 FB            [ 1]  138 	jrne	00145$
      000062                        139 00146$:
                                    140 ;	./STM8S_StdPeriph_Lib/Libraries/STM8S_StdPeriph_Driver/src/stm8s_itc.c: 121: switch (IrqNum)
      000062 7B 02            [ 1]  141 	ld	a, (0x02, sp)
      000064 26 78            [ 1]  142 	jrne	00123$
      000066 5F               [ 1]  143 	clrw	x
      000067 7B 05            [ 1]  144 	ld	a, (0x05, sp)
      000069 97               [ 1]  145 	ld	xl, a
      00006A 58               [ 2]  146 	sllw	x
      00006B DEu00u6F         [ 2]  147 	ldw	x, (#00148$, x)
      00006E FC               [ 2]  148 	jp	(x)
      00006F                        149 00148$:
      00006Fr00rA1                  150 	.dw	#00104$
      000071r00rA1                  151 	.dw	#00104$
      000073r00rA1                  152 	.dw	#00104$
      000075r00rA1                  153 	.dw	#00104$
      000077r00rAA                  154 	.dw	#00108$
      000079r00rAA                  155 	.dw	#00108$
      00007Br00rAA                  156 	.dw	#00108$
      00007Dr00rAA                  157 	.dw	#00108$
      00007Fr00rDE                  158 	.dw	#00123$
      000081r00rDE                  159 	.dw	#00123$
      000083r00rB3                  160 	.dw	#00110$
      000085r00rB3                  161 	.dw	#00110$
      000087r00rBC                  162 	.dw	#00114$
      000089r00rBC                  163 	.dw	#00114$
      00008Br00rBC                  164 	.dw	#00114$
      00008Dr00rBC                  165 	.dw	#00114$
      00008Fr00rC5                  166 	.dw	#00118$
      000091r00rC5                  167 	.dw	#00118$
      000093r00rC5                  168 	.dw	#00118$
      000095r00rC5                  169 	.dw	#00118$
      000097r00rDE                  170 	.dw	#00123$
      000099r00rDE                  171 	.dw	#00123$
      00009Br00rCE                  172 	.dw	#00120$
      00009Dr00rCE                  173 	.dw	#00120$
      00009Fr00rD7                  174 	.dw	#00121$
                                    175 ;	./STM8S_StdPeriph_Lib/Libraries/STM8S_StdPeriph_Driver/src/stm8s_itc.c: 126: case ITC_IRQ_PORTA:
      0000A1                        176 00104$:
                                    177 ;	./STM8S_StdPeriph_Lib/Libraries/STM8S_StdPeriph_Driver/src/stm8s_itc.c: 127: Value = (uint8_t)(ITC->ISPR1 & Mask); /* Read software priority */
      0000A1 C6 7F 70         [ 1]  178 	ld	a, 0x7f70
      0000A4 14 04            [ 1]  179 	and	a, (0x04, sp)
      0000A6 6B 01            [ 1]  180 	ld	(0x01, sp), a
                                    181 ;	./STM8S_StdPeriph_Lib/Libraries/STM8S_StdPeriph_Driver/src/stm8s_itc.c: 128: break;
      0000A8 20 34            [ 2]  182 	jra	00123$
                                    183 ;	./STM8S_StdPeriph_Lib/Libraries/STM8S_StdPeriph_Driver/src/stm8s_itc.c: 133: case ITC_IRQ_PORTE:
      0000AA                        184 00108$:
                                    185 ;	./STM8S_StdPeriph_Lib/Libraries/STM8S_StdPeriph_Driver/src/stm8s_itc.c: 134: Value = (uint8_t)(ITC->ISPR2 & Mask); /* Read software priority */
      0000AA C6 7F 71         [ 1]  186 	ld	a, 0x7f71
      0000AD 14 04            [ 1]  187 	and	a, (0x04, sp)
      0000AF 6B 01            [ 1]  188 	ld	(0x01, sp), a
                                    189 ;	./STM8S_StdPeriph_Lib/Libraries/STM8S_StdPeriph_Driver/src/stm8s_itc.c: 135: break;
      0000B1 20 2B            [ 2]  190 	jra	00123$
                                    191 ;	./STM8S_StdPeriph_Lib/Libraries/STM8S_StdPeriph_Driver/src/stm8s_itc.c: 145: case ITC_IRQ_TIM1_OVF:
      0000B3                        192 00110$:
                                    193 ;	./STM8S_StdPeriph_Lib/Libraries/STM8S_StdPeriph_Driver/src/stm8s_itc.c: 146: Value = (uint8_t)(ITC->ISPR3 & Mask); /* Read software priority */
      0000B3 C6 7F 72         [ 1]  194 	ld	a, 0x7f72
      0000B6 14 04            [ 1]  195 	and	a, (0x04, sp)
      0000B8 6B 01            [ 1]  196 	ld	(0x01, sp), a
                                    197 ;	./STM8S_StdPeriph_Lib/Libraries/STM8S_StdPeriph_Driver/src/stm8s_itc.c: 147: break;
      0000BA 20 22            [ 2]  198 	jra	00123$
                                    199 ;	./STM8S_StdPeriph_Lib/Libraries/STM8S_StdPeriph_Driver/src/stm8s_itc.c: 157: case ITC_IRQ_TIM3_OVF:
      0000BC                        200 00114$:
                                    201 ;	./STM8S_StdPeriph_Lib/Libraries/STM8S_StdPeriph_Driver/src/stm8s_itc.c: 158: Value = (uint8_t)(ITC->ISPR4 & Mask); /* Read software priority */
      0000BC C6 7F 73         [ 1]  202 	ld	a, 0x7f73
      0000BF 14 04            [ 1]  203 	and	a, (0x04, sp)
      0000C1 6B 01            [ 1]  204 	ld	(0x01, sp), a
                                    205 ;	./STM8S_StdPeriph_Lib/Libraries/STM8S_StdPeriph_Driver/src/stm8s_itc.c: 159: break;
      0000C3 20 19            [ 2]  206 	jra	00123$
                                    207 ;	./STM8S_StdPeriph_Lib/Libraries/STM8S_StdPeriph_Driver/src/stm8s_itc.c: 171: case ITC_IRQ_I2C:
      0000C5                        208 00118$:
                                    209 ;	./STM8S_StdPeriph_Lib/Libraries/STM8S_StdPeriph_Driver/src/stm8s_itc.c: 172: Value = (uint8_t)(ITC->ISPR5 & Mask); /* Read software priority */
      0000C5 C6 7F 74         [ 1]  210 	ld	a, 0x7f74
      0000C8 14 04            [ 1]  211 	and	a, (0x04, sp)
      0000CA 6B 01            [ 1]  212 	ld	(0x01, sp), a
                                    213 ;	./STM8S_StdPeriph_Lib/Libraries/STM8S_StdPeriph_Driver/src/stm8s_itc.c: 173: break;
      0000CC 20 10            [ 2]  214 	jra	00123$
                                    215 ;	./STM8S_StdPeriph_Lib/Libraries/STM8S_StdPeriph_Driver/src/stm8s_itc.c: 192: case ITC_IRQ_TIM4_OVF:
      0000CE                        216 00120$:
                                    217 ;	./STM8S_StdPeriph_Lib/Libraries/STM8S_StdPeriph_Driver/src/stm8s_itc.c: 194: Value = (uint8_t)(ITC->ISPR6 & Mask); /* Read software priority */
      0000CE C6 7F 75         [ 1]  218 	ld	a, 0x7f75
      0000D1 14 04            [ 1]  219 	and	a, (0x04, sp)
      0000D3 6B 01            [ 1]  220 	ld	(0x01, sp), a
                                    221 ;	./STM8S_StdPeriph_Lib/Libraries/STM8S_StdPeriph_Driver/src/stm8s_itc.c: 195: break;
      0000D5 20 07            [ 2]  222 	jra	00123$
                                    223 ;	./STM8S_StdPeriph_Lib/Libraries/STM8S_StdPeriph_Driver/src/stm8s_itc.c: 197: case ITC_IRQ_EEPROM_EEC:
      0000D7                        224 00121$:
                                    225 ;	./STM8S_StdPeriph_Lib/Libraries/STM8S_StdPeriph_Driver/src/stm8s_itc.c: 198: Value = (uint8_t)(ITC->ISPR7 & Mask); /* Read software priority */
      0000D7 C6 7F 76         [ 1]  226 	ld	a, 0x7f76
      0000DA 14 04            [ 1]  227 	and	a, (0x04, sp)
      0000DC 6B 01            [ 1]  228 	ld	(0x01, sp), a
                                    229 ;	./STM8S_StdPeriph_Lib/Libraries/STM8S_StdPeriph_Driver/src/stm8s_itc.c: 203: }
      0000DE                        230 00123$:
                                    231 ;	./STM8S_StdPeriph_Lib/Libraries/STM8S_StdPeriph_Driver/src/stm8s_itc.c: 205: Value >>= (uint8_t)(((uint8_t)IrqNum % 4u) * 2u);
      0000DE 7B 01            [ 1]  232 	ld	a, (0x01, sp)
      0000E0 88               [ 1]  233 	push	a
      0000E1 7B 04            [ 1]  234 	ld	a, (0x04, sp)
      0000E3 27 05            [ 1]  235 	jreq	00150$
      0000E5                        236 00149$:
      0000E5 04 01            [ 1]  237 	srl	(1, sp)
      0000E7 4A               [ 1]  238 	dec	a
      0000E8 26 FB            [ 1]  239 	jrne	00149$
      0000EA                        240 00150$:
      0000EA 84               [ 1]  241 	pop	a
                                    242 ;	./STM8S_StdPeriph_Lib/Libraries/STM8S_StdPeriph_Driver/src/stm8s_itc.c: 207: return((ITC_PriorityLevel_TypeDef)Value);
                                    243 ;	./STM8S_StdPeriph_Lib/Libraries/STM8S_StdPeriph_Driver/src/stm8s_itc.c: 208: }
      0000EB 5B 05            [ 2]  244 	addw	sp, #5
      0000ED 81               [ 4]  245 	ret
                                    246 ;	./STM8S_StdPeriph_Lib/Libraries/STM8S_StdPeriph_Driver/src/stm8s_itc.c: 223: void ITC_SetSoftwarePriority(ITC_Irq_TypeDef IrqNum, ITC_PriorityLevel_TypeDef PriorityValue)
                                    247 ;	-----------------------------------------
                                    248 ;	 function ITC_SetSoftwarePriority
                                    249 ;	-----------------------------------------
      0000EE                        250 _ITC_SetSoftwarePriority:
      0000EE 52 04            [ 2]  251 	sub	sp, #4
                                    252 ;	./STM8S_StdPeriph_Lib/Libraries/STM8S_StdPeriph_Driver/src/stm8s_itc.c: 229: assert_param(IS_ITC_IRQ_OK((uint8_t)IrqNum));
      0000F0 6B 04            [ 1]  253 	ld	(0x04, sp), a
      0000F2 A1 18            [ 1]  254 	cp	a, #0x18
      0000F4 22 04            [ 1]  255 	jrugt	00190$
      0000F6 0F 01            [ 1]  256 	clr	(0x01, sp)
      0000F8 20 04            [ 2]  257 	jra	00191$
      0000FA                        258 00190$:
      0000FA A6 01            [ 1]  259 	ld	a, #0x01
      0000FC 6B 01            [ 1]  260 	ld	(0x01, sp), a
      0000FE                        261 00191$:
      0000FE 0D 01            [ 1]  262 	tnz	(0x01, sp)
      000100 27 0C            [ 1]  263 	jreq	00127$
      000102 4B E5            [ 1]  264 	push	#0xe5
      000104 5F               [ 1]  265 	clrw	x
      000105 89               [ 2]  266 	pushw	x
      000106 4B 00            [ 1]  267 	push	#0x00
      000108 AEr00r00         [ 2]  268 	ldw	x, #(___str_0+0)
      00010B CDr00r00         [ 4]  269 	call	_assert_failed
      00010E                        270 00127$:
                                    271 ;	./STM8S_StdPeriph_Lib/Libraries/STM8S_StdPeriph_Driver/src/stm8s_itc.c: 230: assert_param(IS_ITC_PRIORITY_OK(PriorityValue));
      00010E 7B 07            [ 1]  272 	ld	a, (0x07, sp)
      000110 A1 02            [ 1]  273 	cp	a, #0x02
      000112 27 1B            [ 1]  274 	jreq	00129$
      000114 7B 07            [ 1]  275 	ld	a, (0x07, sp)
      000116 4A               [ 1]  276 	dec	a
      000117 27 16            [ 1]  277 	jreq	00129$
      000119 0D 07            [ 1]  278 	tnz	(0x07, sp)
      00011B 27 12            [ 1]  279 	jreq	00129$
      00011D 7B 07            [ 1]  280 	ld	a, (0x07, sp)
      00011F A1 03            [ 1]  281 	cp	a, #0x03
      000121 27 0C            [ 1]  282 	jreq	00129$
      000123 4B E6            [ 1]  283 	push	#0xe6
      000125 5F               [ 1]  284 	clrw	x
      000126 89               [ 2]  285 	pushw	x
      000127 4B 00            [ 1]  286 	push	#0x00
      000129 AEr00r00         [ 2]  287 	ldw	x, #(___str_0+0)
      00012C CDr00r00         [ 4]  288 	call	_assert_failed
      00012F                        289 00129$:
                                    290 ;	./STM8S_StdPeriph_Lib/Libraries/STM8S_StdPeriph_Driver/src/stm8s_itc.c: 233: assert_param(IS_ITC_INTERRUPTS_DISABLED);
      00012F CDr00r24         [ 4]  291 	call	_ITC_GetSoftIntStatus
      000132 A1 28            [ 1]  292 	cp	a, #0x28
      000134 27 0C            [ 1]  293 	jreq	00140$
      000136 4B E9            [ 1]  294 	push	#0xe9
      000138 5F               [ 1]  295 	clrw	x
      000139 89               [ 2]  296 	pushw	x
      00013A 4B 00            [ 1]  297 	push	#0x00
      00013C AEr00r00         [ 2]  298 	ldw	x, #(___str_0+0)
      00013F CDr00r00         [ 4]  299 	call	_assert_failed
      000142                        300 00140$:
                                    301 ;	./STM8S_StdPeriph_Lib/Libraries/STM8S_StdPeriph_Driver/src/stm8s_itc.c: 237: Mask = (uint8_t)(~(uint8_t)(0x03U << (((uint8_t)IrqNum % 4U) * 2U)));
      000142 7B 04            [ 1]  302 	ld	a, (0x04, sp)
      000144 A4 03            [ 1]  303 	and	a, #0x03
      000146 48               [ 1]  304 	sll	a
      000147 97               [ 1]  305 	ld	xl, a
      000148 A6 03            [ 1]  306 	ld	a, #0x03
      00014A 88               [ 1]  307 	push	a
      00014B 9F               [ 1]  308 	ld	a, xl
      00014C 4D               [ 1]  309 	tnz	a
      00014D 27 05            [ 1]  310 	jreq	00207$
      00014F                        311 00206$:
      00014F 08 01            [ 1]  312 	sll	(1, sp)
      000151 4A               [ 1]  313 	dec	a
      000152 26 FB            [ 1]  314 	jrne	00206$
      000154                        315 00207$:
      000154 84               [ 1]  316 	pop	a
      000155 43               [ 1]  317 	cpl	a
      000156 6B 02            [ 1]  318 	ld	(0x02, sp), a
                                    319 ;	./STM8S_StdPeriph_Lib/Libraries/STM8S_StdPeriph_Driver/src/stm8s_itc.c: 240: NewPriority = (uint8_t)((uint8_t)(PriorityValue) << (((uint8_t)IrqNum % 4U) * 2U));
      000158 7B 07            [ 1]  320 	ld	a, (0x07, sp)
      00015A 88               [ 1]  321 	push	a
      00015B 9F               [ 1]  322 	ld	a, xl
      00015C 4D               [ 1]  323 	tnz	a
      00015D 27 05            [ 1]  324 	jreq	00209$
      00015F                        325 00208$:
      00015F 08 01            [ 1]  326 	sll	(1, sp)
      000161 4A               [ 1]  327 	dec	a
      000162 26 FB            [ 1]  328 	jrne	00208$
      000164                        329 00209$:
      000164 84               [ 1]  330 	pop	a
      000165 6B 03            [ 1]  331 	ld	(0x03, sp), a
                                    332 ;	./STM8S_StdPeriph_Lib/Libraries/STM8S_StdPeriph_Driver/src/stm8s_itc.c: 242: switch (IrqNum)
      000167 7B 01            [ 1]  333 	ld	a, (0x01, sp)
      000169 27 03            [ 1]  334 	jreq	00210$
      00016B CCr02r25         [ 2]  335 	jp	00124$
      00016E                        336 00210$:
      00016E 5F               [ 1]  337 	clrw	x
      00016F 7B 04            [ 1]  338 	ld	a, (0x04, sp)
      000171 97               [ 1]  339 	ld	xl, a
      000172 58               [ 2]  340 	sllw	x
      000173 DEu01u77         [ 2]  341 	ldw	x, (#00211$, x)
      000176 FC               [ 2]  342 	jp	(x)
      000177                        343 00211$:
      000177r01rA9                  344 	.dw	#00104$
      000179r01rA9                  345 	.dw	#00104$
      00017Br01rA9                  346 	.dw	#00104$
      00017Dr01rA9                  347 	.dw	#00104$
      00017Fr01rBB                  348 	.dw	#00108$
      000181r01rBB                  349 	.dw	#00108$
      000183r01rBB                  350 	.dw	#00108$
      000185r01rBB                  351 	.dw	#00108$
      000187r02r25                  352 	.dw	#00124$
      000189r02r25                  353 	.dw	#00124$
      00018Br01rCD                  354 	.dw	#00110$
      00018Dr01rCD                  355 	.dw	#00110$
      00018Fr01rDF                  356 	.dw	#00114$
      000191r01rDF                  357 	.dw	#00114$
      000193r01rDF                  358 	.dw	#00114$
      000195r01rDF                  359 	.dw	#00114$
      000197r01rF1                  360 	.dw	#00118$
      000199r01rF1                  361 	.dw	#00118$
      00019Br01rF1                  362 	.dw	#00118$
      00019Dr01rF1                  363 	.dw	#00118$
      00019Fr02r25                  364 	.dw	#00124$
      0001A1r02r25                  365 	.dw	#00124$
      0001A3r02r03                  366 	.dw	#00120$
      0001A5r02r03                  367 	.dw	#00120$
      0001A7r02r15                  368 	.dw	#00121$
                                    369 ;	./STM8S_StdPeriph_Lib/Libraries/STM8S_StdPeriph_Driver/src/stm8s_itc.c: 247: case ITC_IRQ_PORTA:
      0001A9                        370 00104$:
                                    371 ;	./STM8S_StdPeriph_Lib/Libraries/STM8S_StdPeriph_Driver/src/stm8s_itc.c: 248: ITC->ISPR1 &= Mask;
      0001A9 C6 7F 70         [ 1]  372 	ld	a, 0x7f70
      0001AC 14 02            [ 1]  373 	and	a, (0x02, sp)
      0001AE C7 7F 70         [ 1]  374 	ld	0x7f70, a
                                    375 ;	./STM8S_StdPeriph_Lib/Libraries/STM8S_StdPeriph_Driver/src/stm8s_itc.c: 249: ITC->ISPR1 |= NewPriority;
      0001B1 C6 7F 70         [ 1]  376 	ld	a, 0x7f70
      0001B4 1A 03            [ 1]  377 	or	a, (0x03, sp)
      0001B6 C7 7F 70         [ 1]  378 	ld	0x7f70, a
                                    379 ;	./STM8S_StdPeriph_Lib/Libraries/STM8S_StdPeriph_Driver/src/stm8s_itc.c: 250: break;
      0001B9 20 6A            [ 2]  380 	jra	00124$
                                    381 ;	./STM8S_StdPeriph_Lib/Libraries/STM8S_StdPeriph_Driver/src/stm8s_itc.c: 255: case ITC_IRQ_PORTE:
      0001BB                        382 00108$:
                                    383 ;	./STM8S_StdPeriph_Lib/Libraries/STM8S_StdPeriph_Driver/src/stm8s_itc.c: 256: ITC->ISPR2 &= Mask;
      0001BB C6 7F 71         [ 1]  384 	ld	a, 0x7f71
      0001BE 14 02            [ 1]  385 	and	a, (0x02, sp)
      0001C0 C7 7F 71         [ 1]  386 	ld	0x7f71, a
                                    387 ;	./STM8S_StdPeriph_Lib/Libraries/STM8S_StdPeriph_Driver/src/stm8s_itc.c: 257: ITC->ISPR2 |= NewPriority;
      0001C3 C6 7F 71         [ 1]  388 	ld	a, 0x7f71
      0001C6 1A 03            [ 1]  389 	or	a, (0x03, sp)
      0001C8 C7 7F 71         [ 1]  390 	ld	0x7f71, a
                                    391 ;	./STM8S_StdPeriph_Lib/Libraries/STM8S_StdPeriph_Driver/src/stm8s_itc.c: 258: break;
      0001CB 20 58            [ 2]  392 	jra	00124$
                                    393 ;	./STM8S_StdPeriph_Lib/Libraries/STM8S_StdPeriph_Driver/src/stm8s_itc.c: 268: case ITC_IRQ_TIM1_OVF:
      0001CD                        394 00110$:
                                    395 ;	./STM8S_StdPeriph_Lib/Libraries/STM8S_StdPeriph_Driver/src/stm8s_itc.c: 269: ITC->ISPR3 &= Mask;
      0001CD C6 7F 72         [ 1]  396 	ld	a, 0x7f72
      0001D0 14 02            [ 1]  397 	and	a, (0x02, sp)
      0001D2 C7 7F 72         [ 1]  398 	ld	0x7f72, a
                                    399 ;	./STM8S_StdPeriph_Lib/Libraries/STM8S_StdPeriph_Driver/src/stm8s_itc.c: 270: ITC->ISPR3 |= NewPriority;
      0001D5 C6 7F 72         [ 1]  400 	ld	a, 0x7f72
      0001D8 1A 03            [ 1]  401 	or	a, (0x03, sp)
      0001DA C7 7F 72         [ 1]  402 	ld	0x7f72, a
                                    403 ;	./STM8S_StdPeriph_Lib/Libraries/STM8S_StdPeriph_Driver/src/stm8s_itc.c: 271: break;
      0001DD 20 46            [ 2]  404 	jra	00124$
                                    405 ;	./STM8S_StdPeriph_Lib/Libraries/STM8S_StdPeriph_Driver/src/stm8s_itc.c: 281: case ITC_IRQ_TIM3_OVF:
      0001DF                        406 00114$:
                                    407 ;	./STM8S_StdPeriph_Lib/Libraries/STM8S_StdPeriph_Driver/src/stm8s_itc.c: 282: ITC->ISPR4 &= Mask;
      0001DF C6 7F 73         [ 1]  408 	ld	a, 0x7f73
      0001E2 14 02            [ 1]  409 	and	a, (0x02, sp)
      0001E4 C7 7F 73         [ 1]  410 	ld	0x7f73, a
                                    411 ;	./STM8S_StdPeriph_Lib/Libraries/STM8S_StdPeriph_Driver/src/stm8s_itc.c: 283: ITC->ISPR4 |= NewPriority;
      0001E7 C6 7F 73         [ 1]  412 	ld	a, 0x7f73
      0001EA 1A 03            [ 1]  413 	or	a, (0x03, sp)
      0001EC C7 7F 73         [ 1]  414 	ld	0x7f73, a
                                    415 ;	./STM8S_StdPeriph_Lib/Libraries/STM8S_StdPeriph_Driver/src/stm8s_itc.c: 284: break;
      0001EF 20 34            [ 2]  416 	jra	00124$
                                    417 ;	./STM8S_StdPeriph_Lib/Libraries/STM8S_StdPeriph_Driver/src/stm8s_itc.c: 296: case ITC_IRQ_I2C:
      0001F1                        418 00118$:
                                    419 ;	./STM8S_StdPeriph_Lib/Libraries/STM8S_StdPeriph_Driver/src/stm8s_itc.c: 297: ITC->ISPR5 &= Mask;
      0001F1 C6 7F 74         [ 1]  420 	ld	a, 0x7f74
      0001F4 14 02            [ 1]  421 	and	a, (0x02, sp)
      0001F6 C7 7F 74         [ 1]  422 	ld	0x7f74, a
                                    423 ;	./STM8S_StdPeriph_Lib/Libraries/STM8S_StdPeriph_Driver/src/stm8s_itc.c: 298: ITC->ISPR5 |= NewPriority;
      0001F9 C6 7F 74         [ 1]  424 	ld	a, 0x7f74
      0001FC 1A 03            [ 1]  425 	or	a, (0x03, sp)
      0001FE C7 7F 74         [ 1]  426 	ld	0x7f74, a
                                    427 ;	./STM8S_StdPeriph_Lib/Libraries/STM8S_StdPeriph_Driver/src/stm8s_itc.c: 299: break;
      000201 20 22            [ 2]  428 	jra	00124$
                                    429 ;	./STM8S_StdPeriph_Lib/Libraries/STM8S_StdPeriph_Driver/src/stm8s_itc.c: 321: case ITC_IRQ_TIM4_OVF:
      000203                        430 00120$:
                                    431 ;	./STM8S_StdPeriph_Lib/Libraries/STM8S_StdPeriph_Driver/src/stm8s_itc.c: 323: ITC->ISPR6 &= Mask;
      000203 C6 7F 75         [ 1]  432 	ld	a, 0x7f75
      000206 14 02            [ 1]  433 	and	a, (0x02, sp)
      000208 C7 7F 75         [ 1]  434 	ld	0x7f75, a
                                    435 ;	./STM8S_StdPeriph_Lib/Libraries/STM8S_StdPeriph_Driver/src/stm8s_itc.c: 324: ITC->ISPR6 |= NewPriority;
      00020B C6 7F 75         [ 1]  436 	ld	a, 0x7f75
      00020E 1A 03            [ 1]  437 	or	a, (0x03, sp)
      000210 C7 7F 75         [ 1]  438 	ld	0x7f75, a
                                    439 ;	./STM8S_StdPeriph_Lib/Libraries/STM8S_StdPeriph_Driver/src/stm8s_itc.c: 325: break;
      000213 20 10            [ 2]  440 	jra	00124$
                                    441 ;	./STM8S_StdPeriph_Lib/Libraries/STM8S_StdPeriph_Driver/src/stm8s_itc.c: 327: case ITC_IRQ_EEPROM_EEC:
      000215                        442 00121$:
                                    443 ;	./STM8S_StdPeriph_Lib/Libraries/STM8S_StdPeriph_Driver/src/stm8s_itc.c: 328: ITC->ISPR7 &= Mask;
      000215 C6 7F 76         [ 1]  444 	ld	a, 0x7f76
      000218 14 02            [ 1]  445 	and	a, (0x02, sp)
      00021A C7 7F 76         [ 1]  446 	ld	0x7f76, a
                                    447 ;	./STM8S_StdPeriph_Lib/Libraries/STM8S_StdPeriph_Driver/src/stm8s_itc.c: 329: ITC->ISPR7 |= NewPriority;
      00021D C6 7F 76         [ 1]  448 	ld	a, 0x7f76
      000220 1A 03            [ 1]  449 	or	a, (0x03, sp)
      000222 C7 7F 76         [ 1]  450 	ld	0x7f76, a
                                    451 ;	./STM8S_StdPeriph_Lib/Libraries/STM8S_StdPeriph_Driver/src/stm8s_itc.c: 334: }
      000225                        452 00124$:
                                    453 ;	./STM8S_StdPeriph_Lib/Libraries/STM8S_StdPeriph_Driver/src/stm8s_itc.c: 335: }
      000225 5B 04            [ 2]  454 	addw	sp, #4
      000227 85               [ 2]  455 	popw	x
      000228 84               [ 1]  456 	pop	a
      000229 FC               [ 2]  457 	jp	(x)
                                    458 	.area CODE
                                    459 	.area CONST
                                    460 	.area CONST
      000000                        461 ___str_0:
      000000 2E 2F 53 54 4D 38 53   462 	.ascii "./STM8S_StdPeriph_Lib/Libraries/STM8S_StdPeriph_Driver/src/s"
             5F 53 74 64 50 65 72
             69 70 68 5F 4C 69 62
             2F 4C 69 62 72 61 72
             69 65 73 2F 53 54 4D
             38 53 5F 53 74 64 50
             65 72 69 70 68 5F 44
             72 69 76 65 72 2F 73
             72 63 2F 73
      00003C 74 6D 38 73 5F 69 74   463 	.ascii "tm8s_itc.c"
             63 2E 63
      000046 00                     464 	.db 0x00
                                    465 	.area CODE
                                    466 	.area INITIALIZER
                                    467 	.area CABS (ABS)
