                                      1 ;--------------------------------------------------------
                                      2 ; File Created by SDCC : free open source ISO C Compiler 
                                      3 ; Version 4.3.0 #14184 (MINGW64)
                                      4 ;--------------------------------------------------------
                                      5 	.module stm8s_beep
                                      6 	.optsdcc -mstm8
                                      7 	
                                      8 ;--------------------------------------------------------
                                      9 ; Public variables in this module
                                     10 ;--------------------------------------------------------
                                     11 	.globl _assert_failed
                                     12 	.globl _BEEP_DeInit
                                     13 	.globl _BEEP_Init
                                     14 	.globl _BEEP_Cmd
                                     15 	.globl _BEEP_LSICalibrationConfig
                                     16 ;--------------------------------------------------------
                                     17 ; ram data
                                     18 ;--------------------------------------------------------
                                     19 	.area DATA
                                     20 ;--------------------------------------------------------
                                     21 ; ram data
                                     22 ;--------------------------------------------------------
                                     23 	.area INITIALIZED
                                     24 ;--------------------------------------------------------
                                     25 ; absolute external ram data
                                     26 ;--------------------------------------------------------
                                     27 	.area DABS (ABS)
                                     28 
                                     29 ; default segment ordering for linker
                                     30 	.area HOME
                                     31 	.area GSINIT
                                     32 	.area GSFINAL
                                     33 	.area CONST
                                     34 	.area INITIALIZER
                                     35 	.area CODE
                                     36 
                                     37 ;--------------------------------------------------------
                                     38 ; global & static initialisations
                                     39 ;--------------------------------------------------------
                                     40 	.area HOME
                                     41 	.area GSINIT
                                     42 	.area GSFINAL
                                     43 	.area GSINIT
                                     44 ;--------------------------------------------------------
                                     45 ; Home
                                     46 ;--------------------------------------------------------
                                     47 	.area HOME
                                     48 	.area HOME
                                     49 ;--------------------------------------------------------
                                     50 ; code
                                     51 ;--------------------------------------------------------
                                     52 	.area CODE
                                     53 ;	./STM8S_StdPeriph_Lib/Libraries/STM8S_StdPeriph_Driver/src/stm8s_beep.c: 54: void BEEP_DeInit(void)
                                     54 ;	-----------------------------------------
                                     55 ;	 function BEEP_DeInit
                                     56 ;	-----------------------------------------
      000000                         57 _BEEP_DeInit:
                                     58 ;	./STM8S_StdPeriph_Lib/Libraries/STM8S_StdPeriph_Driver/src/stm8s_beep.c: 56: BEEP->CSR = BEEP_CSR_RESET_VALUE;
      000000 35 1F 50 F3      [ 1]   59 	mov	0x50f3+0, #0x1f
                                     60 ;	./STM8S_StdPeriph_Lib/Libraries/STM8S_StdPeriph_Driver/src/stm8s_beep.c: 57: }
      000004 81               [ 4]   61 	ret
                                     62 ;	./STM8S_StdPeriph_Lib/Libraries/STM8S_StdPeriph_Driver/src/stm8s_beep.c: 67: void BEEP_Init(BEEP_Frequency_TypeDef BEEP_Frequency)
                                     63 ;	-----------------------------------------
                                     64 ;	 function BEEP_Init
                                     65 ;	-----------------------------------------
      000005                         66 _BEEP_Init:
      000005 88               [ 1]   67 	push	a
                                     68 ;	./STM8S_StdPeriph_Lib/Libraries/STM8S_StdPeriph_Driver/src/stm8s_beep.c: 70: assert_param(IS_BEEP_FREQUENCY_OK(BEEP_Frequency));
      000006 6B 01            [ 1]   69 	ld	(0x01, sp), a
      000008 27 18            [ 1]   70 	jreq	00106$
      00000A 7B 01            [ 1]   71 	ld	a, (0x01, sp)
      00000C A1 40            [ 1]   72 	cp	a, #0x40
      00000E 27 12            [ 1]   73 	jreq	00106$
      000010 7B 01            [ 1]   74 	ld	a, (0x01, sp)
      000012 A1 80            [ 1]   75 	cp	a, #0x80
      000014 27 0C            [ 1]   76 	jreq	00106$
      000016 4B 46            [ 1]   77 	push	#0x46
      000018 5F               [ 1]   78 	clrw	x
      000019 89               [ 2]   79 	pushw	x
      00001A 4B 00            [ 1]   80 	push	#0x00
      00001C AEr00r00         [ 2]   81 	ldw	x, #(___str_0+0)
      00001F CDr00r00         [ 4]   82 	call	_assert_failed
      000022                         83 00106$:
                                     84 ;	./STM8S_StdPeriph_Lib/Libraries/STM8S_StdPeriph_Driver/src/stm8s_beep.c: 73: if ((BEEP->CSR & BEEP_CSR_BEEPDIV) == BEEP_CSR_BEEPDIV)
      000022 C6 50 F3         [ 1]   85 	ld	a, 0x50f3
      000025 43               [ 1]   86 	cpl	a
      000026 A5 1F            [ 1]   87 	bcp	a, #0x1f
      000028 26 10            [ 1]   88 	jrne	00102$
                                     89 ;	./STM8S_StdPeriph_Lib/Libraries/STM8S_StdPeriph_Driver/src/stm8s_beep.c: 75: BEEP->CSR &= (uint8_t)(~BEEP_CSR_BEEPDIV); /* Clear bits */
      00002A C6 50 F3         [ 1]   90 	ld	a, 0x50f3
      00002D A4 E0            [ 1]   91 	and	a, #0xe0
      00002F C7 50 F3         [ 1]   92 	ld	0x50f3, a
                                     93 ;	./STM8S_StdPeriph_Lib/Libraries/STM8S_StdPeriph_Driver/src/stm8s_beep.c: 76: BEEP->CSR |= BEEP_CALIBRATION_DEFAULT;
      000032 C6 50 F3         [ 1]   94 	ld	a, 0x50f3
      000035 AA 0B            [ 1]   95 	or	a, #0x0b
      000037 C7 50 F3         [ 1]   96 	ld	0x50f3, a
      00003A                         97 00102$:
                                     98 ;	./STM8S_StdPeriph_Lib/Libraries/STM8S_StdPeriph_Driver/src/stm8s_beep.c: 80: BEEP->CSR &= (uint8_t)(~BEEP_CSR_BEEPSEL);
      00003A C6 50 F3         [ 1]   99 	ld	a, 0x50f3
      00003D A4 3F            [ 1]  100 	and	a, #0x3f
      00003F C7 50 F3         [ 1]  101 	ld	0x50f3, a
                                    102 ;	./STM8S_StdPeriph_Lib/Libraries/STM8S_StdPeriph_Driver/src/stm8s_beep.c: 81: BEEP->CSR |= (uint8_t)(BEEP_Frequency);
      000042 C6 50 F3         [ 1]  103 	ld	a, 0x50f3
      000045 1A 01            [ 1]  104 	or	a, (0x01, sp)
      000047 C7 50 F3         [ 1]  105 	ld	0x50f3, a
                                    106 ;	./STM8S_StdPeriph_Lib/Libraries/STM8S_StdPeriph_Driver/src/stm8s_beep.c: 82: }
      00004A 84               [ 1]  107 	pop	a
      00004B 81               [ 4]  108 	ret
                                    109 ;	./STM8S_StdPeriph_Lib/Libraries/STM8S_StdPeriph_Driver/src/stm8s_beep.c: 91: void BEEP_Cmd(FunctionalState NewState)
                                    110 ;	-----------------------------------------
                                    111 ;	 function BEEP_Cmd
                                    112 ;	-----------------------------------------
      00004C                        113 _BEEP_Cmd:
      00004C 88               [ 1]  114 	push	a
      00004D 6B 01            [ 1]  115 	ld	(0x01, sp), a
                                    116 ;	./STM8S_StdPeriph_Lib/Libraries/STM8S_StdPeriph_Driver/src/stm8s_beep.c: 96: BEEP->CSR |= BEEP_CSR_BEEPEN;
      00004F C6 50 F3         [ 1]  117 	ld	a, 0x50f3
                                    118 ;	./STM8S_StdPeriph_Lib/Libraries/STM8S_StdPeriph_Driver/src/stm8s_beep.c: 93: if (NewState != DISABLE)
      000052 0D 01            [ 1]  119 	tnz	(0x01, sp)
      000054 27 07            [ 1]  120 	jreq	00102$
                                    121 ;	./STM8S_StdPeriph_Lib/Libraries/STM8S_StdPeriph_Driver/src/stm8s_beep.c: 96: BEEP->CSR |= BEEP_CSR_BEEPEN;
      000056 AA 20            [ 1]  122 	or	a, #0x20
      000058 C7 50 F3         [ 1]  123 	ld	0x50f3, a
      00005B 20 05            [ 2]  124 	jra	00104$
      00005D                        125 00102$:
                                    126 ;	./STM8S_StdPeriph_Lib/Libraries/STM8S_StdPeriph_Driver/src/stm8s_beep.c: 101: BEEP->CSR &= (uint8_t)(~BEEP_CSR_BEEPEN);
      00005D A4 DF            [ 1]  127 	and	a, #0xdf
      00005F C7 50 F3         [ 1]  128 	ld	0x50f3, a
      000062                        129 00104$:
                                    130 ;	./STM8S_StdPeriph_Lib/Libraries/STM8S_StdPeriph_Driver/src/stm8s_beep.c: 103: }
      000062 84               [ 1]  131 	pop	a
      000063 81               [ 4]  132 	ret
                                    133 ;	./STM8S_StdPeriph_Lib/Libraries/STM8S_StdPeriph_Driver/src/stm8s_beep.c: 118: void BEEP_LSICalibrationConfig(uint32_t LSIFreqHz)
                                    134 ;	-----------------------------------------
                                    135 ;	 function BEEP_LSICalibrationConfig
                                    136 ;	-----------------------------------------
      000064                        137 _BEEP_LSICalibrationConfig:
      000064 52 09            [ 2]  138 	sub	sp, #9
                                    139 ;	./STM8S_StdPeriph_Lib/Libraries/STM8S_StdPeriph_Driver/src/stm8s_beep.c: 124: assert_param(IS_LSI_FREQUENCY_OK(LSIFreqHz));
      000066 1E 0E            [ 2]  140 	ldw	x, (0x0e, sp)
      000068 A3 AD B0         [ 2]  141 	cpw	x, #0xadb0
      00006B 7B 0D            [ 1]  142 	ld	a, (0x0d, sp)
      00006D A2 01            [ 1]  143 	sbc	a, #0x01
      00006F 7B 0C            [ 1]  144 	ld	a, (0x0c, sp)
      000071 A2 00            [ 1]  145 	sbc	a, #0x00
      000073 25 0E            [ 1]  146 	jrc	00106$
      000075 AE 49 F0         [ 2]  147 	ldw	x, #0x49f0
      000078 13 0E            [ 2]  148 	cpw	x, (0x0e, sp)
      00007A A6 02            [ 1]  149 	ld	a, #0x02
      00007C 12 0D            [ 1]  150 	sbc	a, (0x0d, sp)
      00007E 4F               [ 1]  151 	clr	a
      00007F 12 0C            [ 1]  152 	sbc	a, (0x0c, sp)
      000081 24 0C            [ 1]  153 	jrnc	00107$
      000083                        154 00106$:
      000083 4B 7C            [ 1]  155 	push	#0x7c
      000085 5F               [ 1]  156 	clrw	x
      000086 89               [ 2]  157 	pushw	x
      000087 4B 00            [ 1]  158 	push	#0x00
      000089 AEr00r00         [ 2]  159 	ldw	x, #(___str_0+0)
      00008C CDr00r00         [ 4]  160 	call	_assert_failed
      00008F                        161 00107$:
                                    162 ;	./STM8S_StdPeriph_Lib/Libraries/STM8S_StdPeriph_Driver/src/stm8s_beep.c: 126: lsifreqkhz = (uint16_t)(LSIFreqHz / 1000); /* Converts value in kHz */
      00008F 4B E8            [ 1]  163 	push	#0xe8
      000091 4B 03            [ 1]  164 	push	#0x03
      000093 5F               [ 1]  165 	clrw	x
      000094 89               [ 2]  166 	pushw	x
      000095 1E 12            [ 2]  167 	ldw	x, (0x12, sp)
      000097 89               [ 2]  168 	pushw	x
      000098 1E 12            [ 2]  169 	ldw	x, (0x12, sp)
      00009A 89               [ 2]  170 	pushw	x
      00009B CDr00r00         [ 4]  171 	call	__divulong
      00009E 5B 08            [ 2]  172 	addw	sp, #8
      0000A0 1F 01            [ 2]  173 	ldw	(0x01, sp), x
                                    174 ;	./STM8S_StdPeriph_Lib/Libraries/STM8S_StdPeriph_Driver/src/stm8s_beep.c: 130: BEEP->CSR &= (uint8_t)(~BEEP_CSR_BEEPDIV); /* Clear bits */
      0000A2 C6 50 F3         [ 1]  175 	ld	a, 0x50f3
      0000A5 A4 E0            [ 1]  176 	and	a, #0xe0
      0000A7 C7 50 F3         [ 1]  177 	ld	0x50f3, a
                                    178 ;	./STM8S_StdPeriph_Lib/Libraries/STM8S_StdPeriph_Driver/src/stm8s_beep.c: 132: A = (uint16_t)(lsifreqkhz >> 3U); /* Division by 8, keep integer part only */
      0000AA 1E 01            [ 2]  179 	ldw	x, (0x01, sp)
      0000AC 54               [ 2]  180 	srlw	x
      0000AD 54               [ 2]  181 	srlw	x
      0000AE 54               [ 2]  182 	srlw	x
                                    183 ;	./STM8S_StdPeriph_Lib/Libraries/STM8S_StdPeriph_Driver/src/stm8s_beep.c: 134: if ((8U * A) >= ((lsifreqkhz - (8U * A)) * (1U + (2U * A))))
      0000AF 1F 03            [ 2]  184 	ldw	(0x03, sp), x
      0000B1 1F 08            [ 2]  185 	ldw	(0x08, sp), x
      0000B3 58               [ 2]  186 	sllw	x
      0000B4 58               [ 2]  187 	sllw	x
      0000B5 58               [ 2]  188 	sllw	x
      0000B6 1F 05            [ 2]  189 	ldw	(0x05, sp), x
      0000B8 16 01            [ 2]  190 	ldw	y, (0x01, sp)
      0000BA 72 F2 05         [ 2]  191 	subw	y, (0x05, sp)
      0000BD 1E 08            [ 2]  192 	ldw	x, (0x08, sp)
      0000BF 58               [ 2]  193 	sllw	x
      0000C0 5C               [ 1]  194 	incw	x
      0000C1 89               [ 2]  195 	pushw	x
      0000C2 93               [ 1]  196 	ldw	x, y
                                    197 ;	./STM8S_StdPeriph_Lib/Libraries/STM8S_StdPeriph_Driver/src/stm8s_beep.c: 130: BEEP->CSR &= (uint8_t)(~BEEP_CSR_BEEPDIV); /* Clear bits */
      0000C3 CDr00r00         [ 4]  198 	call	__mulint
      0000C6 1F 07            [ 2]  199 	ldw	(0x07, sp), x
      0000C8 C6 50 F3         [ 1]  200 	ld	a, 0x50f3
      0000CB 6B 09            [ 1]  201 	ld	(0x09, sp), a
                                    202 ;	./STM8S_StdPeriph_Lib/Libraries/STM8S_StdPeriph_Driver/src/stm8s_beep.c: 136: BEEP->CSR |= (uint8_t)(A - 2U);
      0000CD 7B 04            [ 1]  203 	ld	a, (0x04, sp)
                                    204 ;	./STM8S_StdPeriph_Lib/Libraries/STM8S_StdPeriph_Driver/src/stm8s_beep.c: 134: if ((8U * A) >= ((lsifreqkhz - (8U * A)) * (1U + (2U * A))))
      0000CF 1E 05            [ 2]  205 	ldw	x, (0x05, sp)
      0000D1 13 07            [ 2]  206 	cpw	x, (0x07, sp)
      0000D3 25 09            [ 1]  207 	jrc	00102$
                                    208 ;	./STM8S_StdPeriph_Lib/Libraries/STM8S_StdPeriph_Driver/src/stm8s_beep.c: 136: BEEP->CSR |= (uint8_t)(A - 2U);
      0000D5 A0 02            [ 1]  209 	sub	a, #0x02
      0000D7 1A 09            [ 1]  210 	or	a, (0x09, sp)
      0000D9 C7 50 F3         [ 1]  211 	ld	0x50f3, a
      0000DC 20 06            [ 2]  212 	jra	00104$
      0000DE                        213 00102$:
                                    214 ;	./STM8S_StdPeriph_Lib/Libraries/STM8S_StdPeriph_Driver/src/stm8s_beep.c: 140: BEEP->CSR |= (uint8_t)(A - 1U);
      0000DE 4A               [ 1]  215 	dec	a
      0000DF 1A 09            [ 1]  216 	or	a, (0x09, sp)
      0000E1 C7 50 F3         [ 1]  217 	ld	0x50f3, a
      0000E4                        218 00104$:
                                    219 ;	./STM8S_StdPeriph_Lib/Libraries/STM8S_StdPeriph_Driver/src/stm8s_beep.c: 142: }
      0000E4 1E 0A            [ 2]  220 	ldw	x, (10, sp)
      0000E6 5B 0F            [ 2]  221 	addw	sp, #15
      0000E8 FC               [ 2]  222 	jp	(x)
                                    223 	.area CODE
                                    224 	.area CONST
                                    225 	.area CONST
      000000                        226 ___str_0:
      000000 2E 2F 53 54 4D 38 53   227 	.ascii "./STM8S_StdPeriph_Lib/Libraries/STM8S_StdPeriph_Driver/src/s"
             5F 53 74 64 50 65 72
             69 70 68 5F 4C 69 62
             2F 4C 69 62 72 61 72
             69 65 73 2F 53 54 4D
             38 53 5F 53 74 64 50
             65 72 69 70 68 5F 44
             72 69 76 65 72 2F 73
             72 63 2F 73
      00003C 74 6D 38 73 5F 62 65   228 	.ascii "tm8s_beep.c"
             65 70 2E 63
      000047 00                     229 	.db 0x00
                                    230 	.area CODE
                                    231 	.area INITIALIZER
                                    232 	.area CABS (ABS)
