                                      1 ;--------------------------------------------------------
                                      2 ; File Created by SDCC : free open source ISO C Compiler 
                                      3 ; Version 4.4.0 #14620 (MINGW64)
                                      4 ;--------------------------------------------------------
                                      5 	.module usb_tx
                                      6 	.optsdcc -mstm8
                                      7 	
                                      8 ;--------------------------------------------------------
                                      9 ; Public variables in this module
                                     10 ;--------------------------------------------------------
                                     11 	.globl _usb_tx
                                     12 ;--------------------------------------------------------
                                     13 ; ram data
                                     14 ;--------------------------------------------------------
                                     15 	.area DATA
                                     16 ;--------------------------------------------------------
                                     17 ; ram data
                                     18 ;--------------------------------------------------------
                                     19 	.area INITIALIZED
      000000                         20 _tx_buf_size:
      000000                         21 	.ds 1
      000001                         22 _usb_tx_buf:
      000001                         23 	.ds 12
                                     24 ;--------------------------------------------------------
                                     25 ; absolute external ram data
                                     26 ;--------------------------------------------------------
                                     27 	.area DABS (ABS)
                                     28 
                                     29 ; default segment ordering for linker
                                     30 	.area HOME
                                     31 	.area GSINIT
                                     32 	.area GSFINAL
                                     33 	.area CONST
                                     34 	.area INITIALIZER
                                     35 	.area CODE
                                     36 
                                     37 ;--------------------------------------------------------
                                     38 ; global & static initialisations
                                     39 ;--------------------------------------------------------
                                     40 	.area HOME
                                     41 	.area GSINIT
                                     42 	.area GSFINAL
                                     43 	.area GSINIT
                                     44 ;--------------------------------------------------------
                                     45 ; Home
                                     46 ;--------------------------------------------------------
                                     47 	.area HOME
                                     48 	.area HOME
                                     49 ;--------------------------------------------------------
                                     50 ; code
                                     51 ;--------------------------------------------------------
                                     52 	.area CODE
                                     53 ;	usb_tx.c: 6: void usb_tx(void)
                                     54 ;	-----------------------------------------
                                     55 ;	 function usb_tx
                                     56 ;	-----------------------------------------
      000000                         57 _usb_tx:
                                     58 ;	usb_tx.c: 269: __endasm;
      000000 3Bu00u00         [ 1]   59 	push	_tx_buf_size
      000003 3Bu00u01         [ 1]   60 	push	_usb_tx_buf+0
      000006 3Bu00u02         [ 1]   61 	push	_usb_tx_buf+1
      000009 3Bu00u03         [ 1]   62 	push	_usb_tx_buf+2
      00000C 3Bu00u04         [ 1]   63 	push	_usb_tx_buf+3
      00000F 3Bu00u05         [ 1]   64 	push	_usb_tx_buf+4
      000012 3Bu00u06         [ 1]   65 	push	_usb_tx_buf+5
      000015 3Bu00u07         [ 1]   66 	push	_usb_tx_buf+6
      000018 3Bu00u08         [ 1]   67 	push	_usb_tx_buf+7
      00001B 3Bu00u09         [ 1]   68 	push	_usb_tx_buf+8
      00001E 3Bu00u0A         [ 1]   69 	push	_usb_tx_buf+9
      000021 3Bu00u0B         [ 1]   70 	push	_usb_tx_buf+10
      000024 3Bu00u0C         [ 1]   71 	push	_usb_tx_buf+11
      000027                         72 Tx_Bit0_0:
      000027 76               [ 1]   73 	rrc	(X)
      000028 25 0B            [ 1]   74 	jrc	Tx_Bit0_1;\U00004e0d\U00007ffb\U00008f6c\U00007535\U00005e73 j2 nj1
      00002A 72 53 50 0A      [ 1]   75 	cpl	0x500A;\U00007ffb\U00008f6c\U00008f93\U000051fa 1
      00002E A6 06            [ 1]   76 	ld	A,#6;\U0000590d\U00004f4d\U00008fde\U00007eed1\U00008ba1\U00006570 1
      000030 9D               [ 1]   77 	nop
      000031 9D               [ 1]   78 	nop
      000032 CCr00r48         [ 2]   79 	jp	Tx_Bit1_0; 2
      000035                         80 Tx_Bit0_1:
      000035 4A               [ 1]   81 	dec	a;\U0000524d\U00004e00\U00004f4d\U00007684\U00007b2c10\U00004e2a\U00005468\U0000671f
      000036 9D               [ 1]   82 	nop
      000037 9D               [ 1]   83 	nop
      000038 26 0E            [ 1]   84 	jrne	Tx_Bit1_0;a\U000051cf\U00004e86\U00004e4b\U0000540e\U00004e0d\U00007b49\U00004e8e0\U0000ff0c\U00005c31\U00008df32\U0000ff0c\U00007b49\U00004e8e\U000096f6 \U00004e0b\U00009762\U00004f4d\U000053cd\U00008f6c+\U00004f4d\U0000586b\U000051451
      00003A A6 06            [ 1]   85 	ld	A,#6;\U0000590d\U00004f4d\U00008fde\U00007eed1\U00008ba1\U00006570 1
      00003C 9D               [ 1]   86 	nop
      00003D 9D               [ 1]   87 	nop
                                     88 ;\U00005982\U0000679c\U00008fde\U00007eed\U000053d1\U00004e866\U00004f4d1\U0000ff0c\U00005219\U00009700\U00008981\U000053cd\U00008f6c\U000063d2\U00005165\U00004e00\U00004f4d
      00003E 72 53 50 0A      [ 1]   89 	cpl	0x500A;
      000042 9D               [ 1]   90 	nop
      000043 9D               [ 1]   91 	nop
      000044 9D               [ 1]   92 	nop
      000045 CCr00r48         [ 2]   93 	jp	Tx_Bit1_0;2
      000048                         94 Tx_Bit1_0:
      000048 76               [ 1]   95 	rrc	(X)
      000049 25 0B            [ 1]   96 	jrc	Tx_Bit1_1;\U00004e0d\U00007ffb\U00008f6c\U00007535\U00005e73 j2 nj1
      00004B 72 53 50 0A      [ 1]   97 	cpl	0x500A;\U00007ffb\U00008f6c\U00008f93\U000051fa 1
      00004F A6 06            [ 1]   98 	ld	A,#6;\U0000590d\U00004f4d\U00008fde\U00007eed1\U00008ba1\U00006570 1
      000051 9D               [ 1]   99 	nop
      000052 9D               [ 1]  100 	nop
      000053 CCr00r69         [ 2]  101 	jp	Tx_Bit2_0; 2
      000056                        102 Tx_Bit1_1:
      000056 4A               [ 1]  103 	dec	a;\U0000524d\U00004e00\U00004f4d\U00007684\U00007b2c10\U00004e2a\U00005468\U0000671f
      000057 9D               [ 1]  104 	nop
      000058 9D               [ 1]  105 	nop
      000059 26 0E            [ 1]  106 	jrne	Tx_Bit2_0;a\U000051cf\U00004e86\U00004e4b\U0000540e\U00004e0d\U00007b49\U00004e8e0\U0000ff0c\U00005c31\U00008df32\U0000ff0c\U00007b49\U00004e8e\U000096f6 \U00004e0b\U00009762\U00004f4d\U000053cd\U00008f6c+\U00004f4d\U0000586b\U000051451
      00005B A6 06            [ 1]  107 	ld	A,#6;\U0000590d\U00004f4d\U00008fde\U00007eed1\U00008ba1\U00006570 1
      00005D 9D               [ 1]  108 	nop
      00005E 9D               [ 1]  109 	nop
                                    110 ;\U00005982\U0000679c\U00008fde\U00007eed\U000053d1\U00004e866\U00004f4d1\U0000ff0c\U00005219\U00009700\U00008981\U000053cd\U00008f6c\U000063d2\U00005165\U00004e00\U00004f4d
      00005F 72 53 50 0A      [ 1]  111 	cpl	0x500A;
      000063 9D               [ 1]  112 	nop
      000064 9D               [ 1]  113 	nop
      000065 9D               [ 1]  114 	nop
      000066 CCr00r69         [ 2]  115 	jp	Tx_Bit2_0;2
      000069                        116 Tx_Bit2_0:
      000069 76               [ 1]  117 	rrc	(X)
      00006A 25 0B            [ 1]  118 	jrc	Tx_Bit2_1;\U00004e0d\U00007ffb\U00008f6c\U00007535\U00005e73 j2 nj1
      00006C 72 53 50 0A      [ 1]  119 	cpl	0x500A;\U00007ffb\U00008f6c\U00008f93\U000051fa 1
      000070 A6 06            [ 1]  120 	ld	A,#6;\U0000590d\U00004f4d\U00008fde\U00007eed1\U00008ba1\U00006570 1
      000072 9D               [ 1]  121 	nop
      000073 9D               [ 1]  122 	nop
      000074 CCr00r8A         [ 2]  123 	jp	Tx_Bit3_0; 2
      000077                        124 Tx_Bit2_1:
      000077 4A               [ 1]  125 	dec	a;\U0000524d\U00004e00\U00004f4d\U00007684\U00007b2c10\U00004e2a\U00005468\U0000671f
      000078 9D               [ 1]  126 	nop
      000079 9D               [ 1]  127 	nop
      00007A 26 0E            [ 1]  128 	jrne	Tx_Bit3_0;a\U000051cf\U00004e86\U00004e4b\U0000540e\U00004e0d\U00007b49\U00004e8e0\U0000ff0c\U00005c31\U00008df32\U0000ff0c\U00007b49\U00004e8e\U000096f6 \U00004e0b\U00009762\U00004f4d\U000053cd\U00008f6c+\U00004f4d\U0000586b\U000051451
      00007C A6 06            [ 1]  129 	ld	A,#6;\U0000590d\U00004f4d\U00008fde\U00007eed1\U00008ba1\U00006570 1
      00007E 9D               [ 1]  130 	nop
      00007F 9D               [ 1]  131 	nop
                                    132 ;\U00005982\U0000679c\U00008fde\U00007eed\U000053d1\U00004e866\U00004f4d1\U0000ff0c\U00005219\U00009700\U00008981\U000053cd\U00008f6c\U000063d2\U00005165\U00004e00\U00004f4d
      000080 72 53 50 0A      [ 1]  133 	cpl	0x500A;
      000084 9D               [ 1]  134 	nop
      000085 9D               [ 1]  135 	nop
      000086 9D               [ 1]  136 	nop
      000087 CCr00r8A         [ 2]  137 	jp	Tx_Bit3_0;2
      00008A                        138 Tx_Bit3_0:
      00008A 76               [ 1]  139 	rrc	(X)
      00008B 25 0B            [ 1]  140 	jrc	Tx_Bit3_1;\U00004e0d\U00007ffb\U00008f6c\U00007535\U00005e73 j2 nj1
      00008D 72 53 50 0A      [ 1]  141 	cpl	0x500A;\U00007ffb\U00008f6c\U00008f93\U000051fa 1
      000091 A6 06            [ 1]  142 	ld	A,#6;\U0000590d\U00004f4d\U00008fde\U00007eed1\U00008ba1\U00006570 1
      000093 9D               [ 1]  143 	nop
      000094 9D               [ 1]  144 	nop
      000095 CCr00rAB         [ 2]  145 	jp	Tx_Bit4_0; 2
      000098                        146 Tx_Bit3_1:
      000098 4A               [ 1]  147 	dec	a;\U0000524d\U00004e00\U00004f4d\U00007684\U00007b2c10\U00004e2a\U00005468\U0000671f
      000099 9D               [ 1]  148 	nop
      00009A 9D               [ 1]  149 	nop
      00009B 26 0E            [ 1]  150 	jrne	Tx_Bit4_0;a\U000051cf\U00004e86\U00004e4b\U0000540e\U00004e0d\U00007b49\U00004e8e0\U0000ff0c\U00005c31\U00008df32\U0000ff0c\U00007b49\U00004e8e\U000096f6 \U00004e0b\U00009762\U00004f4d\U000053cd\U00008f6c+\U00004f4d\U0000586b\U000051451
      00009D A6 06            [ 1]  151 	ld	A,#6;\U0000590d\U00004f4d\U00008fde\U00007eed1\U00008ba1\U00006570 1
      00009F 9D               [ 1]  152 	nop
      0000A0 9D               [ 1]  153 	nop
                                    154 ;\U00005982\U0000679c\U00008fde\U00007eed\U000053d1\U00004e866\U00004f4d1\U0000ff0c\U00005219\U00009700\U00008981\U000053cd\U00008f6c\U000063d2\U00005165\U00004e00\U00004f4d
      0000A1 72 53 50 0A      [ 1]  155 	cpl	0x500A;
      0000A5 9D               [ 1]  156 	nop
      0000A6 9D               [ 1]  157 	nop
      0000A7 9D               [ 1]  158 	nop
      0000A8 CCr00rAB         [ 2]  159 	jp	Tx_Bit4_0;2
      0000AB                        160 Tx_Bit4_0:
      0000AB 76               [ 1]  161 	rrc	(X)
      0000AC 25 0B            [ 1]  162 	jrc	Tx_Bit4_1;\U00004e0d\U00007ffb\U00008f6c\U00007535\U00005e73 j2 nj1
      0000AE 72 53 50 0A      [ 1]  163 	cpl	0x500A;\U00007ffb\U00008f6c\U00008f93\U000051fa 1
      0000B2 A6 06            [ 1]  164 	ld	A,#6;\U0000590d\U00004f4d\U00008fde\U00007eed1\U00008ba1\U00006570 1
      0000B4 9D               [ 1]  165 	nop
      0000B5 9D               [ 1]  166 	nop
      0000B6 CCr00rCC         [ 2]  167 	jp	Tx_Bit5_0;
      0000B9                        168 Tx_Bit4_1:
      0000B9 4A               [ 1]  169 	dec	a;\U0000524d\U00004e00\U00004f4d\U00007684\U00007b2c10\U00004e2a\U00005468\U0000671f
      0000BA 9D               [ 1]  170 	nop
      0000BB 9D               [ 1]  171 	nop
      0000BC 26 0E            [ 1]  172 	jrne	Tx_Bit5_0;a\U000051cf\U00004e86\U00004e4b\U0000540e\U00004e0d\U00007b49\U00004e8e0\U0000ff0c\U00005c31\U00008df32\U0000ff0c\U00007b49\U00004e8e\U000096f6 \U00004e0b\U00009762\U00004f4d\U000053cd\U00008f6c+\U00004f4d\U0000586b\U000051451
      0000BE A6 06            [ 1]  173 	ld	A,#6;\U0000590d\U00004f4d\U00008fde\U00007eed1\U00008ba1\U00006570 1
      0000C0 9D               [ 1]  174 	nop
      0000C1 9D               [ 1]  175 	nop
                                    176 ;\U00005982\U0000679c\U00008fde\U00007eed\U000053d1\U00004e866\U00004f4d1\U0000ff0c\U00005219\U00009700\U00008981\U000053cd\U00008f6c\U000063d2\U00005165\U00004e00\U00004f4d
      0000C2 72 53 50 0A      [ 1]  177 	cpl	0x500A;
      0000C6 9D               [ 1]  178 	nop
      0000C7 9D               [ 1]  179 	nop
      0000C8 9D               [ 1]  180 	nop
      0000C9 CCr00rCC         [ 2]  181 	jp	Tx_Bit5_0;2
      0000CC                        182 Tx_Bit5_0:
      0000CC 76               [ 1]  183 	rrc	(X)
      0000CD 25 0A            [ 1]  184 	jrc	Tx_Bit5_1;\U00004e0d\U00007ffb\U00008f6c\U00007535\U00005e73 j2 nj1
      0000CF 72 53 50 0A      [ 1]  185 	cpl	0x500A;\U00007ffb\U00008f6c\U00008f93\U000051fa 1
      0000D3 A6 06            [ 1]  186 	ld	A,#6;\U0000590d\U00004f4d\U00008fde\U00007eed1\U00008ba1\U00006570 1
      0000D5 76               [ 1]  187 	rrc	(X)
      0000D6 CCr00rEB         [ 2]  188 	jp	Tx_Bit6_0; 2
      0000D9                        189 Tx_Bit5_1:
      0000D9 76               [ 1]  190 	rrc	(X) ;10实际上是第六位的位移
      0000DA 4A               [ 1]  191 	dec	a;\U0000524d\U00004e00\U00004f4d\U00007684\U00007b2c10\U00004e2a\U00005468\U0000671f
      0000DB 26 0E            [ 1]  192 	jrne	Tx_Bit6_0;a\U000051cf\U00004e86\U00004e4b\U0000540e\U00004e0d\U00007b49\U00004e8e0\U0000ff0c\U00005c31\U00008df32\U0000ff0c\U00007b49\U00004e8e\U000096f6 \U00004e0b\U00009762\U00004f4d\U000053cd\U00008f6c+\U00004f4d\U0000586b\U000051451
      0000DD A6 06            [ 1]  193 	ld	A,#6;\U0000590d\U00004f4d\U00008fde\U00007eed1\U00008ba1\U00006570 1
      0000DF 9D               [ 1]  194 	nop
      0000E0 9D               [ 1]  195 	nop
      0000E1 8A               [ 1]  196 	push	CC
                                    197 ;\U00005982\U0000679c\U00008fde\U00007eed\U000053d1\U00004e866\U00004f4d1\U0000ff0c\U00005219\U00009700\U00008981\U000053cd\U00008f6c\U000063d2\U00005165\U00004e00\U00004f4d
      0000E2 72 53 50 0A      [ 1]  198 	cpl	0x500A;
      0000E6 86               [ 1]  199 	pop	CC
      0000E7 9D               [ 1]  200 	nop
      0000E8 CCr00rEB         [ 2]  201 	jp	Tx_Bit6_0;2
      0000EB                        202 Tx_Bit6_0:
      0000EB 25 0A            [ 1]  203 	jrc	Tx_Bit6_1;\U00004e0d\U00007ffb\U00008f6c\U00007535\U00005e73 j2 nj1 6/14
      0000ED A6 06            [ 1]  204 	ld	A,#6;\U0000590d\U00004f4d\U00008fde\U00007eed1\U00008ba1\U00006570 1
      0000EF 9D               [ 1]  205 	nop
      0000F0 72 53 50 0A      [ 1]  206 	cpl	0x500A;\U00007ffb\U00008f6c\U00008f93\U000051fa 1
      0000F4 CCr01r09         [ 2]  207 	jp	Tx_Bit7_0; 2
      0000F7                        208 Tx_Bit6_1:
      0000F7 4A               [ 1]  209 	dec	a;\U0000524d\U00004e00\U00004f4d\U00007684\U00007b2c8\U00004e2a\U00005468\U0000671f
      0000F8 9D               [ 1]  210 	nop
      0000F9 26 0E            [ 1]  211 	jrne	Tx_Bit7_0;
      0000FB A6 06            [ 1]  212 	ld	A,#6;\U0000590d\U00004f4d\U00008fde\U00007eed1\U00008ba1\U00006570 1
      0000FD 9D               [ 1]  213 	nop
      0000FE 9D               [ 1]  214 	nop
      0000FF 9D               [ 1]  215 	nop
      000100 9D               [ 1]  216 	nop
      000101 9D               [ 1]  217 	nop
      000102 72 53 50 0A      [ 1]  218 	cpl	0x500A;\U00005b9e\U00009645\U00004e0a\U00005c31\U0000662f7_0
      000106 CCr01r09         [ 2]  219 	jp	Tx_Bit7_0;2
      000109                        220 Tx_Bit7_0:
      000109 76               [ 1]  221 	rrc	(X) ;4/12
      00010A 5C               [ 1]  222 	incw	X;ptxbuf+1
      00010B 25 10            [ 1]  223 	jrc	Tx_Bit7_1;\U00004e0d\U00007ffb\U00008f6c\U00007535\U00005e73 j2 nj1
      00010D 9D               [ 1]  224 	nop
      00010E 72 53 50 0A      [ 1]  225 	cpl	0x500A;\U00007ffb\U00008f6c\U00008f93\U000051fa 1
      000112 A6 06            [ 1]  226 	ld	A,#6;\U0000590d\U00004f4d\U00008fde\U00007eed1\U00008ba1\U00006570 1
      000114 72 5Au00u00      [ 1]  227 	dec	_tx_buf_size;\U0000957f\U00005ea6-1
      000118 27 24            [ 1]  228 	jreq	Tx_Eop6
      00011A CCr00r27         [ 2]  229 	jp	Tx_Bit0_0
      00011D                        230 Tx_Bit7_1:
      00011D 4A               [ 1]  231 	dec	a;9/17
      00011E 27 09            [ 1]  232 	jreq	Tx_7_1_Flip
                                    233 ;\U00004e0d\U00007528\U00007ffb\U00008f6c\U00007684\U000060c5\U000051b5
      000120 72 5Au00u00      [ 1]  234 	dec	_tx_buf_size;11
      000124 27 18            [ 1]  235 	jreq	Tx_Eop6;\U00005982\U0000679c\U000053d1\U00005b8c\U00004e86\U0000ff0c\U000053bb\U00007ed3\U0000675f\U00006d41\U00007a0b
      000126 CCr00r27         [ 2]  236 	jp	Tx_Bit0_0;\U00006ca1\U000053d1\U00005b8c\U0000ff0c\U00007ee7\U00007eed
                                    237 ;\U00005904\U00007406\U00007535\U00005e73\U000053cd\U00008f6c
      000129                        238 Tx_7_1_Flip:
      000129 A6 06            [ 1]  239 	ld	A,#6;12
      00012B 9D               [ 1]  240 	nop
      00012C 9D               [ 1]  241 	nop
      00012D 9D               [ 1]  242 	nop
      00012E 9D               [ 1]  243 	nop
      00012F 72 53 50 0A      [ 1]  244 	cpl	0x500A;\U00007ffb\U00008f6c\U00008f93\U000051fa 1
      000133 72 5Au00u00      [ 1]  245 	dec	_tx_buf_size;\U0000957f\U00005ea6-1
      000137 27 04            [ 1]  246 	jreq	Tx_Eop5;\U00005982\U0000679c\U000053d1\U00005b8c\U00004e86\U0000ff0c\U000053bb\U00007ed3\U0000675f\U00006d41\U00007a0b
      000139 9D               [ 1]  247 	nop
      00013A CCr00r27         [ 2]  248 	jp	Tx_Bit0_0
                                    249 ;\U000053d1\U000090012bit	time\U00007684se0
                                    250 ;\U000053d1\U000090011bit	time\U00007684j
      00013D                        251 Tx_Eop5:
      00013D 9D               [ 1]  252 	nop
      00013E                        253 Tx_Eop6:
      00013E 9D               [ 1]  254 	nop
      00013F 9D               [ 1]  255 	nop
      000140 9D               [ 1]  256 	nop
      000141 72 5F 50 0A      [ 1]  257 	clr	0x500A;se0
      000145 90 AE 00 03      [ 2]  258 	ldw	Y,#3;2
      000149                        259 NOP_delay1:
      000149 90 5A            [ 2]  260 	decw	Y
      00014B 26 FC            [ 1]  261 	jrne	NOP_delay1
      00014D 9D               [ 1]  262 	nop
      00014E 9D               [ 1]  263 	nop
      00014F 72 1C 50 0A      [ 1]  264 	bset	0x500A,#6;pc6\U000062c9\U00009ad8\U0000ff0c\U00005230\U00008fd9\U000091cc\U00005dee\U00004e0d\U0000591a\U0000662f2bit time
      000153 32u00u0C         [ 1]  265 	pop	_usb_tx_buf+11
      000156 32u00u0B         [ 1]  266 	pop	_usb_tx_buf+10
      000159 32u00u0A         [ 1]  267 	pop	_usb_tx_buf+9
      00015C 32u00u09         [ 1]  268 	pop	_usb_tx_buf+8
      00015F 32u00u08         [ 1]  269 	pop	_usb_tx_buf+7
      000162 32u00u07         [ 1]  270 	pop	_usb_tx_buf+6
      000165 32u00u06         [ 1]  271 	pop	_usb_tx_buf+5
      000168 32u00u05         [ 1]  272 	pop	_usb_tx_buf+4
      00016B 32u00u04         [ 1]  273 	pop	_usb_tx_buf+3
      00016E 32u00u03         [ 1]  274 	pop	_usb_tx_buf+2
      000171 32u00u02         [ 1]  275 	pop	_usb_tx_buf+1
      000174 32u00u01         [ 1]  276 	pop	_usb_tx_buf+0
      000177 32u00u00         [ 1]  277 	pop	_tx_buf_size
                                    278 ;	usb_tx.c: 270: }
      00017A 81               [ 4]  279 	ret
                                    280 	.area CODE
                                    281 	.area CONST
                                    282 	.area INITIALIZER
      000000                        283 __xinit__tx_buf_size:
      000000 02                     284 	.db #0x02	; 2
      000001                        285 __xinit__usb_tx_buf:
      000001 00                     286 	.db #0x00	; 0
      000002 00                     287 	.db 0x00
      000003 00                     288 	.db 0x00
      000004 00                     289 	.db 0x00
      000005 00                     290 	.db 0x00
      000006 00                     291 	.db 0x00
      000007 00                     292 	.db 0x00
      000008 00                     293 	.db 0x00
      000009 00                     294 	.db 0x00
      00000A 00                     295 	.db 0x00
      00000B 00                     296 	.db 0x00
      00000C 00                     297 	.db 0x00
                                    298 	.area CABS (ABS)
